ARM GAS  C:\Users\KOZLOV~1\AppData\Local\Temp\cc7z5Qbi.s 			page 1


   1              		.code	16
   2              		.file	"bt.c"
   3              		.text
   4              	.Ltext0:
   5              		.cfi_sections	.debug_frame
   6              		.align	1
   7              		.code	16
   8              		.thumb_func
   9              		.type	drawBtsFound, %function
  10              	drawBtsFound:
  11              	.LFB3:
  12              		.file 1 "bt.c"
   1:bt.c          **** /******************************************************************************
   2:bt.c          ****  *
   3:bt.c          ****  * Copyright:
   4:bt.c          ****  *    (C) 2006 Embedded Artists AB
   5:bt.c          ****  *
   6:bt.c          ****  * File:
   7:bt.c          ****  *    bt.c
   8:bt.c          ****  *
   9:bt.c          ****  * Description:
  10:bt.c          ****  *    Demonstrate communication with the Philips Bluetooth module, BGB203-S06
  11:bt.c          ****  *
  12:bt.c          ****  *****************************************************************************/
  13:bt.c          ****  
  14:bt.c          **** /******************************************************************************
  15:bt.c          ****  * Includes
  16:bt.c          ****  *****************************************************************************/
  17:bt.c          **** #include "../pre_emptive_os/api/osapi.h"
  18:bt.c          **** #include "../pre_emptive_os/api/general.h"
  19:bt.c          **** #include <printf_P.h>
  20:bt.c          **** #include <ea_init.h>
  21:bt.c          **** #include <stdlib.h>
  22:bt.c          **** #include <string.h>
  23:bt.c          **** #include "lcd.h"
  24:bt.c          **** #include "key.h"
  25:bt.c          **** #include "uart.h"
  26:bt.c          **** #include "hw.h"
  27:bt.c          **** #include "select.h"
  28:bt.c          **** 
  29:bt.c          **** /******************************************************************************
  30:bt.c          ****  * Typedefs and defines
  31:bt.c          ****  *****************************************************************************/
  32:bt.c          **** #define RECV_BUF_LEN 32
  33:bt.c          **** #define PROC_BT_STACK_SIZE 800
  34:bt.c          **** 
  35:bt.c          **** #define BT_BACKGROUND_COLOR     0x01
  36:bt.c          **** #define BT_BACKBACKGROUND_COLOR 0x03
  37:bt.c          **** 
  38:bt.c          **** #define MAX_BT_UNITS 5
  39:bt.c          **** 
  40:bt.c          **** typedef struct
  41:bt.c          **** {
  42:bt.c          ****   tU8 active;
  43:bt.c          ****   tU8 btAddress[13];
  44:bt.c          ****   tU8 btName[17];
  45:bt.c          **** } tBtRecord;
ARM GAS  C:\Users\KOZLOV~1\AppData\Local\Temp\cc7z5Qbi.s 			page 2


  46:bt.c          **** 
  47:bt.c          **** 
  48:bt.c          **** /*****************************************************************************
  49:bt.c          ****  * Local variables
  50:bt.c          ****  ****************************************************************************/
  51:bt.c          **** static tU8 procBtStack[PROC_BT_STACK_SIZE];
  52:bt.c          **** static tU8 pidBt;
  53:bt.c          **** 
  54:bt.c          **** static volatile tBool stopRecvProc = FALSE;
  55:bt.c          **** static tCntSem recvSem;
  56:bt.c          **** 
  57:bt.c          **** static tU8 btCursor = 0;
  58:bt.c          **** 
  59:bt.c          **** static tBool btSleepState = FALSE;
  60:bt.c          **** static tBool btCommandMode = FALSE;
  61:bt.c          **** 
  62:bt.c          **** static tU8 localName[17];
  63:bt.c          **** static tU8 btAddress[13];
  64:bt.c          **** 
  65:bt.c          **** static tBtRecord foundBtUnits[MAX_BT_UNITS];
  66:bt.c          **** 
  67:bt.c          **** 
  68:bt.c          **** /*****************************************************************************
  69:bt.c          ****  * External variables
  70:bt.c          ****  ****************************************************************************/
  71:bt.c          **** extern volatile tU32 ms;
  72:bt.c          **** 
  73:bt.c          **** 
  74:bt.c          **** /*****************************************************************************
  75:bt.c          ****  * Local function prototype
  76:bt.c          ****  ****************************************************************************/
  77:bt.c          **** static void procBt(void* arg);
  78:bt.c          **** static void btSetMode(tBool commandMode);
  79:bt.c          **** 
  80:bt.c          **** 
  81:bt.c          **** /*****************************************************************************
  82:bt.c          ****  *
  83:bt.c          ****  * Description:
  84:bt.c          ****  *    Initialize and start a process handling the BGB203-S06 communication
  85:bt.c          ****  *    (over UART channel #1).
  86:bt.c          ****  *
  87:bt.c          ****  ****************************************************************************/
  88:bt.c          **** void
  89:bt.c          **** initBtProc(void)
  90:bt.c          **** {
  91:bt.c          ****   tU8 error;
  92:bt.c          ****   
  93:bt.c          ****   osSemInit(&recvSem, 1);
  94:bt.c          **** 
  95:bt.c          ****   osCreateProcess(procBt, procBtStack, PROC_BT_STACK_SIZE, &pidBt, 4, NULL, &error);
  96:bt.c          ****   osStartProcess(pidBt, &error);
  97:bt.c          **** }
  98:bt.c          **** 
  99:bt.c          **** 
 100:bt.c          **** /*****************************************************************************
 101:bt.c          ****  *
 102:bt.c          ****  * Description:
ARM GAS  C:\Users\KOZLOV~1\AppData\Local\Temp\cc7z5Qbi.s 			page 3


 103:bt.c          ****  *    A process entry function - the BGb203-S06 handling process
 104:bt.c          ****  *
 105:bt.c          ****  * Params:
 106:bt.c          ****  *    [in] arg - This parameter is not used in this application. 
 107:bt.c          ****  *
 108:bt.c          ****  ****************************************************************************/
 109:bt.c          **** static void
 110:bt.c          **** procBt(void* arg)
 111:bt.c          **** {
 112:bt.c          ****   tU8 error;
 113:bt.c          **** 
 114:bt.c          ****   //reset BGB203 modules
 115:bt.c          ****   resetBT(TRUE);
 116:bt.c          ****   osSleep(2);
 117:bt.c          ****   resetBT(FALSE);
 118:bt.c          ****   osSleep(5);
 119:bt.c          **** 
 120:bt.c          ****   //extra sleep
 121:bt.c          ****   osSleep(50);
 122:bt.c          ****   
 123:bt.c          ****   //initialize uart #1: 115200 kbps, 8N1, FIFO
 124:bt.c          ****   initUart1(B115200((CORE_FREQ) / PBSD), UART_8N1, UART_FIFO_16);
 125:bt.c          **** 
 126:bt.c          ****   /***************************************************************************
 127:bt.c          ****    * Startup command sequence
 128:bt.c          ****    *   This command sequence is just used for production testing
 129:bt.c          ****    **************************************************************************/
 130:bt.c          ****   osSleep(50);
 131:bt.c          ****   uart1SendString("+++");
 132:bt.c          ****   osSleep(50);
 133:bt.c          ****   uart1SendString("ATI\r");
 134:bt.c          ****   osSleep(50);
 135:bt.c          ****   uart1SendString("AT+BTLNM\r");
 136:bt.c          ****   
 137:bt.c          ****   osSleep(100);
 138:bt.c          ****   uart1SendString("AT+BTBDA\r");
 139:bt.c          ****   osSleep(100);
 140:bt.c          ****   uart1SendString("AT+BTINQ=5\r");
 141:bt.c          ****   osSleep(600);
 142:bt.c          **** 
 143:bt.c          ****   //Switch to server mode where other BT devices can detect this unit
 144:bt.c          ****   //during an 'inquiry'
 145:bt.c          ****   uart1SendString("AT+BTSRV=1\r");
 146:bt.c          **** 
 147:bt.c          ****   /***************************************************************************
 148:bt.c          ****    * Loop forever and create a terminal directly between the
 149:bt.c          ****    * USB serial port and the BT module
 150:bt.c          ****    **************************************************************************/
 151:bt.c          ****   while(1)
 152:bt.c          ****   {
 153:bt.c          ****     osSemTake(&recvSem, 0, &error);
 154:bt.c          **** 
 155:bt.c          ****     while (stopRecvProc == FALSE)
 156:bt.c          ****     {
 157:bt.c          ****       tU8 rxChar;
 158:bt.c          ****       tU8 nothing;
 159:bt.c          **** 
ARM GAS  C:\Users\KOZLOV~1\AppData\Local\Temp\cc7z5Qbi.s 			page 4


 160:bt.c          **** 
 161:bt.c          ****       nothing = TRUE;
 162:bt.c          **** 
 163:bt.c          ****       //check if any character has been received from terminal
 164:bt.c          ****       if (consolGetChar(&rxChar) == TRUE)
 165:bt.c          ****       {
 166:bt.c          ****         uart1SendChar(rxChar);
 167:bt.c          ****         nothing = FALSE;
 168:bt.c          ****       }
 169:bt.c          **** 
 170:bt.c          ****       //check if any character has been received from BT
 171:bt.c          ****       if (uart1GetChar(&rxChar) == TRUE)
 172:bt.c          ****       {
 173:bt.c          ****         printf("%c", rxChar);
 174:bt.c          ****         nothing = FALSE;
 175:bt.c          ****       }
 176:bt.c          ****         
 177:bt.c          ****       if (nothing == TRUE)
 178:bt.c          ****         osSleep(1);
 179:bt.c          ****     }
 180:bt.c          ****     stopRecvProc = FALSE;
 181:bt.c          ****   }
 182:bt.c          **** }
 183:bt.c          **** 
 184:bt.c          **** 
 185:bt.c          **** /*****************************************************************************
 186:bt.c          ****  *
 187:bt.c          ****  * Description:
 188:bt.c          ****  *    Prints a text string with a delay between each character, much like
 189:bt.c          ****  *    a typewriter.
 190:bt.c          ****  *
 191:bt.c          ****  ****************************************************************************/
 192:bt.c          **** static void
 193:bt.c          **** displayMessage(tU8 *pMessage, tU8 speed)
 194:bt.c          **** {
 195:bt.c          ****   while(*pMessage != '\0')
 196:bt.c          ****   {
 197:bt.c          ****     lcdPutchar(*pMessage++);
 198:bt.c          ****     osSleep(speed);
 199:bt.c          ****   }
 200:bt.c          **** }
 201:bt.c          **** 
 202:bt.c          **** 
 203:bt.c          **** /*****************************************************************************
 204:bt.c          ****  *
 205:bt.c          ****  * Description:
 206:bt.c          ****  *    Prints the list of 'found' Bluetooth units
 207:bt.c          ****  *
 208:bt.c          ****  ****************************************************************************/
 209:bt.c          **** static void
 210:bt.c          **** drawBtsFound(tBool drawCursor, tU8 cursorPos)
 211:bt.c          **** {
  13              		.loc 1 211 0
  14              		.cfi_startproc
  15 0000 F0B5     		push	{r4, r5, r6, r7, lr}
  16              	.LCFI0:
  17              		.cfi_def_cfa_offset 20
ARM GAS  C:\Users\KOZLOV~1\AppData\Local\Temp\cc7z5Qbi.s 			page 5


  18              		.cfi_offset 4, -20
  19              		.cfi_offset 5, -16
  20              		.cfi_offset 6, -12
  21              		.cfi_offset 7, -8
  22              		.cfi_offset 14, -4
  23              	.LVL0:
  24              		.loc 1 211 0
  25 0002 0506     		lsl	r5, r0, #24
  26 0004 0E06     		lsl	r6, r1, #24
  27 0006 2D0E     		lsr	r5, r5, #24
  28 0008 360E     		lsr	r6, r6, #24
  29 000a 1E27     		mov	r7, #30
 212:bt.c          ****   tU32 row;
 213:bt.c          **** 
 214:bt.c          ****   for(row=0; row<MAX_BT_UNITS; row++)
  30              		.loc 1 214 0
  31 000c 0024     		mov	r4, #0
  32              	.LVL1:
  33              	.L8:
 215:bt.c          ****   {
 216:bt.c          ****     lcdGotoxy(2,30+(14*row));
  34              		.loc 1 216 0
  35 000e 0220     		mov	r0, #2
  36 0010 391C     		mov	r1, r7
  37 0012 FFF7FEFF 		bl	lcdGotoxy
 217:bt.c          ****     if(foundBtUnits[row].active == FALSE)
  38              		.loc 1 217 0
  39 0016 154A     		ldr	r2, .L13
 210:bt.c          **** drawBtsFound(tBool drawCursor, tU8 cursorPos)
  40              		.loc 1 210 0
  41 0018 6301     		lsl	r3, r4, #5
  42              		.loc 1 217 0
  43 001a 9B5C     		ldrb	r3, [r3, r2]
  44 001c 002B     		cmp	r3, #0
  45 001e 0CD1     		bne	.L2
 218:bt.c          ****     {
 219:bt.c          ****       if ((drawCursor == TRUE) && (cursorPos == row))
  46              		.loc 1 219 0
  47 0020 012D     		cmp	r5, #1
  48 0022 04D1     		bne	.L3
  49              		.loc 1 219 0 is_stmt 0 discriminator 1
  50 0024 A642     		cmp	r6, r4
  51 0026 02D1     		bne	.L3
 220:bt.c          ****         lcdColor(BT_BACKGROUND_COLOR+1,0xe0);
  52              		.loc 1 220 0 is_stmt 1
  53 0028 0220     		mov	r0, #2
  54 002a E021     		mov	r1, #224
  55 002c 01E0     		b	.L10
  56              	.L3:
 221:bt.c          ****       else
 222:bt.c          ****         lcdColor(BT_BACKGROUND_COLOR,0xfd);
  57              		.loc 1 222 0
  58 002e 0120     		mov	r0, #1
  59 0030 FD21     		mov	r1, #253
  60              	.L10:
  61 0032 FFF7FEFF 		bl	lcdColor
 223:bt.c          ****       lcdPuts("-");
ARM GAS  C:\Users\KOZLOV~1\AppData\Local\Temp\cc7z5Qbi.s 			page 6


  62              		.loc 1 223 0
  63 0036 0E48     		ldr	r0, .L13+4
  64 0038 0EE0     		b	.L12
  65              	.L2:
 224:bt.c          ****     }
 225:bt.c          ****     else
 226:bt.c          ****     {
 227:bt.c          ****       if ((drawCursor == TRUE) && (cursorPos == row))
  66              		.loc 1 227 0
  67 003a 012D     		cmp	r5, #1
  68 003c 04D1     		bne	.L6
  69              		.loc 1 227 0 is_stmt 0 discriminator 1
  70 003e A642     		cmp	r6, r4
  71 0040 02D1     		bne	.L6
 228:bt.c          ****         lcdColor(BT_BACKGROUND_COLOR+1,0xe0);
  72              		.loc 1 228 0 is_stmt 1
  73 0042 0220     		mov	r0, #2
  74 0044 E021     		mov	r1, #224
  75 0046 01E0     		b	.L11
  76              	.L6:
 229:bt.c          ****       else
 230:bt.c          ****         lcdColor(BT_BACKGROUND_COLOR,0xfd);
  77              		.loc 1 230 0
  78 0048 0120     		mov	r0, #1
  79 004a FD21     		mov	r1, #253
  80              	.L11:
  81 004c FFF7FEFF 		bl	lcdColor
 231:bt.c          ****       lcdPuts(foundBtUnits[row].btAddress);
  82              		.loc 1 231 0
  83 0050 064B     		ldr	r3, .L13
  84 0052 6001     		lsl	r0, r4, #5
  85 0054 1818     		add	r0, r3, r0
  86 0056 0130     		add	r0, r0, #1
  87              	.L12:
 214:bt.c          ****   for(row=0; row<MAX_BT_UNITS; row++)
  88              		.loc 1 214 0
  89 0058 0134     		add	r4, r4, #1
  90              		.loc 1 231 0
  91 005a FFF7FEFF 		bl	lcdPuts
  92              	.LVL2:
 214:bt.c          ****   for(row=0; row<MAX_BT_UNITS; row++)
  93              		.loc 1 214 0
  94 005e 0E37     		add	r7, r7, #14
  95 0060 052C     		cmp	r4, #5
  96 0062 D4D1     		bne	.L8
 232:bt.c          ****     }
 233:bt.c          ****   }
 234:bt.c          **** }
  97              		.loc 1 234 0
  98              		@ sp needed for prologue
  99              	.LVL3:
 100 0064 F0BC     		pop	{r4, r5, r6, r7}
 101 0066 01BC     		pop	{r0}
 102 0068 0047     		bx	r0
 103              	.L14:
 104 006a C046     		.align	2
 105              	.L13:
ARM GAS  C:\Users\KOZLOV~1\AppData\Local\Temp\cc7z5Qbi.s 			page 7


 106 006c 00000000 		.word	.LANCHOR0
 107 0070 00000000 		.word	.LC3
 108              		.cfi_endproc
 109              	.LFE3:
 110              		.size	drawBtsFound, .-drawBtsFound
 111              		.align	1
 112              		.code	16
 113              		.thumb_func
 114              		.type	drawBtName, %function
 115              	drawBtName:
 116              	.LFB7:
 235:bt.c          **** 
 236:bt.c          **** 
 237:bt.c          **** /*****************************************************************************
 238:bt.c          ****  *
 239:bt.c          ****  * Description:
 240:bt.c          ****  *    Perform a Bluetooth 'inquiry' and displays the result, i.e., found
 241:bt.c          ****  *    units in the proximity of this unit.
 242:bt.c          ****  *
 243:bt.c          ****  ****************************************************************************/
 244:bt.c          **** static void
 245:bt.c          **** btInquiry(void)
 246:bt.c          **** {
 247:bt.c          ****   tU8  rxChar;
 248:bt.c          ****   tU8  done;
 249:bt.c          ****   tU8  anyKey;
 250:bt.c          ****   tU8  cursorPos;
 251:bt.c          ****   volatile tU32 timeStamp;
 252:bt.c          ****   tU8  recvPos;
 253:bt.c          ****   tU8  error;
 254:bt.c          ****   tU8  recvBuf[RECV_BUF_LEN];
 255:bt.c          ****   tU8  foundBt;
 256:bt.c          ****   tU32 cnt;
 257:bt.c          ****   tU8  numServices;
 258:bt.c          **** 
 259:bt.c          ****   for(foundBt=0; foundBt<MAX_BT_UNITS; foundBt++)
 260:bt.c          ****   {
 261:bt.c          ****     foundBtUnits[foundBt].active = FALSE;
 262:bt.c          ****     foundBtUnits[foundBt].btName[0] = '\0';
 263:bt.c          ****   }
 264:bt.c          **** 
 265:bt.c          ****   //clear menu screen
 266:bt.c          ****   lcdRect(1, 16, 126, 84, BT_BACKGROUND_COLOR);
 267:bt.c          ****   lcdGotoxy(18,16);
 268:bt.c          ****   lcdColor(BT_BACKGROUND_COLOR,0xfd);
 269:bt.c          ****   lcdPuts("Inquiry");
 270:bt.c          ****   drawBtsFound(FALSE,0);
 271:bt.c          **** 
 272:bt.c          ****   //stop the BT handling process
 273:bt.c          ****   stopRecvProc = TRUE;
 274:bt.c          **** 
 275:bt.c          ****   //*************************************************************
 276:bt.c          ****   //* Start inquiry (during 6 seconds)
 277:bt.c          ****   //*************************************************************
 278:bt.c          ****   osSleep(100);
 279:bt.c          ****   uart1SendString("+++");
 280:bt.c          ****   osSleep(100);
ARM GAS  C:\Users\KOZLOV~1\AppData\Local\Temp\cc7z5Qbi.s 			page 8


 281:bt.c          ****   uart1SendString("AT+BTINQ=6\r");
 282:bt.c          **** 
 283:bt.c          ****   //*************************************************************
 284:bt.c          ****   //* Get (receive and interpret) discovered units
 285:bt.c          ****   //*************************************************************
 286:bt.c          ****   timeStamp = ms;
 287:bt.c          ****   done = FALSE;
 288:bt.c          ****   recvPos = 0;
 289:bt.c          ****   foundBt = 0;
 290:bt.c          ****   cnt = 0;
 291:bt.c          ****   while((done == FALSE) && ((ms - timeStamp) < 6500))
 292:bt.c          ****   {
 293:bt.c          ****     //check if any character has been received from BT
 294:bt.c          ****     if (uart1GetChar(&rxChar) == TRUE)
 295:bt.c          ****     {
 296:bt.c          ****       printf("%c", rxChar);
 297:bt.c          ****       
 298:bt.c          ****       if (rxChar == 0x0a)
 299:bt.c          ****       {
 300:bt.c          ****         if (recvPos > 0)
 301:bt.c          ****           recvBuf[recvPos-1] = '\0';
 302:bt.c          **** 
 303:bt.c          ****         //evaluate received bytes
 304:bt.c          ****         if ((memcmp(recvBuf, "+BTINQ: ", 8) == 0) && (recvPos == 29))
 305:bt.c          ****         {
 306:bt.c          ****           if (foundBt < MAX_BT_UNITS)
 307:bt.c          ****           {
 308:bt.c          ****             for(recvPos=0; recvPos<12; recvPos++)
 309:bt.c          ****               foundBtUnits[foundBt].btAddress[recvPos] = recvBuf[recvPos + 8];
 310:bt.c          ****             foundBtUnits[foundBt].btAddress[12] = '\0';
 311:bt.c          ****             foundBtUnits[foundBt].active = TRUE;
 312:bt.c          ****             foundBt++;
 313:bt.c          **** 
 314:bt.c          ****             //display newly found bt unit
 315:bt.c          ****             drawBtsFound(FALSE, 0);
 316:bt.c          ****           }
 317:bt.c          ****         }
 318:bt.c          ****         else if (memcmp(recvBuf, "+BTINQ: COMPLETE", 16) == 0)
 319:bt.c          ****         {
 320:bt.c          ****           done = TRUE;
 321:bt.c          ****         }
 322:bt.c          ****         recvPos = 0;
 323:bt.c          ****       }
 324:bt.c          ****       else if (recvPos < RECV_BUF_LEN)
 325:bt.c          ****         recvBuf[recvPos++] = rxChar;
 326:bt.c          ****     }
 327:bt.c          ****     osSleep(1);
 328:bt.c          **** 
 329:bt.c          ****     //print activity indicator
 330:bt.c          ****     lcdGotoxy(74,16);
 331:bt.c          ****     lcdColor(BT_BACKGROUND_COLOR,0xfd);
 332:bt.c          ****     switch(cnt % 150)
 333:bt.c          ****     {
 334:bt.c          ****       case   0: lcdPuts("   ");break;
 335:bt.c          ****       case  25: lcdPuts(".  ");break;
 336:bt.c          ****       case  50: lcdPuts(".. ");break;
 337:bt.c          ****       case  75: lcdPuts("...");break;
ARM GAS  C:\Users\KOZLOV~1\AppData\Local\Temp\cc7z5Qbi.s 			page 9


 338:bt.c          ****       case 100: lcdPuts(" ..");break;
 339:bt.c          ****       case 125: lcdPuts("  .");break;
 340:bt.c          ****       default: break;
 341:bt.c          ****     }
 342:bt.c          ****     cnt ++;
 343:bt.c          ****   }
 344:bt.c          **** 
 345:bt.c          ****   lcdGotoxy(74,16);
 346:bt.c          ****   lcdColor(BT_BACKGROUND_COLOR,0xfd);
 347:bt.c          ****   lcdPuts("-done");
 348:bt.c          **** 
 349:bt.c          ****   //*************************************************************
 350:bt.c          ****   //* Handle user key inputs (move between discovered units)
 351:bt.c          ****   //*************************************************************
 352:bt.c          ****   done = FALSE;
 353:bt.c          ****   cursorPos = 0;
 354:bt.c          ****   drawBtsFound(TRUE, cursorPos);
 355:bt.c          ****   while(done == FALSE)
 356:bt.c          ****   {
 357:bt.c          ****     anyKey = checkKey();
 358:bt.c          ****     if (anyKey != KEY_NOTHING)
 359:bt.c          ****     {
 360:bt.c          ****       //exit and save new name
 361:bt.c          ****       if (anyKey == KEY_CENTER)
 362:bt.c          ****       {
 363:bt.c          ****         done = TRUE;
 364:bt.c          ****       }
 365:bt.c          **** 
 366:bt.c          ****       //
 367:bt.c          ****       else if (anyKey == KEY_UP)
 368:bt.c          ****       {
 369:bt.c          ****         if (cursorPos > 0)
 370:bt.c          ****           cursorPos--;
 371:bt.c          ****         else
 372:bt.c          ****           cursorPos = MAX_BT_UNITS-1;
 373:bt.c          ****         drawBtsFound(TRUE, cursorPos);
 374:bt.c          ****       }
 375:bt.c          ****       
 376:bt.c          ****       //
 377:bt.c          ****       else if (anyKey == KEY_DOWN)
 378:bt.c          ****       {
 379:bt.c          ****         if (cursorPos < MAX_BT_UNITS-1)
 380:bt.c          ****           cursorPos++;
 381:bt.c          ****         else
 382:bt.c          ****           cursorPos = 0;
 383:bt.c          ****           drawBtsFound(TRUE, cursorPos);
 384:bt.c          ****       }
 385:bt.c          ****     }
 386:bt.c          ****     osSleep(1);
 387:bt.c          ****   }
 388:bt.c          **** 
 389:bt.c          ****   //*************************************************************
 390:bt.c          ****   //* Get name of selected (discovered) bt unit
 391:bt.c          ****   //*************************************************************
 392:bt.c          ****   cnt = 0;
 393:bt.c          ****   numServices = 0;
 394:bt.c          ****   if (foundBtUnits[cursorPos].active == TRUE)
ARM GAS  C:\Users\KOZLOV~1\AppData\Local\Temp\cc7z5Qbi.s 			page 10


 395:bt.c          ****   {
 396:bt.c          ****     tU8   serviceName[17];
 397:bt.c          ****     tBool longName = FALSE;
 398:bt.c          **** 
 399:bt.c          ****     uart1SendString("AT+BTSDP=");
 400:bt.c          ****     uart1SendString(foundBtUnits[cursorPos].btAddress);
 401:bt.c          ****     uart1SendString("\r");
 402:bt.c          **** 
 403:bt.c          ****     timeStamp = ms;
 404:bt.c          ****     done = FALSE;
 405:bt.c          ****     recvPos = 0;
 406:bt.c          **** 
 407:bt.c          ****     while((done == FALSE) && ((ms - timeStamp) < 6000))
 408:bt.c          ****     {
 409:bt.c          ****       //check if any character has been received from BT
 410:bt.c          ****       if (uart1GetChar(&rxChar) == TRUE)
 411:bt.c          ****       {
 412:bt.c          ****         printf("%c", rxChar);
 413:bt.c          ****       
 414:bt.c          ****         if (rxChar == 0x0a)
 415:bt.c          ****         {
 416:bt.c          ****           if (recvPos > 0)
 417:bt.c          ****             recvBuf[recvPos-1] = '\0';
 418:bt.c          **** 
 419:bt.c          ****           //evaluate received bytes
 420:bt.c          ****           if (memcmp(recvBuf, "+BTSDP: COMPLETE", 16) == 0)
 421:bt.c          ****             done = TRUE;
 422:bt.c          **** 
 423:bt.c          ****           else if (memcmp(recvBuf, "+BTSDP: ", 8) == 0)
 424:bt.c          ****           {
 425:bt.c          ****             numServices++;
 426:bt.c          ****             
 427:bt.c          ****             //save first services found
 428:bt.c          ****             if (numServices == 1)
 429:bt.c          ****             {
 430:bt.c          ****               tU8 *pStr;
 431:bt.c          ****               
 432:bt.c          ****               //skip to first '"'
 433:bt.c          ****               pStr = strchr(&recvBuf[10], '\"');
 434:bt.c          ****               if (pStr != NULL)
 435:bt.c          ****               {
 436:bt.c          ****                 tU8 i;
 437:bt.c          **** 
 438:bt.c          ****                 //get string (to '"')
 439:bt.c          ****                 pStr++;
 440:bt.c          ****                 i = 0;
 441:bt.c          ****                 while((*pStr != '\"') && (i < 16))
 442:bt.c          ****                   serviceName[i++] = *pStr++;
 443:bt.c          ****                 serviceName[i] = '\0';
 444:bt.c          ****                 if (*pStr != '\"')
 445:bt.c          ****                   longName = TRUE;
 446:bt.c          ****                 else
 447:bt.c          ****                   longName = FALSE;
 448:bt.c          ****               }
 449:bt.c          ****               else
 450:bt.c          ****                 serviceName[0] = '\0';
 451:bt.c          ****             }
ARM GAS  C:\Users\KOZLOV~1\AppData\Local\Temp\cc7z5Qbi.s 			page 11


 452:bt.c          ****           }
 453:bt.c          ****           recvPos = 0;
 454:bt.c          ****         }
 455:bt.c          ****         else if (recvPos < RECV_BUF_LEN)
 456:bt.c          ****           recvBuf[recvPos++] = rxChar;
 457:bt.c          ****       }
 458:bt.c          ****       osSleep(1);
 459:bt.c          **** 
 460:bt.c          ****       //print activity indicator
 461:bt.c          ****       lcdGotoxy(74,16);
 462:bt.c          ****       lcdColor(BT_BACKGROUND_COLOR,0xfd);
 463:bt.c          ****       switch(cnt % 150)
 464:bt.c          ****       {
 465:bt.c          ****         case   0: lcdPuts("     ");break;
 466:bt.c          ****         case  25: lcdPuts("-  ");break;
 467:bt.c          ****         case  50: lcdPuts("-- ");break;
 468:bt.c          ****         case  75: lcdPuts("---");break;
 469:bt.c          ****         case 100: lcdPuts(" --");break;
 470:bt.c          ****         case 125: lcdPuts("  -");break;
 471:bt.c          ****         default: break;
 472:bt.c          ****       }
 473:bt.c          ****       cnt++;
 474:bt.c          ****     }
 475:bt.c          ****     
 476:bt.c          ****     //display result
 477:bt.c          ****     lcdRect(1, 16, 126, 84, BT_BACKGROUND_COLOR);
 478:bt.c          ****     lcdColor(BT_BACKGROUND_COLOR,0xfd);
 479:bt.c          ****     lcdGotoxy(2,16+(14*0));
 480:bt.c          ****     lcdPuts("Found ");
 481:bt.c          ****     {
 482:bt.c          ****       tU8 str[3];
 483:bt.c          ****       
 484:bt.c          ****       str[1] = (numServices % 10) + '0';
 485:bt.c          ****       if (numServices >= 10)
 486:bt.c          ****         str[0] = (numServices / 10) + '0';
 487:bt.c          ****       else
 488:bt.c          ****         str[0] = ' ';
 489:bt.c          ****       str[2] = '\0';
 490:bt.c          ****       lcdPuts(str);
 491:bt.c          ****     }
 492:bt.c          ****     lcdGotoxy(2,16+(14*1));
 493:bt.c          ****     lcdPuts(" services");
 494:bt.c          ****     
 495:bt.c          ****     if (numServices > 0)
 496:bt.c          ****     {
 497:bt.c          ****       lcdGotoxy(2,16+(14*2));
 498:bt.c          ****       lcdPuts("First service");
 499:bt.c          ****       lcdGotoxy(2,16+(14*3));
 500:bt.c          ****       lcdPuts(" name is:");
 501:bt.c          ****       lcdGotoxy(2,16+(14*4));
 502:bt.c          ****       lcdPuts(serviceName);
 503:bt.c          ****     
 504:bt.c          ****       if(longName == TRUE)
 505:bt.c          ****       {
 506:bt.c          ****         lcdGotoxy(2,16+(14*5));
 507:bt.c          ****         lcdPuts("(name trunc:ed)");
 508:bt.c          ****       }
ARM GAS  C:\Users\KOZLOV~1\AppData\Local\Temp\cc7z5Qbi.s 			page 12


 509:bt.c          ****     }
 510:bt.c          **** 
 511:bt.c          ****     //wait for key press
 512:bt.c          ****     done = FALSE;
 513:bt.c          ****     while(done == FALSE)
 514:bt.c          ****     {
 515:bt.c          ****       anyKey = checkKey();
 516:bt.c          ****       if (anyKey != KEY_NOTHING)
 517:bt.c          ****         done = TRUE;
 518:bt.c          ****       osSleep(1);
 519:bt.c          ****     }
 520:bt.c          ****   }
 521:bt.c          ****   
 522:bt.c          ****   //erase screen
 523:bt.c          ****   lcdRect(1, 16, 126, 84, BT_BACKGROUND_COLOR);
 524:bt.c          **** 
 525:bt.c          ****   //start BT handling process again
 526:bt.c          ****   stopRecvProc = FALSE;
 527:bt.c          ****   osSemGive(&recvSem, &error);
 528:bt.c          **** 
 529:bt.c          **** 
 530:bt.c          ****   //*************************************************************
 531:bt.c          ****   //* Exit
 532:bt.c          ****   //*************************************************************
 533:bt.c          ****   btSetMode(btCommandMode);
 534:bt.c          **** }
 535:bt.c          **** 
 536:bt.c          **** 
 537:bt.c          **** /*****************************************************************************
 538:bt.c          ****  *
 539:bt.c          ****  * Description:
 540:bt.c          ****  *    Prints the Bluetooth address and the current cursor position.
 541:bt.c          ****  *
 542:bt.c          ****  ****************************************************************************/
 543:bt.c          **** static void
 544:bt.c          **** drawBtAddress(tU8 cursor)
 545:bt.c          **** {
 546:bt.c          ****   tU32 col;
 547:bt.c          **** 
 548:bt.c          ****   lcdGotoxy(16,85);
 549:bt.c          ****   for(col=0; col<12; col++)
 550:bt.c          ****   {
 551:bt.c          ****     if(col == cursor)
 552:bt.c          ****       lcdColor(BT_BACKGROUND_COLOR,0xe0);
 553:bt.c          ****     else
 554:bt.c          ****       lcdColor(BT_BACKGROUND_COLOR,0x1c);
 555:bt.c          ****     lcdPutchar(btAddress[col]);
 556:bt.c          ****   }
 557:bt.c          **** }
 558:bt.c          **** 
 559:bt.c          **** 
 560:bt.c          **** /*****************************************************************************
 561:bt.c          ****  *
 562:bt.c          ****  * Description:
 563:bt.c          ****  *    Function to handle setting of Bluetooth address. It first reads
 564:bt.c          ****  *    the current address from the BGB203-S06 unit.
 565:bt.c          ****  *
ARM GAS  C:\Users\KOZLOV~1\AppData\Local\Temp\cc7z5Qbi.s 			page 13


 566:bt.c          ****  ****************************************************************************/
 567:bt.c          **** static void
 568:bt.c          **** btSetAddress(void)
 569:bt.c          **** {
 570:bt.c          ****   tU8 rxChar;
 571:bt.c          ****   tU8 done;
 572:bt.c          ****   tU8 anyKey;
 573:bt.c          ****   tU8 cursorPos;
 574:bt.c          ****   tU32 timeStamp;
 575:bt.c          ****   tU8 recvBuf[RECV_BUF_LEN];
 576:bt.c          ****   tU8 recvPos;
 577:bt.c          ****   tU8 error;
 578:bt.c          **** 
 579:bt.c          ****   //clear menu screen
 580:bt.c          ****   lcdRect(1, 16, 126, 84, BT_BACKGROUND_COLOR);
 581:bt.c          ****   lcdGotoxy(18,20);
 582:bt.c          ****   lcdColor(BT_BACKGROUND_COLOR,0xfd);
 583:bt.c          ****   lcdPuts("Set address:");
 584:bt.c          ****   lcdGotoxy(6,34);
 585:bt.c          ****   lcdPuts("Move cursor and");
 586:bt.c          ****   lcdGotoxy(6,48);
 587:bt.c          ****   lcdPuts("set each char.");
 588:bt.c          ****   lcdGotoxy(6,62);
 589:bt.c          ****   lcdPuts("Exit with c-key");
 590:bt.c          **** 
 591:bt.c          ****   //stop the BT handling process
 592:bt.c          ****   stopRecvProc = TRUE;
 593:bt.c          **** 
 594:bt.c          ****   //*************************************************************
 595:bt.c          ****   //* Get current address
 596:bt.c          ****   //*************************************************************
 597:bt.c          ****   osSleep(100);
 598:bt.c          ****   uart1SendString("+++");
 599:bt.c          ****   osSleep(100);
 600:bt.c          ****   uart1SendString("AT+BTBDA\r");
 601:bt.c          **** 
 602:bt.c          ****   //*************************************************************
 603:bt.c          ****   //* Get (receive and interpret) current address
 604:bt.c          ****   //*************************************************************
 605:bt.c          ****   timeStamp = ms;
 606:bt.c          ****   done = FALSE;
 607:bt.c          ****   recvPos = 0;
 608:bt.c          ****   while((done == FALSE) && ((ms - timeStamp) < 200))
 609:bt.c          ****   {
 610:bt.c          ****     //check if any character has been received from BT
 611:bt.c          ****     if (uart1GetChar(&rxChar) == TRUE)
 612:bt.c          ****     {
 613:bt.c          ****       printf("%c", rxChar);
 614:bt.c          ****       
 615:bt.c          ****       if (rxChar == 0x0a)
 616:bt.c          ****       {
 617:bt.c          ****         if (recvPos > 0)
 618:bt.c          ****           recvBuf[recvPos-1] = '\0';
 619:bt.c          **** 
 620:bt.c          ****         //evaluate received bytes
 621:bt.c          ****         if ((memcmp(recvBuf, "+BTBDA: ", 8) == 0) && (recvPos == 21))
 622:bt.c          ****         {
ARM GAS  C:\Users\KOZLOV~1\AppData\Local\Temp\cc7z5Qbi.s 			page 14


 623:bt.c          ****           recvPos = 8;
 624:bt.c          ****           for(recvPos=8; recvPos<20; recvPos++)
 625:bt.c          ****             btAddress[recvPos-8] = recvBuf[recvPos];
 626:bt.c          ****           btAddress[12] = '\0';
 627:bt.c          ****           done = TRUE;
 628:bt.c          ****         }
 629:bt.c          ****         recvPos = 0;
 630:bt.c          ****       }
 631:bt.c          ****       else if (recvPos < RECV_BUF_LEN)
 632:bt.c          ****         recvBuf[recvPos++] = rxChar;
 633:bt.c          ****     }
 634:bt.c          ****   }
 635:bt.c          **** 
 636:bt.c          ****   //start BT handling process again
 637:bt.c          ****   stopRecvProc = FALSE;
 638:bt.c          ****   osSemGive(&recvSem, &error);
 639:bt.c          **** 
 640:bt.c          ****   //*************************************************************
 641:bt.c          ****   //* Handle user key inputs
 642:bt.c          ****   //*************************************************************
 643:bt.c          ****   done = FALSE;
 644:bt.c          ****   cursorPos = 0;
 645:bt.c          ****   drawBtAddress(cursorPos);
 646:bt.c          ****   while(done == FALSE)
 647:bt.c          ****   {
 648:bt.c          ****     anyKey = checkKey();
 649:bt.c          ****     if (anyKey != KEY_NOTHING)
 650:bt.c          ****     {
 651:bt.c          ****       //exit and save new address
 652:bt.c          ****       if (anyKey == KEY_CENTER)
 653:bt.c          ****       {
 654:bt.c          ****         tMenu menu;
 655:bt.c          **** 
 656:bt.c          ****         menu.xPos = 5;
 657:bt.c          ****         menu.yPos = 35;
 658:bt.c          ****         menu.xLen = 6+(14*8);
 659:bt.c          ****         menu.yLen = 3*14+5;
 660:bt.c          ****         menu.noOfChoices = 2;
 661:bt.c          ****         menu.initialChoice = 0;
 662:bt.c          ****         menu.pHeaderText = "Exit";
 663:bt.c          ****         menu.headerTextXpos = 50;
 664:bt.c          ****         menu.pChoice[0] = "Cancel";
 665:bt.c          ****         menu.pChoice[1] = "Store new addr";
 666:bt.c          ****         menu.bgColor       = 0;
 667:bt.c          ****         menu.borderColor   = 0x6d;
 668:bt.c          ****         menu.headerColor   = 0;
 669:bt.c          ****         menu.choicesColor  = 0xfd;
 670:bt.c          ****         menu.selectedColor = 0xe0;
 671:bt.c          ****         
 672:bt.c          ****         switch(drawMenu(menu))
 673:bt.c          ****         {
 674:bt.c          ****           case 0: break;  //Ignore changes
 675:bt.c          ****           case 1:         //Store new address
 676:bt.c          ****             //*************************************************************
 677:bt.c          ****             //* Set new local address (and automatically save in FLASH)
 678:bt.c          ****             //*************************************************************
 679:bt.c          ****             uart1SendString("AT+BTSET=1,");
ARM GAS  C:\Users\KOZLOV~1\AppData\Local\Temp\cc7z5Qbi.s 			page 15


 680:bt.c          ****             uart1SendString(btAddress);     //12 digits
 681:bt.c          ****             uart1SendString("\r");
 682:bt.c          ****             break;
 683:bt.c          ****           default: break;
 684:bt.c          ****         }
 685:bt.c          **** 
 686:bt.c          ****         done = TRUE;
 687:bt.c          ****       }
 688:bt.c          **** 
 689:bt.c          ****       //
 690:bt.c          ****       else if (anyKey == KEY_UP)
 691:bt.c          ****       {
 692:bt.c          ****         btAddress[cursorPos]++;
 693:bt.c          ****         if (btAddress[cursorPos] > 'F')
 694:bt.c          ****           btAddress[cursorPos] = '0';
 695:bt.c          ****         else if ((btAddress[cursorPos] > '9') && (btAddress[cursorPos] < 'A'))
 696:bt.c          ****           btAddress[cursorPos] = 'A';
 697:bt.c          ****         drawBtAddress(cursorPos);
 698:bt.c          ****       }
 699:bt.c          ****       
 700:bt.c          ****       //
 701:bt.c          ****       else if (anyKey == KEY_DOWN)
 702:bt.c          ****       {
 703:bt.c          ****         btAddress[cursorPos]--;
 704:bt.c          ****         if (btAddress[cursorPos] < '0')
 705:bt.c          ****           btAddress[cursorPos] = 'F';
 706:bt.c          ****         else if ((btAddress[cursorPos] < 'A') && (btAddress[cursorPos] > '9'))
 707:bt.c          ****           btAddress[cursorPos] = '9';
 708:bt.c          ****         drawBtAddress(cursorPos);
 709:bt.c          ****       }
 710:bt.c          **** 
 711:bt.c          ****       //
 712:bt.c          ****       else if (anyKey == KEY_LEFT)
 713:bt.c          ****       {
 714:bt.c          ****         if (cursorPos > 0)
 715:bt.c          ****           cursorPos--;
 716:bt.c          ****         drawBtAddress(cursorPos);
 717:bt.c          ****       }
 718:bt.c          **** 
 719:bt.c          ****       //
 720:bt.c          ****       else if (anyKey == KEY_RIGHT)
 721:bt.c          ****       {
 722:bt.c          ****         if (cursorPos < 11)
 723:bt.c          ****           cursorPos++;
 724:bt.c          ****         drawBtAddress(cursorPos);
 725:bt.c          ****       }
 726:bt.c          ****     }
 727:bt.c          ****     osSleep(1);
 728:bt.c          ****   }
 729:bt.c          **** 
 730:bt.c          ****   osSleep(100);
 731:bt.c          ****   btSetMode(btCommandMode);
 732:bt.c          **** }
 733:bt.c          **** 
 734:bt.c          **** 
 735:bt.c          **** /*****************************************************************************
 736:bt.c          ****  *
ARM GAS  C:\Users\KOZLOV~1\AppData\Local\Temp\cc7z5Qbi.s 			page 16


 737:bt.c          ****  * Description:
 738:bt.c          ****  *    Prints the Bluetooth name and the current cursor position.
 739:bt.c          ****  *
 740:bt.c          ****  ****************************************************************************/
 741:bt.c          **** static void
 742:bt.c          **** drawBtName(tU8 cursor)
 743:bt.c          **** {
 117              		.loc 1 743 0
 118              		.cfi_startproc
 119 0074 30B5     		push	{r4, r5, lr}
 120              	.LCFI1:
 121              		.cfi_def_cfa_offset 12
 122              		.cfi_offset 4, -12
 123              		.cfi_offset 5, -8
 124              		.cfi_offset 14, -4
 125              	.LVL4:
 126              		.loc 1 743 0
 127 0076 0506     		lsl	r5, r0, #24
 744:bt.c          ****   tU32 col;
 745:bt.c          **** 
 746:bt.c          ****   lcdGotoxy(0,85);
 128              		.loc 1 746 0
 129 0078 5521     		mov	r1, #85
 130 007a 0020     		mov	r0, #0
 131              	.LVL5:
 132 007c FFF7FEFF 		bl	lcdGotoxy
 133              	.LVL6:
 743:bt.c          **** {
 134              		.loc 1 743 0
 135 0080 2D0E     		lsr	r5, r5, #24
 747:bt.c          ****   for(col=0; col<=15; col++)
 136              		.loc 1 747 0
 137 0082 0024     		mov	r4, #0
 138              	.LVL7:
 139              	.L18:
 748:bt.c          ****   {
 749:bt.c          ****     if(col == cursor)
 140              		.loc 1 749 0
 141 0084 AC42     		cmp	r4, r5
 142 0086 02D1     		bne	.L16
 750:bt.c          ****       lcdColor(BT_BACKGROUND_COLOR+1,0xe0);
 143              		.loc 1 750 0
 144 0088 0220     		mov	r0, #2
 145 008a E021     		mov	r1, #224
 146 008c 01E0     		b	.L20
 147              	.L16:
 751:bt.c          ****     else
 752:bt.c          ****       lcdColor(BT_BACKGROUND_COLOR,0xfd);
 148              		.loc 1 752 0
 149 008e 0120     		mov	r0, #1
 150 0090 FD21     		mov	r1, #253
 151              	.L20:
 152 0092 FFF7FEFF 		bl	lcdColor
 753:bt.c          ****     lcdPutchar(localName[col]);
 153              		.loc 1 753 0
 154 0096 054B     		ldr	r3, .L21
 155 0098 2033     		add	r3, r3, #32
ARM GAS  C:\Users\KOZLOV~1\AppData\Local\Temp\cc7z5Qbi.s 			page 17


 156 009a E05C     		ldrb	r0, [r4, r3]
 747:bt.c          ****   for(col=0; col<=15; col++)
 157              		.loc 1 747 0
 158 009c 0134     		add	r4, r4, #1
 159              		.loc 1 753 0
 160 009e FFF7FEFF 		bl	lcdPutchar
 161              	.LVL8:
 747:bt.c          ****   for(col=0; col<=15; col++)
 162              		.loc 1 747 0
 163 00a2 102C     		cmp	r4, #16
 164 00a4 EED1     		bne	.L18
 754:bt.c          ****   }
 755:bt.c          **** }
 165              		.loc 1 755 0
 166              		@ sp needed for prologue
 167              	.LVL9:
 168 00a6 30BC     		pop	{r4, r5}
 169 00a8 01BC     		pop	{r0}
 170 00aa 0047     		bx	r0
 171              	.L22:
 172              		.align	2
 173              	.L21:
 174 00ac 80000000 		.word	.LANCHOR1
 175              		.cfi_endproc
 176              	.LFE7:
 177              		.size	drawBtName, .-drawBtName
 178              		.align	1
 179              		.code	16
 180              		.thumb_func
 181              		.type	drawBtAddress, %function
 182              	drawBtAddress:
 183              	.LFB5:
 545:bt.c          **** {
 184              		.loc 1 545 0
 185              		.cfi_startproc
 186 00b0 70B5     		push	{r4, r5, r6, lr}
 187              	.LCFI2:
 188              		.cfi_def_cfa_offset 16
 189              		.cfi_offset 4, -16
 190              		.cfi_offset 5, -12
 191              		.cfi_offset 6, -8
 192              		.cfi_offset 14, -4
 193              	.LVL10:
 545:bt.c          **** {
 194              		.loc 1 545 0
 195 00b2 0406     		lsl	r4, r0, #24
 548:bt.c          ****   lcdGotoxy(16,85);
 196              		.loc 1 548 0
 197 00b4 5521     		mov	r1, #85
 198 00b6 1020     		mov	r0, #16
 199              	.LVL11:
 200 00b8 FFF7FEFF 		bl	lcdGotoxy
 201              	.LVL12:
 555:bt.c          ****     lcdPutchar(btAddress[col]);
 202              		.loc 1 555 0
 203 00bc 094D     		ldr	r5, .L29
 545:bt.c          **** {
ARM GAS  C:\Users\KOZLOV~1\AppData\Local\Temp\cc7z5Qbi.s 			page 18


 204              		.loc 1 545 0
 205 00be 240E     		lsr	r4, r4, #24
 549:bt.c          ****   for(col=0; col<12; col++)
 206              		.loc 1 549 0
 207 00c0 0026     		mov	r6, #0
 555:bt.c          ****     lcdPutchar(btAddress[col]);
 208              		.loc 1 555 0
 209 00c2 3135     		add	r5, r5, #49
 210              	.LVL13:
 211              	.L26:
 552:bt.c          ****       lcdColor(BT_BACKGROUND_COLOR,0xe0);
 212              		.loc 1 552 0
 213 00c4 0120     		mov	r0, #1
 214 00c6 E021     		mov	r1, #224
 551:bt.c          ****     if(col == cursor)
 215              		.loc 1 551 0
 216 00c8 A642     		cmp	r6, r4
 217 00ca 00D0     		beq	.L28
 554:bt.c          ****       lcdColor(BT_BACKGROUND_COLOR,0x1c);
 218              		.loc 1 554 0
 219 00cc 1C21     		mov	r1, #28
 220              	.L28:
 221 00ce FFF7FEFF 		bl	lcdColor
 555:bt.c          ****     lcdPutchar(btAddress[col]);
 222              		.loc 1 555 0
 223 00d2 705D     		ldrb	r0, [r6, r5]
 549:bt.c          ****   for(col=0; col<12; col++)
 224              		.loc 1 549 0
 225 00d4 0136     		add	r6, r6, #1
 555:bt.c          ****     lcdPutchar(btAddress[col]);
 226              		.loc 1 555 0
 227 00d6 FFF7FEFF 		bl	lcdPutchar
 228              	.LVL14:
 549:bt.c          ****   for(col=0; col<12; col++)
 229              		.loc 1 549 0
 230 00da 0C2E     		cmp	r6, #12
 231 00dc F2D1     		bne	.L26
 557:bt.c          **** }
 232              		.loc 1 557 0
 233              		@ sp needed for prologue
 234              	.LVL15:
 235 00de 70BC     		pop	{r4, r5, r6}
 236 00e0 01BC     		pop	{r0}
 237 00e2 0047     		bx	r0
 238              	.L30:
 239              		.align	2
 240              	.L29:
 241 00e4 80000000 		.word	.LANCHOR1
 242              		.cfi_endproc
 243              	.LFE5:
 244              		.size	drawBtAddress, .-drawBtAddress
 245              		.align	1
 246              		.code	16
 247              		.thumb_func
 248              		.type	procBt, %function
 249              	procBt:
 250              	.LFB1:
ARM GAS  C:\Users\KOZLOV~1\AppData\Local\Temp\cc7z5Qbi.s 			page 19


 111:bt.c          **** {
 251              		.loc 1 111 0
 252              		.cfi_startproc
 253 00e8 F1B5     		push	{r0, r4, r5, r6, r7, lr}
 254              	.LCFI3:
 255              		.cfi_def_cfa_offset 24
 256              		.cfi_offset 0, -24
 257              		.cfi_offset 4, -20
 258              		.cfi_offset 5, -16
 259              		.cfi_offset 6, -12
 260              		.cfi_offset 7, -8
 261              		.cfi_offset 14, -4
 262              	.LVL16:
 115:bt.c          ****   resetBT(TRUE);
 263              		.loc 1 115 0
 264 00ea 0120     		mov	r0, #1
 265              	.LVL17:
 266 00ec FFF7FEFF 		bl	resetBT
 116:bt.c          ****   osSleep(2);
 267              		.loc 1 116 0
 268 00f0 0220     		mov	r0, #2
 269 00f2 FFF7FEFF 		bl	osSleep
 117:bt.c          ****   resetBT(FALSE);
 270              		.loc 1 117 0
 271 00f6 0020     		mov	r0, #0
 272 00f8 FFF7FEFF 		bl	resetBT
 118:bt.c          ****   osSleep(5);
 273              		.loc 1 118 0
 274 00fc 0520     		mov	r0, #5
 275 00fe FFF7FEFF 		bl	osSleep
 121:bt.c          ****   osSleep(50);
 276              		.loc 1 121 0
 277 0102 3220     		mov	r0, #50
 278 0104 FFF7FEFF 		bl	osSleep
 124:bt.c          ****   initUart1(B115200((CORE_FREQ) / PBSD), UART_8N1, UART_FIFO_16);
 279              		.loc 1 124 0
 280 0108 0321     		mov	r1, #3
 281 010a C122     		mov	r2, #193
 282 010c 0820     		mov	r0, #8
 283 010e FFF7FEFF 		bl	initUart1
 130:bt.c          ****   osSleep(50);
 284              		.loc 1 130 0
 285 0112 3220     		mov	r0, #50
 286 0114 FFF7FEFF 		bl	osSleep
 131:bt.c          ****   uart1SendString("+++");
 287              		.loc 1 131 0
 288 0118 2648     		ldr	r0, .L43
 289 011a FFF7FEFF 		bl	uart1SendString
 132:bt.c          ****   osSleep(50);
 290              		.loc 1 132 0
 291 011e 3220     		mov	r0, #50
 292 0120 FFF7FEFF 		bl	osSleep
 133:bt.c          ****   uart1SendString("ATI\r");
 293              		.loc 1 133 0
 294 0124 2448     		ldr	r0, .L43+4
 295 0126 FFF7FEFF 		bl	uart1SendString
 134:bt.c          ****   osSleep(50);
ARM GAS  C:\Users\KOZLOV~1\AppData\Local\Temp\cc7z5Qbi.s 			page 20


 296              		.loc 1 134 0
 297 012a 3220     		mov	r0, #50
 298 012c FFF7FEFF 		bl	osSleep
 135:bt.c          ****   uart1SendString("AT+BTLNM\r");
 299              		.loc 1 135 0
 300 0130 2248     		ldr	r0, .L43+8
 301 0132 FFF7FEFF 		bl	uart1SendString
 137:bt.c          ****   osSleep(100);
 302              		.loc 1 137 0
 303 0136 6420     		mov	r0, #100
 304 0138 FFF7FEFF 		bl	osSleep
 138:bt.c          ****   uart1SendString("AT+BTBDA\r");
 305              		.loc 1 138 0
 306 013c 2048     		ldr	r0, .L43+12
 307 013e FFF7FEFF 		bl	uart1SendString
 139:bt.c          ****   osSleep(100);
 308              		.loc 1 139 0
 309 0142 6420     		mov	r0, #100
 310 0144 FFF7FEFF 		bl	osSleep
 140:bt.c          ****   uart1SendString("AT+BTINQ=5\r");
 311              		.loc 1 140 0
 312 0148 1E48     		ldr	r0, .L43+16
 313 014a FFF7FEFF 		bl	uart1SendString
 141:bt.c          ****   osSleep(600);
 314              		.loc 1 141 0
 315 014e 9620     		mov	r0, #150
 316 0150 8000     		lsl	r0, r0, #2
 317 0152 FFF7FEFF 		bl	osSleep
 145:bt.c          ****   uart1SendString("AT+BTSRV=1\r");
 318              		.loc 1 145 0
 319 0156 1C48     		ldr	r0, .L43+20
 320 0158 FFF7FEFF 		bl	uart1SendString
 321              	.L38:
 153:bt.c          ****     osSemTake(&recvSem, 0, &error);
 322              		.loc 1 153 0
 323 015c 6A46     		mov	r2, sp
 324 015e 1B48     		ldr	r0, .L43+24
 325 0160 0021     		mov	r1, #0
 326 0162 0232     		add	r2, r2, #2
 327              	.LBB2:
 164:bt.c          ****       if (consolGetChar(&rxChar) == TRUE)
 328              		.loc 1 164 0
 329 0164 6D46     		mov	r5, sp
 330              	.LBE2:
 153:bt.c          ****     osSemTake(&recvSem, 0, &error);
 331              		.loc 1 153 0
 332 0166 FFF7FEFF 		bl	osSemTake
 333              	.LBB3:
 164:bt.c          ****       if (consolGetChar(&rxChar) == TRUE)
 334              		.loc 1 164 0
 335 016a 0335     		add	r5, r5, #3
 336              	.LBE3:
 155:bt.c          ****     while (stopRecvProc == FALSE)
 337              		.loc 1 155 0
 338 016c 184F     		ldr	r7, .L43+28
 339 016e 18E0     		b	.L42
 340              	.L37:
ARM GAS  C:\Users\KOZLOV~1\AppData\Local\Temp\cc7z5Qbi.s 			page 21


 341              	.LVL18:
 342              	.LBB4:
 164:bt.c          ****       if (consolGetChar(&rxChar) == TRUE)
 343              		.loc 1 164 0
 344 0170 281C     		mov	r0, r5
 345 0172 FFF7FEFF 		bl	consolGetChar
 161:bt.c          ****       nothing = TRUE;
 346              		.loc 1 161 0
 347 0176 0124     		mov	r4, #1
 164:bt.c          ****       if (consolGetChar(&rxChar) == TRUE)
 348              		.loc 1 164 0
 349 0178 A042     		cmp	r0, r4
 350 017a 03D1     		bne	.L33
 351              	.LVL19:
 166:bt.c          ****         uart1SendChar(rxChar);
 352              		.loc 1 166 0
 353 017c 2878     		ldrb	r0, [r5]
 354              	.LVL20:
 355 017e FFF7FEFF 		bl	uart1SendChar
 356              	.LVL21:
 167:bt.c          ****         nothing = FALSE;
 357              		.loc 1 167 0
 358 0182 341C     		mov	r4, r6
 359              	.LVL22:
 360              	.L33:
 171:bt.c          ****       if (uart1GetChar(&rxChar) == TRUE)
 361              		.loc 1 171 0
 362 0184 281C     		mov	r0, r5
 363 0186 FFF7FEFF 		bl	uart1GetChar
 364 018a 0128     		cmp	r0, #1
 365 018c 04D1     		bne	.L34
 366              	.LVL23:
 173:bt.c          ****         printf("%c", rxChar);
 367              		.loc 1 173 0
 368 018e 2978     		ldrb	r1, [r5]
 369              	.LVL24:
 370 0190 1048     		ldr	r0, .L43+32
 371 0192 FFF7FEFF 		bl	simplePrintf
 372              	.LVL25:
 373 0196 04E0     		b	.L42
 374              	.LVL26:
 375              	.L34:
 177:bt.c          ****       if (nothing == TRUE)
 376              		.loc 1 177 0
 377 0198 012C     		cmp	r4, #1
 378 019a 02D1     		bne	.L42
 178:bt.c          ****         osSleep(1);
 379              		.loc 1 178 0
 380 019c 201C     		mov	r0, r4
 381 019e FFF7FEFF 		bl	osSleep
 382              	.LVL27:
 383              	.L42:
 384              	.LBE4:
 155:bt.c          ****     while (stopRecvProc == FALSE)
 385              		.loc 1 155 0 discriminator 1
 386 01a2 3B1C     		mov	r3, r7
 387 01a4 5C33     		add	r3, r3, #92
ARM GAS  C:\Users\KOZLOV~1\AppData\Local\Temp\cc7z5Qbi.s 			page 22


 388 01a6 1E78     		ldrb	r6, [r3]
 389 01a8 002E     		cmp	r6, #0
 390 01aa E1D0     		beq	.L37
 180:bt.c          ****     stopRecvProc = FALSE;
 391              		.loc 1 180 0
 392 01ac 0022     		mov	r2, #0
 393 01ae 1A70     		strb	r2, [r3]
 181:bt.c          ****   }
 394              		.loc 1 181 0
 395 01b0 D4E7     		b	.L38
 396              	.L44:
 397 01b2 C046     		.align	2
 398              	.L43:
 399 01b4 02000000 		.word	.LC9
 400 01b8 06000000 		.word	.LC11
 401 01bc 0B000000 		.word	.LC13
 402 01c0 15000000 		.word	.LC15
 403 01c4 1F000000 		.word	.LC17
 404 01c8 2B000000 		.word	.LC19
 405 01cc C0000000 		.word	.LANCHOR1+64
 406 01d0 80000000 		.word	.LANCHOR1
 407 01d4 37000000 		.word	.LC22
 408              		.cfi_endproc
 409              	.LFE1:
 410              		.size	procBt, .-procBt
 411              		.align	1
 412              		.code	16
 413              		.thumb_func
 414              		.type	btSetMode, %function
 415              	btSetMode:
 416              	.LFB10:
 756:bt.c          **** 
 757:bt.c          **** 
 758:bt.c          **** /*****************************************************************************
 759:bt.c          ****  *
 760:bt.c          ****  * Description:
 761:bt.c          ****  *    Function to handle setting of Bluetooth name. It first reads
 762:bt.c          ****  *    the current (Bluetooth) name from the BGB203-S06 unit.
 763:bt.c          ****  *
 764:bt.c          ****  ****************************************************************************/
 765:bt.c          **** static void
 766:bt.c          **** btSetName(void)
 767:bt.c          **** {
 768:bt.c          ****   tU8  rxChar;
 769:bt.c          ****   tU8  done;
 770:bt.c          ****   tU8  i;
 771:bt.c          ****   tU8  anyKey;
 772:bt.c          ****   tU8  cursorPos;
 773:bt.c          ****   tU32 timeStamp;
 774:bt.c          ****   volatile tU8  recvPos;
 775:bt.c          ****   tU8  error;
 776:bt.c          ****   tU8  recvBuf[RECV_BUF_LEN];
 777:bt.c          **** 
 778:bt.c          ****   //clear menu screen
 779:bt.c          ****   lcdRect(1, 16, 126, 84, BT_BACKGROUND_COLOR);
 780:bt.c          ****   lcdGotoxy(34,20);
 781:bt.c          ****   lcdColor(BT_BACKGROUND_COLOR,0xfd);
ARM GAS  C:\Users\KOZLOV~1\AppData\Local\Temp\cc7z5Qbi.s 			page 23


 782:bt.c          ****   lcdPuts("Set name:");
 783:bt.c          ****   lcdGotoxy(6,34);
 784:bt.c          ****   lcdPuts("Move cursor and");
 785:bt.c          ****   lcdGotoxy(6,48);
 786:bt.c          ****   lcdPuts("set each char.");
 787:bt.c          ****   lcdGotoxy(6,62);
 788:bt.c          ****   lcdPuts("Exit with c-key");
 789:bt.c          **** 
 790:bt.c          ****   //stop the BT handling process
 791:bt.c          ****   stopRecvProc = TRUE;
 792:bt.c          **** 
 793:bt.c          ****   //*************************************************************
 794:bt.c          ****   //* Get current name
 795:bt.c          ****   //*************************************************************
 796:bt.c          ****   osSleep(100);
 797:bt.c          ****   uart1SendString("+++");
 798:bt.c          ****   osSleep(100);
 799:bt.c          ****   uart1SendString("AT+BTLNM\r");
 800:bt.c          **** 
 801:bt.c          ****   //*************************************************************
 802:bt.c          ****   //* Get (receive and interpret) current name
 803:bt.c          ****   //*************************************************************
 804:bt.c          ****   timeStamp = ms;
 805:bt.c          ****   done = FALSE;
 806:bt.c          ****   recvPos = 0;
 807:bt.c          ****   while((done == FALSE) && ((ms - timeStamp) < 200))
 808:bt.c          ****   {
 809:bt.c          ****     //check if any character has been received from BT
 810:bt.c          ****     if (uart1GetChar(&rxChar) == TRUE)
 811:bt.c          ****     {
 812:bt.c          ****       printf("%c", rxChar);
 813:bt.c          ****       
 814:bt.c          ****       if (rxChar == 0x0a)
 815:bt.c          ****       {
 816:bt.c          ****         if (recvPos > 0)
 817:bt.c          ****           recvBuf[recvPos-1] = '\0';
 818:bt.c          **** 
 819:bt.c          ****         //evaluate received bytes
 820:bt.c          ****         if ((memcmp(recvBuf, "+BTLNM: \"", 9) == 0) && (recvPos < 27))
 821:bt.c          ****         {
 822:bt.c          ****           for(recvPos=0; recvPos<16; recvPos++)
 823:bt.c          ****             localName[recvPos] = ' ';
 824:bt.c          ****           localName[16] = '\0';
 825:bt.c          **** 
 826:bt.c          ****           recvPos = 9;
 827:bt.c          ****           while(recvBuf[recvPos] != '\"')
 828:bt.c          ****           {
 829:bt.c          ****             localName[recvPos-9] = recvBuf[recvPos];
 830:bt.c          ****             recvPos++;
 831:bt.c          ****           }
 832:bt.c          ****           done = TRUE;
 833:bt.c          ****         }
 834:bt.c          ****         recvPos = 0;
 835:bt.c          ****       }
 836:bt.c          ****       else if (recvPos < RECV_BUF_LEN)
 837:bt.c          ****         recvBuf[recvPos++] = rxChar;
 838:bt.c          ****     }
ARM GAS  C:\Users\KOZLOV~1\AppData\Local\Temp\cc7z5Qbi.s 			page 24


 839:bt.c          ****   }
 840:bt.c          **** 
 841:bt.c          ****   //start BT handling process again
 842:bt.c          ****   stopRecvProc = FALSE;
 843:bt.c          ****   osSemGive(&recvSem, &error);
 844:bt.c          **** 
 845:bt.c          ****   //*************************************************************
 846:bt.c          ****   //* Handle user key inputs
 847:bt.c          ****   //*************************************************************
 848:bt.c          ****   done = FALSE;
 849:bt.c          ****   cursorPos = 0;
 850:bt.c          ****   drawBtName(cursorPos);
 851:bt.c          ****   while(done == FALSE)
 852:bt.c          ****   {
 853:bt.c          ****     anyKey = checkKey();
 854:bt.c          ****     if (anyKey != KEY_NOTHING)
 855:bt.c          ****     {
 856:bt.c          ****       //exit and save new name
 857:bt.c          ****       if (anyKey == KEY_CENTER)
 858:bt.c          ****       {
 859:bt.c          ****         tMenu menu;
 860:bt.c          **** 
 861:bt.c          ****         menu.xPos = 5;
 862:bt.c          ****         menu.yPos = 35;
 863:bt.c          ****         menu.xLen = 6+(14*8);
 864:bt.c          ****         menu.yLen = 3*14+5;
 865:bt.c          ****         menu.noOfChoices = 2;
 866:bt.c          ****         menu.initialChoice = 0;
 867:bt.c          ****         menu.pHeaderText = "Exit";
 868:bt.c          ****         menu.headerTextXpos = 42;
 869:bt.c          ****         menu.pChoice[0] = "Cancel";
 870:bt.c          ****         menu.pChoice[1] = "Store new name";
 871:bt.c          ****         menu.bgColor       = 0;
 872:bt.c          ****         menu.borderColor   = 0x6d;
 873:bt.c          ****         menu.headerColor   = 0;
 874:bt.c          ****         menu.choicesColor  = 0xfd;
 875:bt.c          ****         menu.selectedColor = 0xe0;
 876:bt.c          ****         
 877:bt.c          ****         switch(drawMenu(menu))
 878:bt.c          ****         {
 879:bt.c          ****           case 0: break;  //Ignore changes
 880:bt.c          ****           case 1:         //Store new address
 881:bt.c          ****             //*************************************************************
 882:bt.c          ****             //* Trim ending spaces in new name
 883:bt.c          ****             //*************************************************************
 884:bt.c          ****             for(i=15; i>0; i--)
 885:bt.c          ****             {
 886:bt.c          ****               if (localName[i] == ' ')
 887:bt.c          ****                 localName[i] = '\0';
 888:bt.c          ****               else
 889:bt.c          ****                 break;
 890:bt.c          ****             }
 891:bt.c          **** 
 892:bt.c          ****             //*************************************************************
 893:bt.c          ****             //* Set new local name
 894:bt.c          ****             //*************************************************************
 895:bt.c          ****             uart1SendString("AT+BTLNM=\"");
ARM GAS  C:\Users\KOZLOV~1\AppData\Local\Temp\cc7z5Qbi.s 			page 25


 896:bt.c          ****             uart1SendString(localName);
 897:bt.c          ****             uart1SendString("\"\r");
 898:bt.c          ****             osSleep(100);
 899:bt.c          **** 
 900:bt.c          ****             //*************************************************************
 901:bt.c          ****             //* Save new settings in FLASH
 902:bt.c          ****             //*************************************************************
 903:bt.c          ****             uart1SendString("AT+BTFLS\r");
 904:bt.c          ****             break;
 905:bt.c          ****           default: break;
 906:bt.c          ****         }
 907:bt.c          ****         done = TRUE;
 908:bt.c          ****       }
 909:bt.c          **** 
 910:bt.c          ****       //
 911:bt.c          ****       else if (anyKey == KEY_UP)
 912:bt.c          ****       {
 913:bt.c          ****         localName[cursorPos]++;
 914:bt.c          ****         if (localName[cursorPos] > 127)
 915:bt.c          ****           localName[cursorPos] = ' ';
 916:bt.c          ****         drawBtName(cursorPos);
 917:bt.c          ****       }
 918:bt.c          ****       
 919:bt.c          ****       //
 920:bt.c          ****       else if (anyKey == KEY_DOWN)
 921:bt.c          ****       {
 922:bt.c          ****         localName[cursorPos]--;
 923:bt.c          ****         if (localName[cursorPos] < ' ')
 924:bt.c          ****           localName[cursorPos] = 127;
 925:bt.c          ****         drawBtName(cursorPos);
 926:bt.c          ****       }
 927:bt.c          **** 
 928:bt.c          ****       //
 929:bt.c          ****       else if (anyKey == KEY_LEFT)
 930:bt.c          ****       {
 931:bt.c          ****         if (cursorPos > 0)
 932:bt.c          ****           cursorPos--;
 933:bt.c          ****         drawBtName(cursorPos);
 934:bt.c          ****       }
 935:bt.c          **** 
 936:bt.c          ****       //
 937:bt.c          ****       else if (anyKey == KEY_RIGHT)
 938:bt.c          ****       {
 939:bt.c          ****         if (cursorPos < 15)
 940:bt.c          ****           cursorPos++;
 941:bt.c          ****         drawBtName(cursorPos);
 942:bt.c          ****       }
 943:bt.c          ****     }
 944:bt.c          ****     osSleep(1);
 945:bt.c          ****   }
 946:bt.c          **** 
 947:bt.c          ****   osSleep(100);
 948:bt.c          ****   btSetMode(btCommandMode);
 949:bt.c          **** }
 950:bt.c          **** 
 951:bt.c          **** 
 952:bt.c          **** /*****************************************************************************
ARM GAS  C:\Users\KOZLOV~1\AppData\Local\Temp\cc7z5Qbi.s 			page 26


 953:bt.c          ****  *
 954:bt.c          ****  * Description:
 955:bt.c          ****  *    Activates or deactivates the BGB203-S06 unit, by controlling the
 956:bt.c          ****  *    unit's reset signal.
 957:bt.c          ****  *    Switch between modes every time this function is called.
 958:bt.c          ****  *
 959:bt.c          ****  ****************************************************************************/
 960:bt.c          **** static void
 961:bt.c          **** btActiveSleep(void)
 962:bt.c          **** {
 963:bt.c          ****   //clear menu screen
 964:bt.c          ****   lcdRect(1, 16, 126, 84, BT_BACKGROUND_COLOR);
 965:bt.c          ****   lcdGotoxy(18,34);
 966:bt.c          ****   lcdColor(BT_BACKGROUND_COLOR,0xfd);
 967:bt.c          **** 
 968:bt.c          ****   if (btSleepState == FALSE)
 969:bt.c          ****   {
 970:bt.c          ****     tU8 messagePart1[] = "Deactivate";
 971:bt.c          ****     tU8 messagePart2[] = "BT module...";
 972:bt.c          ****     
 973:bt.c          ****     resetBT(TRUE);
 974:bt.c          ****     displayMessage(messagePart1, 3);
 975:bt.c          ****     lcdGotoxy(18,48);
 976:bt.c          ****     displayMessage(messagePart2, 3);
 977:bt.c          ****     
 978:bt.c          ****     btSleepState = TRUE;
 979:bt.c          ****   }
 980:bt.c          ****   else
 981:bt.c          ****   {
 982:bt.c          ****     tU8 messagePart1[] = "Activate BT";
 983:bt.c          ****     tU8 messagePart2[] = "module...";
 984:bt.c          ****     
 985:bt.c          ****     resetBT(FALSE);
 986:bt.c          ****     btSetMode(btCommandMode);
 987:bt.c          **** 
 988:bt.c          ****     displayMessage(messagePart1, 3);
 989:bt.c          ****     lcdGotoxy(18,48);
 990:bt.c          ****     displayMessage(messagePart2, 3);
 991:bt.c          **** 
 992:bt.c          ****     btSleepState = FALSE;
 993:bt.c          ****   }
 994:bt.c          ****   osSleep(200);
 995:bt.c          **** }
 996:bt.c          **** 
 997:bt.c          **** 
 998:bt.c          **** /*****************************************************************************
 999:bt.c          ****  *
1000:bt.c          ****  * Description:
1001:bt.c          ****  *    Set the BGB203-S06 unit in command or data mode.
1002:bt.c          ****  *
1003:bt.c          ****  ****************************************************************************/
1004:bt.c          **** static void
1005:bt.c          **** btSetMode(tBool commandMode)
1006:bt.c          **** {
 417              		.loc 1 1006 0
 418              		.cfi_startproc
 419 01d8 10B5     		push	{r4, lr}
ARM GAS  C:\Users\KOZLOV~1\AppData\Local\Temp\cc7z5Qbi.s 			page 27


 420              	.LCFI4:
 421              		.cfi_def_cfa_offset 8
 422              		.cfi_offset 4, -8
 423              		.cfi_offset 14, -4
 424              	.LVL28:
 425 01da 0E4C     		ldr	r4, .L48
1007:bt.c          ****   //check if set BGB203-S06 in command mode
1008:bt.c          ****   if (commandMode == TRUE)
 426              		.loc 1 1008 0
 427 01dc 0128     		cmp	r0, #1
 428 01de 09D1     		bne	.L46
 429              	.LBB7:
 430              	.LBB8:
1009:bt.c          ****   {
1010:bt.c          ****     osSleep(100);
 431              		.loc 1 1010 0
 432 01e0 6420     		mov	r0, #100
 433              	.LVL29:
 434 01e2 FFF7FEFF 		bl	osSleep
1011:bt.c          ****     uart1SendString("+++");
 435              		.loc 1 1011 0
 436 01e6 201C     		mov	r0, r4
 437 01e8 FFF7FEFF 		bl	uart1SendString
1012:bt.c          ****     osSleep(150);
 438              		.loc 1 1012 0
 439 01ec 9620     		mov	r0, #150
 440 01ee FFF7FEFF 		bl	osSleep
 441 01f2 0BE0     		b	.L45
 442              	.LVL30:
 443              	.L46:
 444              	.LBE8:
 445              	.LBE7:
1013:bt.c          ****   }
1014:bt.c          **** 
1015:bt.c          ****   //set BGB203-S06 in data mode (server mode)
1016:bt.c          ****   else
1017:bt.c          ****   {
1018:bt.c          ****     osSleep(100);
 446              		.loc 1 1018 0
 447 01f4 6420     		mov	r0, #100
 448              	.LVL31:
 449 01f6 FFF7FEFF 		bl	osSleep
1019:bt.c          ****     uart1SendString("+++");
 450              		.loc 1 1019 0
 451 01fa 201C     		mov	r0, r4
 452 01fc FFF7FEFF 		bl	uart1SendString
1020:bt.c          ****     osSleep(100);
 453              		.loc 1 1020 0
 454 0200 6420     		mov	r0, #100
 455 0202 FFF7FEFF 		bl	osSleep
1021:bt.c          ****     uart1SendString("AT+BTSRV=1\r");
 456              		.loc 1 1021 0
 457 0206 0448     		ldr	r0, .L48+4
 458 0208 FFF7FEFF 		bl	uart1SendString
 459              	.L45:
1022:bt.c          ****   }
1023:bt.c          **** }
ARM GAS  C:\Users\KOZLOV~1\AppData\Local\Temp\cc7z5Qbi.s 			page 28


 460              		.loc 1 1023 0
 461              		@ sp needed for prologue
 462 020c 10BC     		pop	{r4}
 463 020e 01BC     		pop	{r0}
 464 0210 0047     		bx	r0
 465              	.L49:
 466 0212 C046     		.align	2
 467              	.L48:
 468 0214 02000000 		.word	.LC9
 469 0218 2B000000 		.word	.LC19
 470              		.cfi_endproc
 471              	.LFE10:
 472              		.size	btSetMode, .-btSetMode
 473              		.align	1
 474              		.code	16
 475              		.thumb_func
 476              		.type	drawBtMenuCursor.isra.1, %function
 477              	drawBtMenuCursor.isra.1:
 478              	.LFB18:
1024:bt.c          **** 
1025:bt.c          **** 
1026:bt.c          **** /*****************************************************************************
1027:bt.c          ****  *
1028:bt.c          ****  * Description:
1029:bt.c          ****  *    Set the BGB203-S06 unit in command or data mode.
1030:bt.c          ****  *    Switch between modes every time this function is called.
1031:bt.c          ****  *
1032:bt.c          ****  ****************************************************************************/
1033:bt.c          **** static void
1034:bt.c          **** btMode(void)
1035:bt.c          **** {
1036:bt.c          ****   //clear menu screen
1037:bt.c          ****   lcdRect(1, 16, 126, 84, BT_BACKGROUND_COLOR);
1038:bt.c          ****   lcdGotoxy(14,26);
1039:bt.c          ****   lcdColor(BT_BACKGROUND_COLOR,0xfd);
1040:bt.c          **** 
1041:bt.c          ****   if (btCommandMode == FALSE)
1042:bt.c          ****   {
1043:bt.c          ****     tU8 messagePart1[] = "Activate";
1044:bt.c          ****     tU8 messagePart2[] = "command mode";
1045:bt.c          ****     tU8 messagePart3[] = "(unit cannot";
1046:bt.c          ****     tU8 messagePart4[] = "be discovered";
1047:bt.c          ****     tU8 messagePart5[] = "in this mode)";
1048:bt.c          ****     
1049:bt.c          ****     displayMessage(messagePart1, 3);
1050:bt.c          ****     lcdGotoxy(14,40);
1051:bt.c          ****     displayMessage(messagePart2, 3);
1052:bt.c          ****     lcdGotoxy(14,54);
1053:bt.c          ****     displayMessage(messagePart3, 3);
1054:bt.c          ****     lcdGotoxy(14,68);
1055:bt.c          ****     displayMessage(messagePart4, 3);
1056:bt.c          ****     lcdGotoxy(14,84);
1057:bt.c          ****     displayMessage(messagePart5, 3);
1058:bt.c          **** 
1059:bt.c          ****     btSetMode(TRUE);
1060:bt.c          ****     btCommandMode = TRUE;
1061:bt.c          ****   }
ARM GAS  C:\Users\KOZLOV~1\AppData\Local\Temp\cc7z5Qbi.s 			page 29


1062:bt.c          ****   else
1063:bt.c          ****   {
1064:bt.c          ****     tU8 messagePart1[] = "Activate";
1065:bt.c          ****     tU8 messagePart2[] = "data mode...";
1066:bt.c          ****     tU8 messagePart3[] = "(unit can now";
1067:bt.c          ****     tU8 messagePart4[] = "be discovered)";
1068:bt.c          ****     
1069:bt.c          ****     displayMessage(messagePart1, 3);
1070:bt.c          ****     lcdGotoxy(14,40);
1071:bt.c          ****     displayMessage(messagePart2, 3);
1072:bt.c          ****     lcdGotoxy(14,54);
1073:bt.c          ****     displayMessage(messagePart3, 3);
1074:bt.c          ****     lcdGotoxy(14,68);
1075:bt.c          ****     displayMessage(messagePart4, 3);
1076:bt.c          **** 
1077:bt.c          ****     btSetMode(FALSE);
1078:bt.c          ****     btCommandMode = FALSE;
1079:bt.c          ****   }
1080:bt.c          ****   osSleep(100);
1081:bt.c          **** }
1082:bt.c          **** 
1083:bt.c          **** 
1084:bt.c          **** /*****************************************************************************
1085:bt.c          ****  *
1086:bt.c          ****  * Description:
1087:bt.c          ****  *    Draw cursor in main menu
1088:bt.c          ****  *
1089:bt.c          ****  * Params:
1090:bt.c          ****  *    [in] cursor - Cursor positions
1091:bt.c          ****  *
1092:bt.c          ****  ****************************************************************************/
1093:bt.c          **** static void
1094:bt.c          **** drawBtMenuCursor(tU8 cursor)
 479              		.loc 1 1094 0
 480              		.cfi_startproc
 481 021c F0B5     		push	{r4, r5, r6, r7, lr}
 482              	.LCFI5:
 483              		.cfi_def_cfa_offset 20
 484              		.cfi_offset 4, -20
 485              		.cfi_offset 5, -16
 486              		.cfi_offset 6, -12
 487              		.cfi_offset 7, -8
 488              		.cfi_offset 14, -4
 489              	.LVL32:
1095:bt.c          **** {
1096:bt.c          ****   tU32 row;
1097:bt.c          **** 
1098:bt.c          ****   for(row=0; row<=5; row++)
1099:bt.c          ****   {
1100:bt.c          ****     lcdGotoxy(7,16+(14*row));
1101:bt.c          ****     if(row == btCursor)
 490              		.loc 1 1101 0
 491 021e 1C4F     		ldr	r7, .L67
1094:bt.c          **** drawBtMenuCursor(tU8 cursor)
 492              		.loc 1 1094 0
 493 0220 1025     		mov	r5, #16
1098:bt.c          ****   for(row=0; row<=5; row++)
ARM GAS  C:\Users\KOZLOV~1\AppData\Local\Temp\cc7z5Qbi.s 			page 30


 494              		.loc 1 1098 0
 495 0222 0024     		mov	r4, #0
 496              	.LVL33:
 497              	.L63:
1100:bt.c          ****     lcdGotoxy(7,16+(14*row));
 498              		.loc 1 1100 0
 499 0224 0720     		mov	r0, #7
 500 0226 291C     		mov	r1, r5
 501 0228 FFF7FEFF 		bl	lcdGotoxy
 502              		.loc 1 1101 0
 503 022c 194A     		ldr	r2, .L67+4
 504 022e 1378     		ldrb	r3, [r2]
 505 0230 3E1C     		mov	r6, r7
1102:bt.c          ****       lcdColor(BT_BACKGROUND_COLOR,0xe0);
 506              		.loc 1 1102 0
 507 0232 0120     		mov	r0, #1
 508 0234 E021     		mov	r1, #224
1101:bt.c          ****     if(row == btCursor)
 509              		.loc 1 1101 0
 510 0236 9C42     		cmp	r4, r3
 511 0238 00D0     		beq	.L65
1103:bt.c          ****     else
1104:bt.c          ****       lcdColor(BT_BACKGROUND_COLOR,0xfd);
 512              		.loc 1 1104 0
 513 023a FD21     		mov	r1, #253
 514              	.L65:
 515 023c FFF7FEFF 		bl	lcdColor
1105:bt.c          ****     
1106:bt.c          ****     switch(row)
 516              		.loc 1 1106 0
 517 0240 601E     		sub	r0, r4, #1
 518 0242 0428     		cmp	r0, #4
 519 0244 04D8     		bhi	.L53
 520 0246 FFF7FEFF 		bl	__gnu_thumb1_case_uqi
 521              	.L59:
 522 024a 05       		.byte	(.L54-.L59)/2
 523 024b 07       		.byte	(.L55-.L59)/2
 524 024c 09       		.byte	(.L56-.L59)/2
 525 024d 11       		.byte	(.L57-.L59)/2
 526 024e 19       		.byte	(.L58-.L59)/2
 527 024f 00       		.align	1
 528              	.L53:
1107:bt.c          ****     {
1108:bt.c          ****       case 0: lcdPuts("Inquiry"); break;
 529              		.loc 1 1108 0
 530 0250 1148     		ldr	r0, .L67+8
 531 0252 14E0     		b	.L66
 532              	.L54:
1109:bt.c          ****       case 1: lcdPuts("Set name"); break;
 533              		.loc 1 1109 0
 534 0254 1148     		ldr	r0, .L67+12
 535 0256 12E0     		b	.L66
 536              	.L55:
1110:bt.c          ****       case 2: lcdPuts("Set address"); break;
 537              		.loc 1 1110 0
 538 0258 1148     		ldr	r0, .L67+16
 539 025a 10E0     		b	.L66
ARM GAS  C:\Users\KOZLOV~1\AppData\Local\Temp\cc7z5Qbi.s 			page 31


 540              	.L56:
1111:bt.c          ****       case 3: if (btCommandMode == FALSE) lcdPuts("Set comm.mode"); else lcdPuts("Set data mode"); 
 541              		.loc 1 1111 0
 542 025c 5E36     		add	r6, r6, #94
 543 025e 3378     		ldrb	r3, [r6]
 544 0260 002B     		cmp	r3, #0
 545 0262 01D1     		bne	.L61
 546 0264 0F48     		ldr	r0, .L67+20
 547 0266 0AE0     		b	.L66
 548              	.L61:
 549 0268 0F48     		ldr	r0, .L67+24
 550 026a 08E0     		b	.L66
 551              	.L57:
1112:bt.c          ****       case 4: if (btSleepState == FALSE) lcdPuts("Deactivate BT"); else lcdPuts("Activate BT"); bre
 552              		.loc 1 1112 0
 553 026c 5F36     		add	r6, r6, #95
 554 026e 3378     		ldrb	r3, [r6]
 555 0270 002B     		cmp	r3, #0
 556 0272 01D1     		bne	.L62
 557 0274 0D48     		ldr	r0, .L67+28
 558 0276 02E0     		b	.L66
 559              	.L62:
 560 0278 0D48     		ldr	r0, .L67+32
 561 027a 00E0     		b	.L66
 562              	.L58:
1113:bt.c          ****       case 5: lcdPuts("Main menu"); break;
 563              		.loc 1 1113 0
 564 027c 0D48     		ldr	r0, .L67+36
 565              	.L66:
1098:bt.c          ****   for(row=0; row<=5; row++)
 566              		.loc 1 1098 0
 567 027e 0134     		add	r4, r4, #1
 568              		.loc 1 1113 0
 569 0280 FFF7FEFF 		bl	lcdPuts
 570              	.LVL34:
1098:bt.c          ****   for(row=0; row<=5; row++)
 571              		.loc 1 1098 0
 572 0284 0E35     		add	r5, r5, #14
 573 0286 062C     		cmp	r4, #6
 574 0288 CCD1     		bne	.L63
1114:bt.c          ****       default: break;
1115:bt.c          ****     }
1116:bt.c          ****   }
1117:bt.c          **** }
 575              		.loc 1 1117 0
 576              		@ sp needed for prologue
 577              	.LVL35:
 578 028a F0BC     		pop	{r4, r5, r6, r7}
 579 028c 01BC     		pop	{r0}
 580 028e 0047     		bx	r0
 581              	.L68:
 582              		.align	2
 583              	.L67:
 584 0290 80000000 		.word	.LANCHOR1
 585 0294 DD000000 		.word	.LANCHOR1+93
 586 0298 3A000000 		.word	.LC29
 587 029c 42000000 		.word	.LC31
ARM GAS  C:\Users\KOZLOV~1\AppData\Local\Temp\cc7z5Qbi.s 			page 32


 588 02a0 4B000000 		.word	.LC33
 589 02a4 57000000 		.word	.LC35
 590 02a8 65000000 		.word	.LC37
 591 02ac 73000000 		.word	.LC39
 592 02b0 81000000 		.word	.LC41
 593 02b4 8D000000 		.word	.LC43
 594              		.cfi_endproc
 595              	.LFE18:
 596              		.size	drawBtMenuCursor.isra.1, .-drawBtMenuCursor.isra.1
 597              		.align	1
 598              		.code	16
 599              		.thumb_func
 600              		.type	drawBtMenu, %function
 601              	drawBtMenu:
 602              	.LFB13:
1118:bt.c          **** 
1119:bt.c          **** 
1120:bt.c          **** /*****************************************************************************
1121:bt.c          ****  *
1122:bt.c          ****  * Description:
1123:bt.c          ****  *    Draw main menu
1124:bt.c          ****  *
1125:bt.c          ****  ****************************************************************************/
1126:bt.c          **** static void
1127:bt.c          **** drawBtMenu(void)
1128:bt.c          **** {
 603              		.loc 1 1128 0
 604              		.cfi_startproc
 605 02b8 11B5     		push	{r0, r4, lr}
 606              	.LCFI6:
 607              		.cfi_def_cfa_offset 12
 608              		.cfi_offset 0, -12
 609              		.cfi_offset 4, -8
 610              		.cfi_offset 14, -4
1129:bt.c          ****   lcdColor(0,0);
 611              		.loc 1 1129 0
 612 02ba 0020     		mov	r0, #0
 613 02bc 011C     		mov	r1, r0
 614 02be FFF7FEFF 		bl	lcdColor
1130:bt.c          ****   lcdClrscr();
 615              		.loc 1 1130 0
 616 02c2 FFF7FEFF 		bl	lcdClrscr
1131:bt.c          **** 
1132:bt.c          ****   lcdRect(255, 255, 130, 130, BT_BACKBACKGROUND_COLOR);
 617              		.loc 1 1132 0
 618 02c6 FF20     		mov	r0, #255
 619 02c8 8222     		mov	r2, #130
 620 02ca 0324     		mov	r4, #3
 621 02cc 011C     		mov	r1, r0
 622 02ce 131C     		mov	r3, r2
 623 02d0 0094     		str	r4, [sp]
 624 02d2 FFF7FEFF 		bl	lcdRect
1133:bt.c          ****   lcdRect(1, 16, 126, 84, BT_BACKGROUND_COLOR);
 625              		.loc 1 1133 0
 626 02d6 5423     		mov	r3, #84
 627 02d8 7E22     		mov	r2, #126
 628 02da 0120     		mov	r0, #1
ARM GAS  C:\Users\KOZLOV~1\AppData\Local\Temp\cc7z5Qbi.s 			page 33


 629 02dc 1021     		mov	r1, #16
 630 02de 0090     		str	r0, [sp]
 631 02e0 FFF7FEFF 		bl	lcdRect
1134:bt.c          **** 
1135:bt.c          ****   lcdGotoxy(8,0);
 632              		.loc 1 1135 0
 633 02e4 0820     		mov	r0, #8
 634 02e6 0021     		mov	r1, #0
 635 02e8 FFF7FEFF 		bl	lcdGotoxy
1136:bt.c          ****   lcdColor(BT_BACKBACKGROUND_COLOR,0);
 636              		.loc 1 1136 0
 637 02ec 0021     		mov	r1, #0
 638 02ee 201C     		mov	r0, r4
 639 02f0 FFF7FEFF 		bl	lcdColor
1137:bt.c          ****   lcdPuts("BLUETOOTH MENU");
 640              		.loc 1 1137 0
 641 02f4 1748     		ldr	r0, .L76
 642 02f6 FFF7FEFF 		bl	lcdPuts
1138:bt.c          ****   drawBtMenuCursor(btCursor);
 643              		.loc 1 1138 0
 644 02fa FFF78FFF 		bl	drawBtMenuCursor.isra.1
1139:bt.c          ****   
1140:bt.c          ****   //display sleep status
1141:bt.c          ****   lcdGotoxy(0,101);
 645              		.loc 1 1141 0
 646 02fe 0020     		mov	r0, #0
 647 0300 6521     		mov	r1, #101
 648 0302 FFF7FEFF 		bl	lcdGotoxy
1142:bt.c          ****   lcdColor(BT_BACKBACKGROUND_COLOR,0x00);
 649              		.loc 1 1142 0
 650 0306 201C     		mov	r0, r4
 651 0308 0021     		mov	r1, #0
 652 030a FFF7FEFF 		bl	lcdColor
1143:bt.c          ****   lcdPuts("BT stat:");
 653              		.loc 1 1143 0
 654 030e 1248     		ldr	r0, .L76+4
 655 0310 FFF7FEFF 		bl	lcdPuts
1144:bt.c          ****   lcdColor(BT_BACKBACKGROUND_COLOR,0xfd);
 656              		.loc 1 1144 0
 657 0314 201C     		mov	r0, r4
 658 0316 FD21     		mov	r1, #253
 659 0318 FFF7FEFF 		bl	lcdColor
1145:bt.c          ****   if (btSleepState == FALSE)
 660              		.loc 1 1145 0
 661 031c 0F4C     		ldr	r4, .L76+8
 662 031e 231C     		mov	r3, r4
 663 0320 5F33     		add	r3, r3, #95
 664 0322 1B78     		ldrb	r3, [r3]
 665 0324 002B     		cmp	r3, #0
 666 0326 01D1     		bne	.L70
1146:bt.c          ****     lcdPuts("Active");
 667              		.loc 1 1146 0
 668 0328 0D48     		ldr	r0, .L76+12
 669 032a 00E0     		b	.L74
 670              	.L70:
1147:bt.c          ****   else
1148:bt.c          ****     lcdPuts("Inactive");
ARM GAS  C:\Users\KOZLOV~1\AppData\Local\Temp\cc7z5Qbi.s 			page 34


 671              		.loc 1 1148 0
 672 032c 0D48     		ldr	r0, .L76+16
 673              	.L74:
 674 032e FFF7FEFF 		bl	lcdPuts
1149:bt.c          **** 
1150:bt.c          ****   lcdGotoxy(32,115);
1151:bt.c          ****   if (btCommandMode == FALSE)
 675              		.loc 1 1151 0
 676 0332 5E34     		add	r4, r4, #94
1150:bt.c          ****   lcdGotoxy(32,115);
 677              		.loc 1 1150 0
 678 0334 2020     		mov	r0, #32
 679 0336 7321     		mov	r1, #115
 680 0338 FFF7FEFF 		bl	lcdGotoxy
 681              		.loc 1 1151 0
 682 033c 2378     		ldrb	r3, [r4]
 683 033e 002B     		cmp	r3, #0
 684 0340 01D1     		bne	.L72
1152:bt.c          ****     lcdPuts("Data mode");
 685              		.loc 1 1152 0
 686 0342 0948     		ldr	r0, .L76+20
 687 0344 00E0     		b	.L75
 688              	.L72:
1153:bt.c          ****   else
1154:bt.c          ****     lcdPuts("Command mode");
 689              		.loc 1 1154 0
 690 0346 0948     		ldr	r0, .L76+24
 691              	.L75:
 692 0348 FFF7FEFF 		bl	lcdPuts
1155:bt.c          **** }
 693              		.loc 1 1155 0
 694              		@ sp needed for prologue
 695 034c 11BC     		pop	{r0, r4}
 696 034e 01BC     		pop	{r0}
 697 0350 0047     		bx	r0
 698              	.L77:
 699 0352 C046     		.align	2
 700              	.L76:
 701 0354 97000000 		.word	.LC48
 702 0358 A6000000 		.word	.LC50
 703 035c 80000000 		.word	.LANCHOR1
 704 0360 AF000000 		.word	.LC53
 705 0364 B6000000 		.word	.LC55
 706 0368 BF000000 		.word	.LC57
 707 036c C9000000 		.word	.LC59
 708              		.cfi_endproc
 709              	.LFE13:
 710              		.size	drawBtMenu, .-drawBtMenu
 711              		.align	1
 712              		.code	16
 713              		.thumb_func
 714              		.type	displayMessage.constprop.2, %function
 715              	displayMessage.constprop.2:
 716              	.LFB19:
 193:bt.c          **** displayMessage(tU8 *pMessage, tU8 speed)
 717              		.loc 1 193 0
 718              		.cfi_startproc
ARM GAS  C:\Users\KOZLOV~1\AppData\Local\Temp\cc7z5Qbi.s 			page 35


 719 0370 10B5     		push	{r4, lr}
 720              	.LCFI7:
 721              		.cfi_def_cfa_offset 8
 722              		.cfi_offset 4, -8
 723              		.cfi_offset 14, -4
 724              	.LVL36:
 193:bt.c          **** displayMessage(tU8 *pMessage, tU8 speed)
 725              		.loc 1 193 0
 726 0372 041C     		mov	r4, r0
 727 0374 05E0     		b	.L79
 728              	.LVL37:
 729              	.L80:
 197:bt.c          ****     lcdPutchar(*pMessage++);
 730              		.loc 1 197 0
 731 0376 FFF7FEFF 		bl	lcdPutchar
 198:bt.c          ****     osSleep(speed);
 732              		.loc 1 198 0
 733 037a 0320     		mov	r0, #3
 197:bt.c          ****     lcdPutchar(*pMessage++);
 734              		.loc 1 197 0
 735 037c 0134     		add	r4, r4, #1
 736              	.LVL38:
 198:bt.c          ****     osSleep(speed);
 737              		.loc 1 198 0
 738 037e FFF7FEFF 		bl	osSleep
 739              	.L79:
 195:bt.c          ****   while(*pMessage != '\0')
 740              		.loc 1 195 0
 741 0382 2078     		ldrb	r0, [r4]
 742 0384 0028     		cmp	r0, #0
 743 0386 F6D1     		bne	.L80
 200:bt.c          **** }
 744              		.loc 1 200 0
 745              		@ sp needed for prologue
 746              	.LVL39:
 747 0388 10BC     		pop	{r4}
 748 038a 01BC     		pop	{r0}
 749 038c 0047     		bx	r0
 750              		.cfi_endproc
 751              	.LFE19:
 752              		.size	displayMessage.constprop.2, .-displayMessage.constprop.2
 753              		.align	1
 754              		.global	initBtProc
 755              		.code	16
 756              		.thumb_func
 757              		.type	initBtProc, %function
 758              	initBtProc:
 759              	.LFB0:
  90:bt.c          **** {
 760              		.loc 1 90 0
 761              		.cfi_startproc
 762 038e 7FB5     		push	{r0, r1, r2, r3, r4, r5, r6, lr}
 763              	.LCFI8:
 764              		.cfi_def_cfa_offset 32
 765              		.cfi_offset 0, -32
 766              		.cfi_offset 1, -28
 767              		.cfi_offset 2, -24
ARM GAS  C:\Users\KOZLOV~1\AppData\Local\Temp\cc7z5Qbi.s 			page 36


 768              		.cfi_offset 3, -20
 769              		.cfi_offset 4, -16
 770              		.cfi_offset 5, -12
 771              		.cfi_offset 6, -8
 772              		.cfi_offset 14, -4
  93:bt.c          ****   osSemInit(&recvSem, 1);
 773              		.loc 1 93 0
 774 0390 0E4C     		ldr	r4, .L82
 775 0392 201C     		mov	r0, r4
 776 0394 4030     		add	r0, r0, #64
 777 0396 0121     		mov	r1, #1
 778 0398 FFF7FEFF 		bl	osSemInit
  95:bt.c          ****   osCreateProcess(procBt, procBtStack, PROC_BT_STACK_SIZE, &pidBt, 4, NULL, &error);
 779              		.loc 1 95 0
 780 039c 0C4D     		ldr	r5, .L82+4
 781 039e 0423     		mov	r3, #4
 782 03a0 0093     		str	r3, [sp]
 783 03a2 211C     		mov	r1, r4
 784 03a4 0023     		mov	r3, #0
 785 03a6 6E46     		mov	r6, sp
 786 03a8 C822     		mov	r2, #200
 787 03aa 0F36     		add	r6, r6, #15
 788 03ac 0193     		str	r3, [sp, #4]
 789 03ae 9200     		lsl	r2, r2, #2
 790 03b0 2B1C     		mov	r3, r5
 791 03b2 6031     		add	r1, r1, #96
 792 03b4 0748     		ldr	r0, .L82+8
 793 03b6 0296     		str	r6, [sp, #8]
 794 03b8 FFF7FEFF 		bl	osCreateProcess
  96:bt.c          ****   osStartProcess(pidBt, &error);
 795              		.loc 1 96 0
 796 03bc 2878     		ldrb	r0, [r5]
 797 03be 311C     		mov	r1, r6
 798 03c0 FFF7FEFF 		bl	osStartProcess
  97:bt.c          **** }
 799              		.loc 1 97 0
 800              		@ sp needed for prologue
 801 03c4 7FBC     		pop	{r0, r1, r2, r3, r4, r5, r6}
 802 03c6 01BC     		pop	{r0}
 803 03c8 0047     		bx	r0
 804              	.L83:
 805 03ca C046     		.align	2
 806              	.L82:
 807 03cc 80000000 		.word	.LANCHOR1
 808 03d0 00040000 		.word	.LANCHOR2
 809 03d4 00000000 		.word	procBt
 810              		.cfi_endproc
 811              	.LFE0:
 812              		.size	initBtProc, .-initBtProc
 813              		.global	__umodsi3
 814              		.global	__udivsi3
 815              		.align	1
 816              		.global	handleBt
 817              		.code	16
 818              		.thumb_func
 819              		.type	handleBt, %function
 820              	handleBt:
ARM GAS  C:\Users\KOZLOV~1\AppData\Local\Temp\cc7z5Qbi.s 			page 37


 821              	.LFB14:
1156:bt.c          **** 
1157:bt.c          **** 
1158:bt.c          **** /*****************************************************************************
1159:bt.c          ****  *
1160:bt.c          ****  * Description:
1161:bt.c          ****  *    Implements the Bluetooth function menu
1162:bt.c          ****  *
1163:bt.c          ****  ****************************************************************************/
1164:bt.c          **** void
1165:bt.c          **** handleBt(void)
1166:bt.c          **** {
 822              		.loc 1 1166 0
 823              		.cfi_startproc
 824 03d8 F0B5     		push	{r4, r5, r6, r7, lr}
 825              	.LCFI9:
 826              		.cfi_def_cfa_offset 20
 827              		.cfi_offset 4, -20
 828              		.cfi_offset 5, -16
 829              		.cfi_offset 6, -12
 830              		.cfi_offset 7, -8
 831              		.cfi_offset 14, -4
 832              	.LVL40:
 833 03da AAB0     		sub	sp, sp, #168
 834              	.LCFI10:
 835              		.cfi_def_cfa_offset 188
1167:bt.c          ****   tU8 exit = FALSE;
1168:bt.c          **** 
1169:bt.c          ****   //print menu
1170:bt.c          ****   drawBtMenu();
 836              		.loc 1 1170 0
 837 03dc FFF76CFF 		bl	drawBtMenu
 838              	.LVL41:
 839              	.L194:
 840              	.LBB30:
1171:bt.c          ****   
1172:bt.c          ****   while(exit == FALSE)
1173:bt.c          ****   {
1174:bt.c          ****     tU8 anyKey;
1175:bt.c          **** 
1176:bt.c          ****     anyKey = checkKey();
 841              		.loc 1 1176 0
 842 03e0 FFF7FEFF 		bl	checkKey
 843              	.LVL42:
1177:bt.c          ****     if (anyKey != KEY_NOTHING)
 844              		.loc 1 1177 0
 845 03e4 041E     		sub	r4, r0, #0
 846 03e6 01D1     		bne	.LCB671
 847 03e8 00F011FE 		bl	.L85	@far jump
 848              	.LCB671:
1178:bt.c          ****     {
1179:bt.c          ****       //select specific function
1180:bt.c          ****       if (anyKey == KEY_CENTER)
 849              		.loc 1 1180 0
 850 03ec 1028     		cmp	r0, #16
 851 03ee 01D0     		beq	.LCB673
 852 03f0 00F0F2FD 		bl	.L86	@far jump
ARM GAS  C:\Users\KOZLOV~1\AppData\Local\Temp\cc7z5Qbi.s 			page 38


 853              	.LCB673:
1181:bt.c          ****       {
1182:bt.c          ****         switch(btCursor)
 854              		.loc 1 1182 0
 855 03f4 C54B     		ldr	r3, .L260
 856 03f6 5D33     		add	r3, r3, #93
 857 03f8 1878     		ldrb	r0, [r3]
 858              	.LVL43:
 859 03fa 0024     		mov	r4, #0
 860              	.LVL44:
 861 03fc 0528     		cmp	r0, #5
 862 03fe 01D9     		bls	.LCB681
 863 0400 00F0E7FD 		bl	.L93	@far jump
 864              	.LCB681:
 865 0404 0124     		mov	r4, #1
 866 0406 FFF7FEFF 		bl	__gnu_thumb1_case_uhi
 867              	.L94:
 868 040a 0600     		.2byte	(.L88-.L94)/2
 869 040c 5702     		.2byte	(.L89-.L94)/2
 870 040e D003     		.2byte	(.L90-.L94)/2
 871 0410 DE04     		.2byte	(.L91-.L94)/2
 872 0412 6005     		.2byte	(.L92-.L94)/2
 873 0414 E305     		.2byte	(.L196-.L94)/2
 874              	.L88:
 875              	.LBB31:
 876              	.LBB32:
 261:bt.c          ****     foundBtUnits[foundBt].active = FALSE;
 877              		.loc 1 261 0
 878 0416 BE4B     		ldr	r3, .L260+4
 879 0418 0024     		mov	r4, #0
 880 041a 5A1C     		add	r2, r3, #1
 881 041c D477     		strb	r4, [r2, #31]
 262:bt.c          ****     foundBtUnits[foundBt].btName[0] = '\0';
 882              		.loc 1 262 0
 883 041e 1A1C     		mov	r2, r3
 884 0420 2E32     		add	r2, r2, #46
 885 0422 1470     		strb	r4, [r2]
 261:bt.c          ****     foundBtUnits[foundBt].active = FALSE;
 886              		.loc 1 261 0
 887 0424 1A1C     		mov	r2, r3
 888 0426 4032     		add	r2, r2, #64
 889 0428 1470     		strb	r4, [r2]
 262:bt.c          ****     foundBtUnits[foundBt].btName[0] = '\0';
 890              		.loc 1 262 0
 891 042a 1A1C     		mov	r2, r3
 892 042c 4E32     		add	r2, r2, #78
 893 042e 1470     		strb	r4, [r2]
 261:bt.c          ****     foundBtUnits[foundBt].active = FALSE;
 894              		.loc 1 261 0
 895 0430 1A1C     		mov	r2, r3
 896 0432 6032     		add	r2, r2, #96
 897 0434 1470     		strb	r4, [r2]
 262:bt.c          ****     foundBtUnits[foundBt].btName[0] = '\0';
 898              		.loc 1 262 0
 899 0436 1A1C     		mov	r2, r3
 900 0438 6E32     		add	r2, r2, #110
 901 043a 1470     		strb	r4, [r2]
ARM GAS  C:\Users\KOZLOV~1\AppData\Local\Temp\cc7z5Qbi.s 			page 39


 261:bt.c          ****     foundBtUnits[foundBt].active = FALSE;
 902              		.loc 1 261 0
 903 043c 1A1C     		mov	r2, r3
 904 043e 1C70     		strb	r4, [r3]
 266:bt.c          ****   lcdRect(1, 16, 126, 84, BT_BACKGROUND_COLOR);
 905              		.loc 1 266 0
 906 0440 0125     		mov	r5, #1
 262:bt.c          ****     foundBtUnits[foundBt].btName[0] = '\0';
 907              		.loc 1 262 0
 908 0442 9C73     		strb	r4, [r3, #14]
 909              	.LVL45:
 261:bt.c          ****     foundBtUnits[foundBt].active = FALSE;
 910              		.loc 1 261 0
 911 0444 8032     		add	r2, r2, #128
 262:bt.c          ****     foundBtUnits[foundBt].btName[0] = '\0';
 912              		.loc 1 262 0
 913 0446 8E33     		add	r3, r3, #142
 261:bt.c          ****     foundBtUnits[foundBt].active = FALSE;
 914              		.loc 1 261 0
 915 0448 1470     		strb	r4, [r2]
 262:bt.c          ****     foundBtUnits[foundBt].btName[0] = '\0';
 916              		.loc 1 262 0
 917 044a 1C70     		strb	r4, [r3]
 918              	.LVL46:
 266:bt.c          ****   lcdRect(1, 16, 126, 84, BT_BACKGROUND_COLOR);
 919              		.loc 1 266 0
 920 044c 7E22     		mov	r2, #126
 921 044e 5423     		mov	r3, #84
 922 0450 281C     		mov	r0, r5
 923 0452 1021     		mov	r1, #16
 924 0454 0095     		str	r5, [sp]
 925 0456 FFF7FEFF 		bl	lcdRect
 267:bt.c          ****   lcdGotoxy(18,16);
 926              		.loc 1 267 0
 927 045a 1220     		mov	r0, #18
 928 045c 1021     		mov	r1, #16
 929 045e FFF7FEFF 		bl	lcdGotoxy
 268:bt.c          ****   lcdColor(BT_BACKGROUND_COLOR,0xfd);
 930              		.loc 1 268 0
 931 0462 FD21     		mov	r1, #253
 932 0464 281C     		mov	r0, r5
 933 0466 FFF7FEFF 		bl	lcdColor
 269:bt.c          ****   lcdPuts("Inquiry");
 934              		.loc 1 269 0
 935 046a AA48     		ldr	r0, .L260+8
 936 046c FFF7FEFF 		bl	lcdPuts
 270:bt.c          ****   drawBtsFound(FALSE,0);
 937              		.loc 1 270 0
 938 0470 211C     		mov	r1, r4
 939 0472 201C     		mov	r0, r4
 940 0474 FFF7C4FD 		bl	drawBtsFound
 273:bt.c          ****   stopRecvProc = TRUE;
 941              		.loc 1 273 0
 942 0478 A44B     		ldr	r3, .L260
 943 047a 5C33     		add	r3, r3, #92
 944 047c 1D70     		strb	r5, [r3]
 278:bt.c          ****   osSleep(100);
ARM GAS  C:\Users\KOZLOV~1\AppData\Local\Temp\cc7z5Qbi.s 			page 40


 945              		.loc 1 278 0
 946 047e 6420     		mov	r0, #100
 947 0480 FFF7FEFF 		bl	osSleep
 279:bt.c          ****   uart1SendString("+++");
 948              		.loc 1 279 0
 949 0484 A448     		ldr	r0, .L260+12
 950 0486 FFF7FEFF 		bl	uart1SendString
 280:bt.c          ****   osSleep(100);
 951              		.loc 1 280 0
 952 048a 6420     		mov	r0, #100
 953 048c FFF7FEFF 		bl	osSleep
 281:bt.c          ****   uart1SendString("AT+BTINQ=6\r");
 954              		.loc 1 281 0
 955 0490 A248     		ldr	r0, .L260+16
 956 0492 FFF7FEFF 		bl	uart1SendString
 286:bt.c          ****   timeStamp = ms;
 957              		.loc 1 286 0
 958 0496 A24B     		ldr	r3, .L260+20
 959 0498 1A68     		ldr	r2, [r3]
 960              	.LVL47:
 290:bt.c          ****   cnt = 0;
 961              		.loc 1 290 0
 962 049a 271C     		mov	r7, r4
 286:bt.c          ****   timeStamp = ms;
 963              		.loc 1 286 0
 964 049c 2892     		str	r2, [sp, #160]
 965              	.LVL48:
 289:bt.c          ****   foundBt = 0;
 966              		.loc 1 289 0
 967 049e 261C     		mov	r6, r4
 968 04a0 7FE0     		b	.L95
 969              	.LVL49:
 970              	.L110:
 294:bt.c          ****     if (uart1GetChar(&rxChar) == TRUE)
 971              		.loc 1 294 0
 972 04a2 6846     		mov	r0, sp
 973 04a4 A630     		add	r0, r0, #166
 974 04a6 FFF7FEFF 		bl	uart1GetChar
 975 04aa 0025     		mov	r5, #0
 976 04ac 0128     		cmp	r0, #1
 977 04ae 4AD1     		bne	.L96
 296:bt.c          ****       printf("%c", rxChar);
 978              		.loc 1 296 0
 979 04b0 A622     		mov	r2, #166
 980 04b2 6A44     		add	r2, r2, sp
 981 04b4 1178     		ldrb	r1, [r2]
 982              	.LVL50:
 983 04b6 9B48     		ldr	r0, .L260+24
 984 04b8 FFF7FEFF 		bl	simplePrintf
 298:bt.c          ****       if (rxChar == 0x0a)
 985              		.loc 1 298 0
 986 04bc A622     		mov	r2, #166
 987 04be 6A44     		add	r2, r2, sp
 988              	.LVL51:
 989 04c0 1378     		ldrb	r3, [r2]
 990 04c2 0A2B     		cmp	r3, #10
 991 04c4 32D1     		bne	.L97
ARM GAS  C:\Users\KOZLOV~1\AppData\Local\Temp\cc7z5Qbi.s 			page 41


 300:bt.c          ****         if (recvPos > 0)
 992              		.loc 1 300 0
 993 04c6 AC42     		cmp	r4, r5
 994 04c8 03D0     		beq	.L98
 301:bt.c          ****           recvBuf[recvPos-1] = '\0';
 995              		.loc 1 301 0
 996 04ca 2AAA     		add	r2, sp, #168
 997 04cc 1319     		add	r3, r2, r4
 998 04ce 853B     		sub	r3, r3, #133
 999 04d0 1D70     		strb	r5, [r3]
 1000              	.L98:
 304:bt.c          ****         if ((memcmp(recvBuf, "+BTINQ: ", 8) == 0) && (recvPos == 29))
 1001              		.loc 1 304 0
 1002 04d2 09AD     		add	r5, sp, #36
 1003 04d4 281C     		mov	r0, r5
 1004 04d6 9449     		ldr	r1, .L260+28
 1005 04d8 0822     		mov	r2, #8
 1006 04da FFF7FEFF 		bl	memcmp
 1007 04de 0028     		cmp	r0, #0
 1008 04e0 1CD1     		bne	.L99
 1009 04e2 1D2C     		cmp	r4, #29
 1010 04e4 1AD1     		bne	.L99
 306:bt.c          ****           if (foundBt < MAX_BT_UNITS)
 1011              		.loc 1 306 0
 1012 04e6 042E     		cmp	r6, #4
 1013 04e8 28D8     		bhi	.L198
1165:bt.c          **** handleBt(void)
 1014              		.loc 1 1165 0
 1015 04ea 8949     		ldr	r1, .L260+4
 1016 04ec 7201     		lsl	r2, r6, #5
 306:bt.c          ****           if (foundBt < MAX_BT_UNITS)
 1017              		.loc 1 306 0
 1018 04ee 0023     		mov	r3, #0
1165:bt.c          **** handleBt(void)
 1019              		.loc 1 1165 0
 1020 04f0 8818     		add	r0, r1, r2
 1021 04f2 9446     		mov	ip, r2
 1022              	.L100:
 1023 04f4 EA18     		add	r2, r5, r3
 309:bt.c          ****               foundBtUnits[foundBt].btAddress[recvPos] = recvBuf[recvPos + 8];
 1024              		.loc 1 309 0
 1025 04f6 127A     		ldrb	r2, [r2, #8]
1165:bt.c          **** handleBt(void)
 1026              		.loc 1 1165 0
 1027 04f8 C418     		add	r4, r0, r3
 309:bt.c          ****               foundBtUnits[foundBt].btAddress[recvPos] = recvBuf[recvPos + 8];
 1028              		.loc 1 309 0
 1029 04fa 0133     		add	r3, r3, #1
 1030 04fc 6270     		strb	r2, [r4, #1]
 308:bt.c          ****             for(recvPos=0; recvPos<12; recvPos++)
 1031              		.loc 1 308 0
 1032 04fe 0C2B     		cmp	r3, #12
 1033 0500 F8D1     		bne	.L100
 311:bt.c          ****             foundBtUnits[foundBt].active = TRUE;
 1034              		.loc 1 311 0
 1035 0502 0123     		mov	r3, #1
 310:bt.c          ****             foundBtUnits[foundBt].btAddress[12] = '\0';
ARM GAS  C:\Users\KOZLOV~1\AppData\Local\Temp\cc7z5Qbi.s 			page 42


 1036              		.loc 1 310 0
 1037 0504 0024     		mov	r4, #0
 1038 0506 6246     		mov	r2, ip
 312:bt.c          ****             foundBt++;
 1039              		.loc 1 312 0
 1040 0508 F618     		add	r6, r6, r3
 310:bt.c          ****             foundBtUnits[foundBt].btAddress[12] = '\0';
 1041              		.loc 1 310 0
 1042 050a 4473     		strb	r4, [r0, #13]
 311:bt.c          ****             foundBtUnits[foundBt].active = TRUE;
 1043              		.loc 1 311 0
 1044 050c 8B54     		strb	r3, [r1, r2]
 312:bt.c          ****             foundBt++;
 1045              		.loc 1 312 0
 1046 050e 3606     		lsl	r6, r6, #24
 315:bt.c          ****             drawBtsFound(FALSE, 0);
 1047              		.loc 1 315 0
 1048 0510 201C     		mov	r0, r4
 1049 0512 211C     		mov	r1, r4
 312:bt.c          ****             foundBt++;
 1050              		.loc 1 312 0
 1051 0514 360E     		lsr	r6, r6, #24
 1052              	.LVL52:
 315:bt.c          ****             drawBtsFound(FALSE, 0);
 1053              		.loc 1 315 0
 1054 0516 FFF773FD 		bl	drawBtsFound
 1055 051a 10E0     		b	.L242
 1056              	.LVL53:
 1057              	.L99:
 318:bt.c          ****         else if (memcmp(recvBuf, "+BTINQ: COMPLETE", 16) == 0)
 1058              		.loc 1 318 0
 1059 051c 09A8     		add	r0, sp, #36
 1060 051e 8349     		ldr	r1, .L260+32
 1061 0520 1022     		mov	r2, #16
 1062 0522 FFF7FEFF 		bl	memcmp
 1063 0526 0028     		cmp	r0, #0
 1064 0528 0BD0     		beq	.L199
 1065 052a 07E0     		b	.L198
 1066              	.L97:
 324:bt.c          ****       else if (recvPos < RECV_BUF_LEN)
 1067              		.loc 1 324 0
 1068 052c 1F2C     		cmp	r4, #31
 1069 052e 0AD8     		bhi	.L96
 325:bt.c          ****         recvBuf[recvPos++] = rxChar;
 1070              		.loc 1 325 0
 1071 0530 09AA     		add	r2, sp, #36
 1072 0532 1355     		strb	r3, [r2, r4]
 1073 0534 0134     		add	r4, r4, #1
 1074 0536 2406     		lsl	r4, r4, #24
 1075 0538 240E     		lsr	r4, r4, #24
 1076              	.LVL54:
 1077 053a 04E0     		b	.L96
 1078              	.LVL55:
 1079              	.L198:
 322:bt.c          ****         recvPos = 0;
 1080              		.loc 1 322 0
 1081 053c 0024     		mov	r4, #0
ARM GAS  C:\Users\KOZLOV~1\AppData\Local\Temp\cc7z5Qbi.s 			page 43


 1082              	.L242:
 306:bt.c          ****           if (foundBt < MAX_BT_UNITS)
 1083              		.loc 1 306 0
 1084 053e 251C     		mov	r5, r4
 1085 0540 01E0     		b	.L96
 1086              	.L199:
 322:bt.c          ****         recvPos = 0;
 1087              		.loc 1 322 0
 1088 0542 041C     		mov	r4, r0
 320:bt.c          ****           done = TRUE;
 1089              		.loc 1 320 0
 1090 0544 0125     		mov	r5, #1
 1091              	.L96:
 1092              	.LVL56:
 327:bt.c          ****     osSleep(1);
 1093              		.loc 1 327 0
 1094 0546 0120     		mov	r0, #1
 1095 0548 FFF7FEFF 		bl	osSleep
 330:bt.c          ****     lcdGotoxy(74,16);
 1096              		.loc 1 330 0
 1097 054c 4A20     		mov	r0, #74
 1098 054e 1021     		mov	r1, #16
 1099 0550 FFF7FEFF 		bl	lcdGotoxy
 331:bt.c          ****     lcdColor(BT_BACKGROUND_COLOR,0xfd);
 1100              		.loc 1 331 0
 1101 0554 0120     		mov	r0, #1
 1102 0556 FD21     		mov	r1, #253
 1103 0558 FFF7FEFF 		bl	lcdColor
 332:bt.c          ****     switch(cnt % 150)
 1104              		.loc 1 332 0
 1105 055c 381C     		mov	r0, r7
 1106 055e 9621     		mov	r1, #150
 1107 0560 FFF7FEFF 		bl	__umodsi3
 1108 0564 3228     		cmp	r0, #50
 1109 0566 10D0     		beq	.L104
 1110 0568 04D8     		bhi	.L108
 1111 056a 0028     		cmp	r0, #0
 1112 056c 09D0     		beq	.L102
 1113 056e 1928     		cmp	r0, #25
 1114 0570 14D1     		bne	.L101
 1115 0572 08E0     		b	.L256
 1116              	.L108:
 1117 0574 6428     		cmp	r0, #100
 1118 0576 0CD0     		beq	.L106
 1119 0578 7D28     		cmp	r0, #125
 1120 057a 0CD0     		beq	.L107
 1121 057c 4B28     		cmp	r0, #75
 1122 057e 0DD1     		bne	.L101
 1123 0580 05E0     		b	.L257
 1124              	.L102:
 334:bt.c          ****       case   0: lcdPuts("   ");break;
 1125              		.loc 1 334 0
 1126 0582 6B48     		ldr	r0, .L260+36
 1127 0584 08E0     		b	.L243
 1128              	.L256:
 335:bt.c          ****       case  25: lcdPuts(".  ");break;
 1129              		.loc 1 335 0
ARM GAS  C:\Users\KOZLOV~1\AppData\Local\Temp\cc7z5Qbi.s 			page 44


 1130 0586 6B48     		ldr	r0, .L260+40
 1131 0588 06E0     		b	.L243
 1132              	.L104:
 336:bt.c          ****       case  50: lcdPuts(".. ");break;
 1133              		.loc 1 336 0
 1134 058a 6B48     		ldr	r0, .L260+44
 1135 058c 04E0     		b	.L243
 1136              	.L257:
 337:bt.c          ****       case  75: lcdPuts("...");break;
 1137              		.loc 1 337 0
 1138 058e 6B48     		ldr	r0, .L260+48
 1139 0590 02E0     		b	.L243
 1140              	.L106:
 338:bt.c          ****       case 100: lcdPuts(" ..");break;
 1141              		.loc 1 338 0
 1142 0592 6B48     		ldr	r0, .L260+52
 1143 0594 00E0     		b	.L243
 1144              	.L107:
 339:bt.c          ****       case 125: lcdPuts("  .");break;
 1145              		.loc 1 339 0
 1146 0596 6B48     		ldr	r0, .L260+56
 1147              	.L243:
 1148 0598 FFF7FEFF 		bl	lcdPuts
 1149              	.L101:
 342:bt.c          ****     cnt ++;
 1150              		.loc 1 342 0
 1151 059c 0137     		add	r7, r7, #1
 1152              	.LVL57:
 291:bt.c          ****   while((done == FALSE) && ((ms - timeStamp) < 6500))
 1153              		.loc 1 291 0
 1154 059e 002D     		cmp	r5, #0
 1155 05a0 07D1     		bne	.L109
 1156              	.LVL58:
 1157              	.L95:
 1158 05a2 5F4B     		ldr	r3, .L260+20
 1159 05a4 1A68     		ldr	r2, [r3]
 1160 05a6 289B     		ldr	r3, [sp, #160]
 1161 05a8 D31A     		sub	r3, r2, r3
 1162 05aa 674A     		ldr	r2, .L260+60
 1163 05ac 9342     		cmp	r3, r2
 1164 05ae 00D8     		bhi	.LCB970
 1165 05b0 77E7     		b	.L110	@long jump
 1166              	.LCB970:
 1167              	.L109:
 345:bt.c          ****   lcdGotoxy(74,16);
 1168              		.loc 1 345 0
 1169 05b2 4A20     		mov	r0, #74
 1170 05b4 1021     		mov	r1, #16
 1171 05b6 FFF7FEFF 		bl	lcdGotoxy
 346:bt.c          ****   lcdColor(BT_BACKGROUND_COLOR,0xfd);
 1172              		.loc 1 346 0
 1173 05ba FD21     		mov	r1, #253
 1174 05bc 0120     		mov	r0, #1
 1175 05be FFF7FEFF 		bl	lcdColor
 347:bt.c          ****   lcdPuts("-done");
 1176              		.loc 1 347 0
 1177 05c2 6248     		ldr	r0, .L260+64
ARM GAS  C:\Users\KOZLOV~1\AppData\Local\Temp\cc7z5Qbi.s 			page 45


 1178 05c4 FFF7FEFF 		bl	lcdPuts
 1179              	.LVL59:
 354:bt.c          ****   drawBtsFound(TRUE, cursorPos);
 1180              		.loc 1 354 0
 1181 05c8 0120     		mov	r0, #1
 1182 05ca 0021     		mov	r1, #0
 1183 05cc FFF718FD 		bl	drawBtsFound
 353:bt.c          ****   cursorPos = 0;
 1184              		.loc 1 353 0
 1185 05d0 0025     		mov	r5, #0
 1186              	.LVL60:
 1187              	.L115:
 357:bt.c          ****     anyKey = checkKey();
 1188              		.loc 1 357 0
 1189 05d2 FFF7FEFF 		bl	checkKey
 1190              	.LVL61:
 358:bt.c          ****     if (anyKey != KEY_NOTHING)
 1191              		.loc 1 358 0
 1192 05d6 041E     		sub	r4, r0, #0
 1193 05d8 19D0     		beq	.L111
 363:bt.c          ****         done = TRUE;
 1194              		.loc 1 363 0
 1195 05da 0124     		mov	r4, #1
 361:bt.c          ****       if (anyKey == KEY_CENTER)
 1196              		.loc 1 361 0
 1197 05dc 1028     		cmp	r0, #16
 1198 05de 16D0     		beq	.L111
 367:bt.c          ****       else if (anyKey == KEY_UP)
 1199              		.loc 1 367 0
 1200 05e0 A042     		cmp	r0, r4
 1201 05e2 05D1     		bne	.L112
 369:bt.c          ****         if (cursorPos > 0)
 1202              		.loc 1 369 0
 1203 05e4 002D     		cmp	r5, #0
 1204 05e6 01D0     		beq	.L203
 370:bt.c          ****           cursorPos--;
 1205              		.loc 1 370 0
 1206 05e8 013D     		sub	r5, r5, #1
 1207 05ea 07E0     		b	.L251
 1208              	.L203:
 372:bt.c          ****           cursorPos = MAX_BT_UNITS-1;
 1209              		.loc 1 372 0
 1210 05ec 0425     		mov	r5, #4
 1211              	.LVL62:
 1212 05ee 09E0     		b	.L114
 1213              	.LVL63:
 1214              	.L112:
 377:bt.c          ****       else if (anyKey == KEY_DOWN)
 1215              		.loc 1 377 0
 1216 05f0 0024     		mov	r4, #0
 1217 05f2 0428     		cmp	r0, #4
 1218 05f4 0BD1     		bne	.L111
 379:bt.c          ****         if (cursorPos < MAX_BT_UNITS-1)
 1219              		.loc 1 379 0
 1220 05f6 032D     		cmp	r5, #3
 1221 05f8 03D8     		bhi	.L205
 380:bt.c          ****           cursorPos++;
ARM GAS  C:\Users\KOZLOV~1\AppData\Local\Temp\cc7z5Qbi.s 			page 46


 1222              		.loc 1 380 0
 1223 05fa 0135     		add	r5, r5, #1
 1224              	.L251:
 1225 05fc 2D06     		lsl	r5, r5, #24
 1226 05fe 2D0E     		lsr	r5, r5, #24
 1227              	.LVL64:
 1228 0600 00E0     		b	.L114
 1229              	.LVL65:
 1230              	.L205:
 382:bt.c          ****           cursorPos = 0;
 1231              		.loc 1 382 0
 1232 0602 251C     		mov	r5, r4
 1233              	.L114:
 1234              	.LVL66:
 383:bt.c          ****           drawBtsFound(TRUE, cursorPos);
 1235              		.loc 1 383 0
 1236 0604 0120     		mov	r0, #1
 1237              	.LVL67:
 1238 0606 291C     		mov	r1, r5
 1239 0608 FFF7FAFC 		bl	drawBtsFound
 1240 060c 0024     		mov	r4, #0
 1241              	.LVL68:
 1242              	.L111:
 386:bt.c          ****     osSleep(1);
 1243              		.loc 1 386 0
 1244 060e 0120     		mov	r0, #1
 1245 0610 FFF7FEFF 		bl	osSleep
 355:bt.c          ****   while(done == FALSE)
 1246              		.loc 1 355 0
 1247 0614 002C     		cmp	r4, #0
 1248 0616 DCD0     		beq	.L115
 1249              	.LVL69:
 394:bt.c          ****   if (foundBtUnits[cursorPos].active == TRUE)
 1250              		.loc 1 394 0
 1251 0618 3D4E     		ldr	r6, .L260+4
 1252 061a 6C01     		lsl	r4, r5, #5
 1253              	.LVL70:
 1254 061c A35D     		ldrb	r3, [r4, r6]
 1255 061e 012B     		cmp	r3, #1
 1256 0620 00D0     		beq	.LCB1059
 1257 0622 31E1     		b	.L116	@long jump
 1258              	.LCB1059:
 1259              	.LVL71:
 1260              	.LBB33:
 399:bt.c          ****     uart1SendString("AT+BTSDP=");
 1261              		.loc 1 399 0
 1262 0624 4A48     		ldr	r0, .L260+68
 400:bt.c          ****     uart1SendString(foundBtUnits[cursorPos].btAddress);
 1263              		.loc 1 400 0
 1264 0626 3419     		add	r4, r6, r4
 399:bt.c          ****     uart1SendString("AT+BTSDP=");
 1265              		.loc 1 399 0
 1266 0628 FFF7FEFF 		bl	uart1SendString
 400:bt.c          ****     uart1SendString(foundBtUnits[cursorPos].btAddress);
 1267              		.loc 1 400 0
 1268 062c 601C     		add	r0, r4, #1
 1269 062e FFF7FEFF 		bl	uart1SendString
ARM GAS  C:\Users\KOZLOV~1\AppData\Local\Temp\cc7z5Qbi.s 			page 47


 401:bt.c          ****     uart1SendString("\r");
 1270              		.loc 1 401 0
 1271 0632 4848     		ldr	r0, .L260+72
 1272 0634 FFF7FEFF 		bl	uart1SendString
 403:bt.c          ****     timeStamp = ms;
 1273              		.loc 1 403 0
 1274 0638 394B     		ldr	r3, .L260+20
 1275 063a 1A68     		ldr	r2, [r3]
 1276              	.LVL72:
 397:bt.c          ****     tBool longName = FALSE;
 1277              		.loc 1 397 0
 1278 063c 0027     		mov	r7, #0
 403:bt.c          ****     timeStamp = ms;
 1279              		.loc 1 403 0
 1280 063e 2892     		str	r2, [sp, #160]
 1281              	.LVL73:
 392:bt.c          ****   cnt = 0;
 1282              		.loc 1 392 0
 1283 0640 0897     		str	r7, [sp, #32]
 393:bt.c          ****   numServices = 0;
 1284              		.loc 1 393 0
 1285 0642 3D1C     		mov	r5, r7
 1286              	.LVL74:
 405:bt.c          ****     recvPos = 0;
 1287              		.loc 1 405 0
 1288 0644 3C1C     		mov	r4, r7
 1289 0646 BEE0     		b	.L117
 1290              	.LVL75:
 1291              	.L134:
 410:bt.c          ****       if (uart1GetChar(&rxChar) == TRUE)
 1292              		.loc 1 410 0
 1293 0648 6846     		mov	r0, sp
 1294 064a A630     		add	r0, r0, #166
 1295 064c FFF7FEFF 		bl	uart1GetChar
 1296 0650 0026     		mov	r6, #0
 1297 0652 0128     		cmp	r0, #1
 1298 0654 00D0     		beq	.LCB1101
 1299 0656 86E0     		b	.L118	@long jump
 1300              	.LCB1101:
 412:bt.c          ****         printf("%c", rxChar);
 1301              		.loc 1 412 0
 1302 0658 A623     		mov	r3, #166
 1303 065a 6B44     		add	r3, r3, sp
 1304 065c 1978     		ldrb	r1, [r3]
 1305              	.LVL76:
 1306 065e 3148     		ldr	r0, .L260+24
 1307 0660 FFF7FEFF 		bl	simplePrintf
 414:bt.c          ****         if (rxChar == 0x0a)
 1308              		.loc 1 414 0
 1309 0664 A622     		mov	r2, #166
 1310 0666 6A44     		add	r2, r2, sp
 1311              	.LVL77:
 1312 0668 1378     		ldrb	r3, [r2]
 1313 066a 0A2B     		cmp	r3, #10
 1314 066c 3FD1     		bne	.L119
 416:bt.c          ****           if (recvPos > 0)
 1315              		.loc 1 416 0
ARM GAS  C:\Users\KOZLOV~1\AppData\Local\Temp\cc7z5Qbi.s 			page 48


 1316 066e B442     		cmp	r4, r6
 1317 0670 03D0     		beq	.L120
 417:bt.c          ****             recvBuf[recvPos-1] = '\0';
 1318              		.loc 1 417 0
 1319 0672 2AAB     		add	r3, sp, #168
 1320 0674 1C19     		add	r4, r3, r4
 1321 0676 853C     		sub	r4, r4, #133
 1322 0678 2670     		strb	r6, [r4]
 1323              	.L120:
 420:bt.c          ****           if (memcmp(recvBuf, "+BTSDP: COMPLETE", 16) == 0)
 1324              		.loc 1 420 0
 1325 067a 09A8     		add	r0, sp, #36
 1326 067c 3649     		ldr	r1, .L260+76
 1327 067e 1022     		mov	r2, #16
 1328 0680 FFF7FEFF 		bl	memcmp
 1329 0684 0028     		cmp	r0, #0
 1330 0686 3AD0     		beq	.L207
 423:bt.c          ****           else if (memcmp(recvBuf, "+BTSDP: ", 8) == 0)
 1331              		.loc 1 423 0
 1332 0688 09A8     		add	r0, sp, #36
 1333 068a 3449     		ldr	r1, .L260+80
 1334 068c 0822     		mov	r2, #8
 1335 068e FFF7FEFF 		bl	memcmp
 1336 0692 041E     		sub	r4, r0, #0
 1337 0694 36D1     		bne	.L208
 425:bt.c          ****             numServices++;
 1338              		.loc 1 425 0
 1339 0696 0135     		add	r5, r5, #1
 1340 0698 2D06     		lsl	r5, r5, #24
 1341 069a 2D0E     		lsr	r5, r5, #24
 1342              	.LVL78:
 428:bt.c          ****             if (numServices == 1)
 1343              		.loc 1 428 0
 1344 069c 012D     		cmp	r5, #1
 1345 069e 32D1     		bne	.L244
 1346              	.LBB34:
 433:bt.c          ****               pStr = strchr(&recvBuf[10], '\"');
 1347              		.loc 1 433 0
 1348 06a0 6846     		mov	r0, sp
 1349 06a2 2E30     		add	r0, r0, #46
 1350 06a4 2221     		mov	r1, #34
 1351 06a6 FFF7FEFF 		bl	strchr
 1352              	.LVL79:
 434:bt.c          ****               if (pStr != NULL)
 1353              		.loc 1 434 0
 1354 06aa 0028     		cmp	r0, #0
 1355 06ac 1BD0     		beq	.L121
 1356              	.LBB35:
 439:bt.c          ****                 pStr++;
 1357              		.loc 1 439 0
 1358 06ae 0130     		add	r0, r0, #1
 1359              	.LVL80:
 441:bt.c          ****                 while((*pStr != '\"') && (i < 16))
 1360              		.loc 1 441 0
 1361 06b0 0F26     		mov	r6, #15
 1362 06b2 221C     		mov	r2, r4
 1363 06b4 05E0     		b	.L122
ARM GAS  C:\Users\KOZLOV~1\AppData\Local\Temp\cc7z5Qbi.s 			page 49


 1364              	.LVL81:
 1365              	.L123:
 442:bt.c          ****                   serviceName[i++] = *pStr++;
 1366              		.loc 1 442 0
 1367 06b6 15AB     		add	r3, sp, #84
 1368 06b8 1955     		strb	r1, [r3, r4]
 1369 06ba 0134     		add	r4, r4, #1
 1370              	.LVL82:
 1371 06bc 2406     		lsl	r4, r4, #24
 1372              	.LVL83:
 1373 06be 240E     		lsr	r4, r4, #24
 1374              	.LVL84:
 1375 06c0 0130     		add	r0, r0, #1
 1376              	.LVL85:
 1377              	.L122:
 441:bt.c          ****                 while((*pStr != '\"') && (i < 16))
 1378              		.loc 1 441 0
 1379 06c2 0178     		ldrb	r1, [r0]
 1380 06c4 2229     		cmp	r1, #34
 1381 06c6 05D0     		beq	.L224
 1382 06c8 131C     		mov	r3, r2
 1383 06ca A642     		cmp	r6, r4
 1384 06cc 5341     		adc	r3, r3, r2
 1385 06ce 1B06     		lsl	r3, r3, #24
 1386 06d0 1B0E     		lsr	r3, r3, #24
 1387 06d2 F0D1     		bne	.L123
 1388              	.L224:
 443:bt.c          ****                 serviceName[i] = '\0';
 1389              		.loc 1 443 0
 1390 06d4 15AA     		add	r2, sp, #84
 1391 06d6 0023     		mov	r3, #0
 1392 06d8 1355     		strb	r3, [r2, r4]
 444:bt.c          ****                 if (*pStr != '\"')
 1393              		.loc 1 444 0
 1394 06da 0278     		ldrb	r2, [r0]
 1395 06dc 222A     		cmp	r2, #34
 1396 06de 3FD0     		beq	.L210
 445:bt.c          ****                   longName = TRUE;
 1397              		.loc 1 445 0
 1398 06e0 0127     		mov	r7, #1
 453:bt.c          ****           recvPos = 0;
 1399              		.loc 1 453 0
 1400 06e2 1C1C     		mov	r4, r3
 1401              	.LVL86:
 1402 06e4 0FE0     		b	.L244
 1403              	.L121:
 1404              	.LBE35:
 450:bt.c          ****                 serviceName[0] = '\0';
 1405              		.loc 1 450 0
 1406 06e6 15AB     		add	r3, sp, #84
 1407 06e8 1870     		strb	r0, [r3]
 453:bt.c          ****           recvPos = 0;
 1408              		.loc 1 453 0
 1409 06ea 041C     		mov	r4, r0
 1410 06ec 0BE0     		b	.L244
 1411              	.LVL87:
 1412              	.L119:
ARM GAS  C:\Users\KOZLOV~1\AppData\Local\Temp\cc7z5Qbi.s 			page 50


 1413              	.LBE34:
 455:bt.c          ****         else if (recvPos < RECV_BUF_LEN)
 1414              		.loc 1 455 0
 1415 06ee 1F2C     		cmp	r4, #31
 1416 06f0 39D8     		bhi	.L118
 456:bt.c          ****           recvBuf[recvPos++] = rxChar;
 1417              		.loc 1 456 0
 1418 06f2 09AA     		add	r2, sp, #36
 1419 06f4 1355     		strb	r3, [r2, r4]
 1420 06f6 0134     		add	r4, r4, #1
 1421 06f8 2406     		lsl	r4, r4, #24
 1422 06fa 240E     		lsr	r4, r4, #24
 1423              	.LVL88:
 1424 06fc 33E0     		b	.L118
 1425              	.LVL89:
 1426              	.L207:
 453:bt.c          ****           recvPos = 0;
 1427              		.loc 1 453 0
 1428 06fe 041C     		mov	r4, r0
 421:bt.c          ****             done = TRUE;
 1429              		.loc 1 421 0
 1430 0700 0126     		mov	r6, #1
 1431 0702 30E0     		b	.L118
 1432              	.L208:
 453:bt.c          ****           recvPos = 0;
 1433              		.loc 1 453 0
 1434 0704 0024     		mov	r4, #0
 1435              	.L244:
 423:bt.c          ****           else if (memcmp(recvBuf, "+BTSDP: ", 8) == 0)
 1436              		.loc 1 423 0
 1437 0706 261C     		mov	r6, r4
 1438 0708 2DE0     		b	.L118
 1439              	.L261:
 1440 070a C046     		.align	2
 1441              	.L260:
 1442 070c 80000000 		.word	.LANCHOR1
 1443 0710 00000000 		.word	.LANCHOR0
 1444 0714 3A000000 		.word	.LC29
 1445 0718 02000000 		.word	.LC9
 1446 071c D6000000 		.word	.LC72
 1447 0720 00000000 		.word	ms
 1448 0724 37000000 		.word	.LC22
 1449 0728 E2000000 		.word	.LC76
 1450 072c EB000000 		.word	.LC78
 1451 0730 FC000000 		.word	.LC80
 1452 0734 00010000 		.word	.LC82
 1453 0738 04010000 		.word	.LC84
 1454 073c 08010000 		.word	.LC86
 1455 0740 0C010000 		.word	.LC88
 1456 0744 10010000 		.word	.LC90
 1457 0748 63190000 		.word	6499
 1458 074c 14010000 		.word	.LC92
 1459 0750 1A010000 		.word	.LC94
 1460 0754 24010000 		.word	.LC96
 1461 0758 26010000 		.word	.LC98
 1462 075c 37010000 		.word	.LC100
 1463              	.LVL90:
ARM GAS  C:\Users\KOZLOV~1\AppData\Local\Temp\cc7z5Qbi.s 			page 51


 1464              	.L210:
 1465              	.LBB37:
 1466              	.LBB36:
 447:bt.c          ****                   longName = FALSE;
 1467              		.loc 1 447 0
 1468 0760 1F1C     		mov	r7, r3
 453:bt.c          ****           recvPos = 0;
 1469              		.loc 1 453 0
 1470 0762 1C1C     		mov	r4, r3
 1471              	.LVL91:
 444:bt.c          ****                 if (*pStr != '\"')
 1472              		.loc 1 444 0
 1473 0764 1E1C     		mov	r6, r3
 1474              	.LVL92:
 1475              	.L118:
 1476              	.LBE36:
 1477              	.LBE37:
 458:bt.c          ****       osSleep(1);
 1478              		.loc 1 458 0
 1479 0766 0120     		mov	r0, #1
 1480 0768 FFF7FEFF 		bl	osSleep
 461:bt.c          ****       lcdGotoxy(74,16);
 1481              		.loc 1 461 0
 1482 076c 4A20     		mov	r0, #74
 1483 076e 1021     		mov	r1, #16
 1484 0770 FFF7FEFF 		bl	lcdGotoxy
 462:bt.c          ****       lcdColor(BT_BACKGROUND_COLOR,0xfd);
 1485              		.loc 1 462 0
 1486 0774 0120     		mov	r0, #1
 1487 0776 FD21     		mov	r1, #253
 1488 0778 FFF7FEFF 		bl	lcdColor
 463:bt.c          ****       switch(cnt % 150)
 1489              		.loc 1 463 0
 1490 077c 0898     		ldr	r0, [sp, #32]
 1491 077e 9621     		mov	r1, #150
 1492 0780 FFF7FEFF 		bl	__umodsi3
 1493 0784 3228     		cmp	r0, #50
 1494 0786 10D0     		beq	.L128
 1495 0788 04D8     		bhi	.L132
 1496 078a 0028     		cmp	r0, #0
 1497 078c 09D0     		beq	.L126
 1498 078e 1928     		cmp	r0, #25
 1499 0790 14D1     		bne	.L125
 1500 0792 08E0     		b	.L258
 1501              	.L132:
 1502 0794 6428     		cmp	r0, #100
 1503 0796 0CD0     		beq	.L130
 1504 0798 7D28     		cmp	r0, #125
 1505 079a 0CD0     		beq	.L131
 1506 079c 4B28     		cmp	r0, #75
 1507 079e 0DD1     		bne	.L125
 1508 07a0 05E0     		b	.L259
 1509              	.L126:
 465:bt.c          ****         case   0: lcdPuts("     ");break;
 1510              		.loc 1 465 0
 1511 07a2 DA48     		ldr	r0, .L262
 1512 07a4 08E0     		b	.L245
ARM GAS  C:\Users\KOZLOV~1\AppData\Local\Temp\cc7z5Qbi.s 			page 52


 1513              	.L258:
 466:bt.c          ****         case  25: lcdPuts("-  ");break;
 1514              		.loc 1 466 0
 1515 07a6 DA48     		ldr	r0, .L262+4
 1516 07a8 06E0     		b	.L245
 1517              	.L128:
 467:bt.c          ****         case  50: lcdPuts("-- ");break;
 1518              		.loc 1 467 0
 1519 07aa DA48     		ldr	r0, .L262+8
 1520 07ac 04E0     		b	.L245
 1521              	.L259:
 468:bt.c          ****         case  75: lcdPuts("---");break;
 1522              		.loc 1 468 0
 1523 07ae DA48     		ldr	r0, .L262+12
 1524 07b0 02E0     		b	.L245
 1525              	.L130:
 469:bt.c          ****         case 100: lcdPuts(" --");break;
 1526              		.loc 1 469 0
 1527 07b2 DA48     		ldr	r0, .L262+16
 1528 07b4 00E0     		b	.L245
 1529              	.L131:
 470:bt.c          ****         case 125: lcdPuts("  -");break;
 1530              		.loc 1 470 0
 1531 07b6 DA48     		ldr	r0, .L262+20
 1532              	.L245:
 1533 07b8 FFF7FEFF 		bl	lcdPuts
 1534              	.L125:
 473:bt.c          ****       cnt++;
 1535              		.loc 1 473 0
 1536 07bc 089A     		ldr	r2, [sp, #32]
 1537 07be 0132     		add	r2, r2, #1
 1538 07c0 0892     		str	r2, [sp, #32]
 1539              	.LVL93:
 407:bt.c          ****     while((done == FALSE) && ((ms - timeStamp) < 6000))
 1540              		.loc 1 407 0
 1541 07c2 002E     		cmp	r6, #0
 1542 07c4 07D1     		bne	.L133
 1543              	.LVL94:
 1544              	.L117:
 1545 07c6 D74E     		ldr	r6, .L262+24
 1546 07c8 3268     		ldr	r2, [r6]
 1547 07ca 289B     		ldr	r3, [sp, #160]
 1548 07cc D31A     		sub	r3, r2, r3
 1549 07ce D64A     		ldr	r2, .L262+28
 1550 07d0 9342     		cmp	r3, r2
 1551 07d2 00D8     		bhi	.LCB1382
 1552 07d4 38E7     		b	.L134	@long jump
 1553              	.LCB1382:
 1554              	.L133:
 477:bt.c          ****     lcdRect(1, 16, 126, 84, BT_BACKGROUND_COLOR);
 1555              		.loc 1 477 0
 1556 07d6 0124     		mov	r4, #1
 1557 07d8 7E22     		mov	r2, #126
 1558 07da 5423     		mov	r3, #84
 1559 07dc 201C     		mov	r0, r4
 1560 07de 1021     		mov	r1, #16
 1561 07e0 0094     		str	r4, [sp]
ARM GAS  C:\Users\KOZLOV~1\AppData\Local\Temp\cc7z5Qbi.s 			page 53


 1562 07e2 FFF7FEFF 		bl	lcdRect
 478:bt.c          ****     lcdColor(BT_BACKGROUND_COLOR,0xfd);
 1563              		.loc 1 478 0
 1564 07e6 201C     		mov	r0, r4
 1565 07e8 FD21     		mov	r1, #253
 1566 07ea FFF7FEFF 		bl	lcdColor
 479:bt.c          ****     lcdGotoxy(2,16+(14*0));
 1567              		.loc 1 479 0
 1568 07ee 1021     		mov	r1, #16
 1569 07f0 0220     		mov	r0, #2
 1570 07f2 FFF7FEFF 		bl	lcdGotoxy
 480:bt.c          ****     lcdPuts("Found ");
 1571              		.loc 1 480 0
 1572 07f6 CD48     		ldr	r0, .L262+32
 1573 07f8 FFF7FEFF 		bl	lcdPuts
 1574              	.LBB38:
 484:bt.c          ****       str[1] = (numServices % 10) + '0';
 1575              		.loc 1 484 0
 1576 07fc 281C     		mov	r0, r5
 1577 07fe 0A21     		mov	r1, #10
 1578 0800 FFF7FEFF 		bl	__umodsi3
 1579 0804 25AC     		add	r4, sp, #148
 1580 0806 3030     		add	r0, r0, #48
 1581 0808 6070     		strb	r0, [r4, #1]
 485:bt.c          ****       if (numServices >= 10)
 1582              		.loc 1 485 0
 1583 080a 092D     		cmp	r5, #9
 1584 080c 06D9     		bls	.L135
 486:bt.c          ****         str[0] = (numServices / 10) + '0';
 1585              		.loc 1 486 0
 1586 080e 281C     		mov	r0, r5
 1587 0810 0A21     		mov	r1, #10
 1588 0812 FFF7FEFF 		bl	__udivsi3
 1589 0816 3030     		add	r0, r0, #48
 1590 0818 2070     		strb	r0, [r4]
 1591 081a 01E0     		b	.L136
 1592              	.L135:
 488:bt.c          ****         str[0] = ' ';
 1593              		.loc 1 488 0
 1594 081c 2023     		mov	r3, #32
 1595 081e 2370     		strb	r3, [r4]
 1596              	.L136:
 489:bt.c          ****       str[2] = '\0';
 1597              		.loc 1 489 0
 1598 0820 25A8     		add	r0, sp, #148
 1599 0822 0023     		mov	r3, #0
 1600 0824 8370     		strb	r3, [r0, #2]
 490:bt.c          ****       lcdPuts(str);
 1601              		.loc 1 490 0
 1602 0826 FFF7FEFF 		bl	lcdPuts
 1603              	.LBE38:
 492:bt.c          ****     lcdGotoxy(2,16+(14*1));
 1604              		.loc 1 492 0
 1605 082a 0220     		mov	r0, #2
 1606 082c 1E21     		mov	r1, #30
 1607 082e FFF7FEFF 		bl	lcdGotoxy
 493:bt.c          ****     lcdPuts(" services");
ARM GAS  C:\Users\KOZLOV~1\AppData\Local\Temp\cc7z5Qbi.s 			page 54


 1608              		.loc 1 493 0
 1609 0832 BF48     		ldr	r0, .L262+36
 1610 0834 FFF7FEFF 		bl	lcdPuts
 495:bt.c          ****     if (numServices > 0)
 1611              		.loc 1 495 0
 1612 0838 002D     		cmp	r5, #0
 1613 083a 1DD0     		beq	.L227
 497:bt.c          ****       lcdGotoxy(2,16+(14*2));
 1614              		.loc 1 497 0
 1615 083c 2C21     		mov	r1, #44
 1616 083e 0220     		mov	r0, #2
 1617 0840 FFF7FEFF 		bl	lcdGotoxy
 498:bt.c          ****       lcdPuts("First service");
 1618              		.loc 1 498 0
 1619 0844 BB48     		ldr	r0, .L262+40
 1620 0846 FFF7FEFF 		bl	lcdPuts
 499:bt.c          ****       lcdGotoxy(2,16+(14*3));
 1621              		.loc 1 499 0
 1622 084a 3A21     		mov	r1, #58
 1623 084c 0220     		mov	r0, #2
 1624 084e FFF7FEFF 		bl	lcdGotoxy
 500:bt.c          ****       lcdPuts(" name is:");
 1625              		.loc 1 500 0
 1626 0852 B948     		ldr	r0, .L262+44
 1627 0854 FFF7FEFF 		bl	lcdPuts
 501:bt.c          ****       lcdGotoxy(2,16+(14*4));
 1628              		.loc 1 501 0
 1629 0858 0220     		mov	r0, #2
 1630 085a 4821     		mov	r1, #72
 1631 085c FFF7FEFF 		bl	lcdGotoxy
 502:bt.c          ****       lcdPuts(serviceName);
 1632              		.loc 1 502 0
 1633 0860 15A8     		add	r0, sp, #84
 1634 0862 FFF7FEFF 		bl	lcdPuts
 504:bt.c          ****       if(longName == TRUE)
 1635              		.loc 1 504 0
 1636 0866 012F     		cmp	r7, #1
 1637 0868 06D1     		bne	.L227
 506:bt.c          ****         lcdGotoxy(2,16+(14*5));
 1638              		.loc 1 506 0
 1639 086a 0220     		mov	r0, #2
 1640 086c 5621     		mov	r1, #86
 1641 086e FFF7FEFF 		bl	lcdGotoxy
 507:bt.c          ****         lcdPuts("(name trunc:ed)");
 1642              		.loc 1 507 0
 1643 0872 B248     		ldr	r0, .L262+48
 1644 0874 FFF7FEFF 		bl	lcdPuts
 1645              	.LVL95:
 1646              	.L227:
 515:bt.c          ****       anyKey = checkKey();
 1647              		.loc 1 515 0
 1648 0878 FFF7FEFF 		bl	checkKey
 1649 087c 041C     		mov	r4, r0
 1650              	.LVL96:
 518:bt.c          ****       osSleep(1);
 1651              		.loc 1 518 0
 1652 087e 0120     		mov	r0, #1
ARM GAS  C:\Users\KOZLOV~1\AppData\Local\Temp\cc7z5Qbi.s 			page 55


 1653              	.LVL97:
 1654 0880 FFF7FEFF 		bl	osSleep
 513:bt.c          ****     while(done == FALSE)
 1655              		.loc 1 513 0
 1656 0884 002C     		cmp	r4, #0
 1657 0886 F7D0     		beq	.L227
 1658              	.LVL98:
 1659              	.L116:
 1660              	.LBE33:
 523:bt.c          ****   lcdRect(1, 16, 126, 84, BT_BACKGROUND_COLOR);
 1661              		.loc 1 523 0
 1662 0888 0120     		mov	r0, #1
 1663 088a 7E22     		mov	r2, #126
 1664 088c 1021     		mov	r1, #16
 1665 088e 5423     		mov	r3, #84
 1666 0890 0090     		str	r0, [sp]
 1667 0892 FFF7FEFF 		bl	lcdRect
 526:bt.c          ****   stopRecvProc = FALSE;
 1668              		.loc 1 526 0
 1669 0896 AA4C     		ldr	r4, .L262+52
 1670 0898 231C     		mov	r3, r4
 1671 089a 5C33     		add	r3, r3, #92
 1672 089c 0025     		mov	r5, #0
 527:bt.c          ****   osSemGive(&recvSem, &error);
 1673              		.loc 1 527 0
 1674 089e 201C     		mov	r0, r4
 1675 08a0 6946     		mov	r1, sp
 526:bt.c          ****   stopRecvProc = FALSE;
 1676              		.loc 1 526 0
 1677 08a2 1D70     		strb	r5, [r3]
 527:bt.c          ****   osSemGive(&recvSem, &error);
 1678              		.loc 1 527 0
 1679 08a4 4030     		add	r0, r0, #64
 1680 08a6 A731     		add	r1, r1, #167
 533:bt.c          ****   btSetMode(btCommandMode);
 1681              		.loc 1 533 0
 1682 08a8 5E34     		add	r4, r4, #94
 527:bt.c          ****   osSemGive(&recvSem, &error);
 1683              		.loc 1 527 0
 1684 08aa FFF7FEFF 		bl	osSemGive
 533:bt.c          ****   btSetMode(btCommandMode);
 1685              		.loc 1 533 0
 1686 08ae 2078     		ldrb	r0, [r4]
 1687 08b0 FFF792FC 		bl	btSetMode
 1688 08b4 2C1C     		mov	r4, r5
 1689 08b6 8CE3     		b	.L93
 1690              	.L89:
 1691              	.LBE32:
 1692              	.LBE31:
 1693              	.LBB39:
 1694              	.LBB40:
 779:bt.c          ****   lcdRect(1, 16, 126, 84, BT_BACKGROUND_COLOR);
 1695              		.loc 1 779 0
 1696 08b8 7E22     		mov	r2, #126
 1697 08ba 5423     		mov	r3, #84
 1698 08bc 0120     		mov	r0, #1
 1699 08be 1021     		mov	r1, #16
ARM GAS  C:\Users\KOZLOV~1\AppData\Local\Temp\cc7z5Qbi.s 			page 56


 1700 08c0 0094     		str	r4, [sp]
 1701 08c2 FFF7FEFF 		bl	lcdRect
 780:bt.c          ****   lcdGotoxy(34,20);
 1702              		.loc 1 780 0
 1703 08c6 2220     		mov	r0, #34
 1704 08c8 1421     		mov	r1, #20
 1705 08ca FFF7FEFF 		bl	lcdGotoxy
 781:bt.c          ****   lcdColor(BT_BACKGROUND_COLOR,0xfd);
 1706              		.loc 1 781 0
 1707 08ce FD21     		mov	r1, #253
 1708 08d0 0120     		mov	r0, #1
 1709 08d2 FFF7FEFF 		bl	lcdColor
 782:bt.c          ****   lcdPuts("Set name:");
 1710              		.loc 1 782 0
 1711 08d6 9B48     		ldr	r0, .L262+56
 1712 08d8 FFF7FEFF 		bl	lcdPuts
 783:bt.c          ****   lcdGotoxy(6,34);
 1713              		.loc 1 783 0
 1714 08dc 2221     		mov	r1, #34
 1715 08de 0620     		mov	r0, #6
 1716 08e0 FFF7FEFF 		bl	lcdGotoxy
 784:bt.c          ****   lcdPuts("Move cursor and");
 1717              		.loc 1 784 0
 1718 08e4 9848     		ldr	r0, .L262+60
 1719 08e6 FFF7FEFF 		bl	lcdPuts
 785:bt.c          ****   lcdGotoxy(6,48);
 1720              		.loc 1 785 0
 1721 08ea 3021     		mov	r1, #48
 1722 08ec 0620     		mov	r0, #6
 1723 08ee FFF7FEFF 		bl	lcdGotoxy
 786:bt.c          ****   lcdPuts("set each char.");
 1724              		.loc 1 786 0
 1725 08f2 9648     		ldr	r0, .L262+64
 1726 08f4 FFF7FEFF 		bl	lcdPuts
 787:bt.c          ****   lcdGotoxy(6,62);
 1727              		.loc 1 787 0
 1728 08f8 3E21     		mov	r1, #62
 1729 08fa 0620     		mov	r0, #6
 1730 08fc FFF7FEFF 		bl	lcdGotoxy
 788:bt.c          ****   lcdPuts("Exit with c-key");
 1731              		.loc 1 788 0
 1732 0900 9348     		ldr	r0, .L262+68
 1733 0902 FFF7FEFF 		bl	lcdPuts
 791:bt.c          ****   stopRecvProc = TRUE;
 1734              		.loc 1 791 0
 1735 0906 8E4D     		ldr	r5, .L262+52
 1736 0908 2B1C     		mov	r3, r5
 1737 090a 5C33     		add	r3, r3, #92
 1738 090c 1C70     		strb	r4, [r3]
 796:bt.c          ****   osSleep(100);
 1739              		.loc 1 796 0
 1740 090e 6420     		mov	r0, #100
 1741 0910 FFF7FEFF 		bl	osSleep
 797:bt.c          ****   uart1SendString("+++");
 1742              		.loc 1 797 0
 1743 0914 8F48     		ldr	r0, .L262+72
 1744 0916 FFF7FEFF 		bl	uart1SendString
ARM GAS  C:\Users\KOZLOV~1\AppData\Local\Temp\cc7z5Qbi.s 			page 57


 798:bt.c          ****   osSleep(100);
 1745              		.loc 1 798 0
 1746 091a 6420     		mov	r0, #100
 1747 091c FFF7FEFF 		bl	osSleep
 799:bt.c          ****   uart1SendString("AT+BTLNM\r");
 1748              		.loc 1 799 0
 1749 0920 8D48     		ldr	r0, .L262+76
 1750 0922 FFF7FEFF 		bl	uart1SendString
 804:bt.c          ****   timeStamp = ms;
 1751              		.loc 1 804 0
 1752 0926 7F4B     		ldr	r3, .L262+24
 1753 0928 1F68     		ldr	r7, [r3]
 1754              	.LVL99:
 806:bt.c          ****   recvPos = 0;
 1755              		.loc 1 806 0
 1756 092a 6B46     		mov	r3, sp
 1757 092c 0022     		mov	r2, #0
 1758 092e A633     		add	r3, r3, #166
 1759 0930 1A70     		strb	r2, [r3]
 823:bt.c          ****             localName[recvPos] = ' ';
 1760              		.loc 1 823 0
 1761 0932 6E1C     		add	r6, r5, #1
 1762 0934 5FE0     		b	.L238
 1763              	.LVL100:
 1764              	.L150:
 810:bt.c          ****     if (uart1GetChar(&rxChar) == TRUE)
 1765              		.loc 1 810 0
 1766 0936 6C46     		mov	r4, sp
 1767 0938 A734     		add	r4, r4, #167
 1768 093a 201C     		mov	r0, r4
 1769 093c FFF7FEFF 		bl	uart1GetChar
 1770 0940 0128     		cmp	r0, #1
 1771 0942 58D1     		bne	.L238
 812:bt.c          ****       printf("%c", rxChar);
 1772              		.loc 1 812 0
 1773 0944 2178     		ldrb	r1, [r4]
 1774              	.LVL101:
 1775 0946 8548     		ldr	r0, .L262+80
 1776 0948 FFF7FEFF 		bl	simplePrintf
 1777 094c 6B46     		mov	r3, sp
 1778              	.LVL102:
 814:bt.c          ****       if (rxChar == 0x0a)
 1779              		.loc 1 814 0
 1780 094e 2178     		ldrb	r1, [r4]
 1781 0950 A633     		add	r3, r3, #166
 816:bt.c          ****         if (recvPos > 0)
 1782              		.loc 1 816 0
 1783 0952 1A78     		ldrb	r2, [r3]
 1784              	.LVL103:
 814:bt.c          ****       if (rxChar == 0x0a)
 1785              		.loc 1 814 0
 1786 0954 0A29     		cmp	r1, #10
 1787 0956 45D1     		bne	.L141
 816:bt.c          ****         if (recvPos > 0)
 1788              		.loc 1 816 0
 1789 0958 002A     		cmp	r2, #0
 1790 095a 05D0     		beq	.L142
ARM GAS  C:\Users\KOZLOV~1\AppData\Local\Temp\cc7z5Qbi.s 			page 58


 817:bt.c          ****           recvBuf[recvPos-1] = '\0';
 1791              		.loc 1 817 0
 1792 095c 1B78     		ldrb	r3, [r3]
 1793              	.LVL104:
 1794 095e 2AAC     		add	r4, sp, #168
 1795 0960 E318     		add	r3, r4, r3
 1796              	.LVL105:
 1797 0962 553B     		sub	r3, r3, #85
 1798 0964 0022     		mov	r2, #0
 1799 0966 1A70     		strb	r2, [r3]
 1800              	.LVL106:
 1801              	.L142:
 820:bt.c          ****         if ((memcmp(recvBuf, "+BTLNM: \"", 9) == 0) && (recvPos < 27))
 1802              		.loc 1 820 0
 1803 0968 0922     		mov	r2, #9
 1804              	.LVL107:
 1805 096a 15A8     		add	r0, sp, #84
 1806 096c 7C49     		ldr	r1, .L262+84
 1807 096e FFF7FEFF 		bl	memcmp
 1808 0972 0022     		mov	r2, #0
 1809 0974 9042     		cmp	r0, r2
 1810 0976 2ED1     		bne	.L143
 1811 0978 6B46     		mov	r3, sp
 1812 097a A633     		add	r3, r3, #166
 1813 097c 1978     		ldrb	r1, [r3]
 1814              	.LVL108:
 1815 097e 021C     		mov	r2, r0
 1816 0980 1A29     		cmp	r1, #26
 1817 0982 28D8     		bhi	.L143
 822:bt.c          ****           for(recvPos=0; recvPos<16; recvPos++)
 1818              		.loc 1 822 0
 1819 0984 1870     		strb	r0, [r3]
 823:bt.c          ****             localName[recvPos] = ' ';
 1820              		.loc 1 823 0
 1821 0986 2021     		mov	r1, #32
 1822 0988 07E0     		b	.L144
 1823              	.LVL109:
 1824              	.L145:
 1825 098a 1A78     		ldrb	r2, [r3]
 1826 098c B218     		add	r2, r6, r2
 1827              	.LVL110:
 1828 098e D177     		strb	r1, [r2, #31]
 822:bt.c          ****           for(recvPos=0; recvPos<16; recvPos++)
 1829              		.loc 1 822 0
 1830 0990 1A78     		ldrb	r2, [r3]
 1831              	.LVL111:
 1832 0992 0132     		add	r2, r2, #1
 1833              	.LVL112:
 1834 0994 1206     		lsl	r2, r2, #24
 1835 0996 120E     		lsr	r2, r2, #24
 1836              	.LVL113:
 1837 0998 1A70     		strb	r2, [r3]
 1838              	.L144:
 1839 099a 1A78     		ldrb	r2, [r3]
 1840 099c 0F2A     		cmp	r2, #15
 1841 099e F4D9     		bls	.L145
 824:bt.c          ****           localName[16] = '\0';
ARM GAS  C:\Users\KOZLOV~1\AppData\Local\Temp\cc7z5Qbi.s 			page 59


 1842              		.loc 1 824 0
 1843 09a0 2A1C     		mov	r2, r5
 1844              	.LVL114:
 1845 09a2 3032     		add	r2, r2, #48
 1846 09a4 0021     		mov	r1, #0
 1847 09a6 1170     		strb	r1, [r2]
 826:bt.c          ****           recvPos = 9;
 1848              		.loc 1 826 0
 1849 09a8 0921     		mov	r1, #9
 1850 09aa 1970     		strb	r1, [r3]
 1851              	.LVL115:
 829:bt.c          ****             localName[recvPos-9] = recvBuf[recvPos];
 1852              		.loc 1 829 0
 1853 09ac 101C     		mov	r0, r2
 827:bt.c          ****           while(recvBuf[recvPos] != '\"')
 1854              		.loc 1 827 0
 1855 09ae 6B46     		mov	r3, sp
 1856 09b0 A633     		add	r3, r3, #166
 829:bt.c          ****             localName[recvPos-9] = recvBuf[recvPos];
 1857              		.loc 1 829 0
 1858 09b2 2F38     		sub	r0, r0, #47
 1859 09b4 09E0     		b	.L146
 1860              	.LVL116:
 1861              	.L147:
 1862 09b6 1A78     		ldrb	r2, [r3]
 1863              	.LVL117:
 1864 09b8 1C78     		ldrb	r4, [r3]
 1865              	.LVL118:
 1866 09ba 095D     		ldrb	r1, [r1, r4]
 1867 09bc 8218     		add	r2, r0, r2
 1868 09be 9175     		strb	r1, [r2, #22]
 830:bt.c          ****             recvPos++;
 1869              		.loc 1 830 0
 1870 09c0 1A78     		ldrb	r2, [r3]
 1871              	.LVL119:
 1872 09c2 0132     		add	r2, r2, #1
 1873              	.LVL120:
 1874 09c4 1206     		lsl	r2, r2, #24
 1875 09c6 120E     		lsr	r2, r2, #24
 1876              	.LVL121:
 1877 09c8 1A70     		strb	r2, [r3]
 1878              	.L146:
 827:bt.c          ****           while(recvBuf[recvPos] != '\"')
 1879              		.loc 1 827 0
 1880 09ca 1A78     		ldrb	r2, [r3]
 1881 09cc 15A9     		add	r1, sp, #84
 1882 09ce 8A5C     		ldrb	r2, [r1, r2]
 1883              	.LVL122:
 1884 09d0 222A     		cmp	r2, #34
 1885 09d2 F0D1     		bne	.L147
 832:bt.c          ****           done = TRUE;
 1886              		.loc 1 832 0
 1887 09d4 0122     		mov	r2, #1
 1888              	.LVL123:
 1889              	.L143:
 834:bt.c          ****         recvPos = 0;
 1890              		.loc 1 834 0
ARM GAS  C:\Users\KOZLOV~1\AppData\Local\Temp\cc7z5Qbi.s 			page 60


 1891 09d6 6B46     		mov	r3, sp
 1892 09d8 0021     		mov	r1, #0
 1893              	.LVL124:
 1894 09da A633     		add	r3, r3, #166
 1895 09dc 1970     		strb	r1, [r3]
 1896              	.LVL125:
 807:bt.c          ****   while((done == FALSE) && ((ms - timeStamp) < 200))
 1897              		.loc 1 807 0
 1898 09de 8A42     		cmp	r2, r1
 1899 09e0 09D0     		beq	.L238
 1900 09e2 0DE0     		b	.L149
 1901              	.LVL126:
 1902              	.L141:
 836:bt.c          ****       else if (recvPos < RECV_BUF_LEN)
 1903              		.loc 1 836 0
 1904 09e4 1F2A     		cmp	r2, #31
 1905 09e6 06D8     		bhi	.L238
 837:bt.c          ****         recvBuf[recvPos++] = rxChar;
 1906              		.loc 1 837 0
 1907 09e8 1A78     		ldrb	r2, [r3]
 1908 09ea 15A8     		add	r0, sp, #84
 1909 09ec 8154     		strb	r1, [r0, r2]
 1910 09ee 0132     		add	r2, r2, #1
 1911              	.LVL127:
 1912 09f0 1206     		lsl	r2, r2, #24
 1913 09f2 120E     		lsr	r2, r2, #24
 1914              	.LVL128:
 1915 09f4 1A70     		strb	r2, [r3]
 1916              	.L238:
 807:bt.c          ****   while((done == FALSE) && ((ms - timeStamp) < 200))
 1917              		.loc 1 807 0
 1918 09f6 4B4B     		ldr	r3, .L262+24
 1919 09f8 1B68     		ldr	r3, [r3]
 1920 09fa DB1B     		sub	r3, r3, r7
 1921 09fc C72B     		cmp	r3, #199
 1922 09fe 9AD9     		bls	.L150
 1923              	.L149:
 842:bt.c          ****   stopRecvProc = FALSE;
 1924              		.loc 1 842 0
 1925 0a00 4F4C     		ldr	r4, .L262+52
 1926 0a02 231C     		mov	r3, r4
 1927 0a04 5C33     		add	r3, r3, #92
 1928 0a06 0025     		mov	r5, #0
 843:bt.c          ****   osSemGive(&recvSem, &error);
 1929              		.loc 1 843 0
 1930 0a08 201C     		mov	r0, r4
 1931 0a0a 4030     		add	r0, r0, #64
 842:bt.c          ****   stopRecvProc = FALSE;
 1932              		.loc 1 842 0
 1933 0a0c 1D70     		strb	r5, [r3]
 843:bt.c          ****   osSemGive(&recvSem, &error);
 1934              		.loc 1 843 0
 1935 0a0e 28A9     		add	r1, sp, #160
 1936 0a10 FFF7FEFF 		bl	osSemGive
 1937              	.LVL129:
 850:bt.c          ****   drawBtName(cursorPos);
 1938              		.loc 1 850 0
ARM GAS  C:\Users\KOZLOV~1\AppData\Local\Temp\cc7z5Qbi.s 			page 61


 1939 0a14 281C     		mov	r0, r5
 1940 0a16 FFF72DFB 		bl	drawBtName
 1941              	.LVL130:
 1942              	.L163:
 853:bt.c          ****     anyKey = checkKey();
 1943              		.loc 1 853 0
 1944 0a1a FFF7FEFF 		bl	checkKey
 1945 0a1e 041C     		mov	r4, r0
 854:bt.c          ****     if (anyKey != KEY_NOTHING)
 1946              		.loc 1 854 0
 1947 0a20 031E     		sub	r3, r0, #0
 1948 0a22 00D1     		bne	.LCB1777
 1949 0a24 BAE0     		b	.L151	@long jump
 1950              	.LCB1777:
 857:bt.c          ****       if (anyKey == KEY_CENTER)
 1951              		.loc 1 857 0
 1952 0a26 1028     		cmp	r0, #16
 1953 0a28 4DD1     		bne	.L152
 1954              	.LBB41:
 861:bt.c          ****         menu.xPos = 5;
 1955              		.loc 1 861 0
 1956 0a2a 09AB     		add	r3, sp, #36
 868:bt.c          ****         menu.headerTextXpos = 42;
 1957              		.loc 1 868 0
 1958 0a2c 2A21     		mov	r1, #42
 1959 0a2e 1973     		strb	r1, [r3, #12]
 869:bt.c          ****         menu.pChoice[0] = "Cancel";
 1960              		.loc 1 869 0
 1961 0a30 4C49     		ldr	r1, .L262+88
 861:bt.c          ****         menu.xPos = 5;
 1962              		.loc 1 861 0
 1963 0a32 0522     		mov	r2, #5
 869:bt.c          ****         menu.pChoice[0] = "Cancel";
 1964              		.loc 1 869 0
 1965 0a34 0D91     		str	r1, [sp, #52]
 870:bt.c          ****         menu.pChoice[1] = "Store new name";
 1966              		.loc 1 870 0
 1967 0a36 4C49     		ldr	r1, .L262+92
 861:bt.c          ****         menu.xPos = 5;
 1968              		.loc 1 861 0
 1969 0a38 1A70     		strb	r2, [r3]
 862:bt.c          ****         menu.yPos = 35;
 1970              		.loc 1 862 0
 1971 0a3a 2322     		mov	r2, #35
 1972 0a3c 5A70     		strb	r2, [r3, #1]
 870:bt.c          ****         menu.pChoice[1] = "Store new name";
 1973              		.loc 1 870 0
 1974 0a3e 0E91     		str	r1, [sp, #56]
 863:bt.c          ****         menu.xLen = 6+(14*8);
 1975              		.loc 1 863 0
 1976 0a40 7622     		mov	r2, #118
 871:bt.c          ****         menu.bgColor       = 0;
 1977              		.loc 1 871 0
 1978 0a42 13A9     		add	r1, sp, #76
 872:bt.c          ****         menu.borderColor   = 0x6d;
 1979              		.loc 1 872 0
 1980 0a44 6D20     		mov	r0, #109
ARM GAS  C:\Users\KOZLOV~1\AppData\Local\Temp\cc7z5Qbi.s 			page 62


 863:bt.c          ****         menu.xLen = 6+(14*8);
 1981              		.loc 1 863 0
 1982 0a46 9A70     		strb	r2, [r3, #2]
 867:bt.c          ****         menu.pHeaderText = "Exit";
 1983              		.loc 1 867 0
 1984 0a48 484E     		ldr	r6, .L262+96
 872:bt.c          ****         menu.borderColor   = 0x6d;
 1985              		.loc 1 872 0
 1986 0a4a 4870     		strb	r0, [r1, #1]
 866:bt.c          ****         menu.initialChoice = 0;
 1987              		.loc 1 866 0
 1988 0a4c 0024     		mov	r4, #0
 864:bt.c          ****         menu.yLen = 3*14+5;
 1989              		.loc 1 864 0
 1990 0a4e 2F22     		mov	r2, #47
 874:bt.c          ****         menu.choicesColor  = 0xfd;
 1991              		.loc 1 874 0
 1992 0a50 FD20     		mov	r0, #253
 864:bt.c          ****         menu.yLen = 3*14+5;
 1993              		.loc 1 864 0
 1994 0a52 DA70     		strb	r2, [r3, #3]
 871:bt.c          ****         menu.bgColor       = 0;
 1995              		.loc 1 871 0
 1996 0a54 0C70     		strb	r4, [r1]
 865:bt.c          ****         menu.noOfChoices = 2;
 1997              		.loc 1 865 0
 1998 0a56 0222     		mov	r2, #2
 874:bt.c          ****         menu.choicesColor  = 0xfd;
 1999              		.loc 1 874 0
 2000 0a58 C870     		strb	r0, [r1, #3]
 873:bt.c          ****         menu.headerColor   = 0;
 2001              		.loc 1 873 0
 2002 0a5a 8C70     		strb	r4, [r1, #2]
 875:bt.c          ****         menu.selectedColor = 0xe0;
 2003              		.loc 1 875 0
 2004 0a5c E020     		mov	r0, #224
 2005 0a5e 14A9     		add	r1, sp, #80
 865:bt.c          ****         menu.noOfChoices = 2;
 2006              		.loc 1 865 0
 2007 0a60 1A71     		strb	r2, [r3, #4]
 866:bt.c          ****         menu.initialChoice = 0;
 2008              		.loc 1 866 0
 2009 0a62 5C71     		strb	r4, [r3, #5]
 875:bt.c          ****         menu.selectedColor = 0xe0;
 2010              		.loc 1 875 0
 2011 0a64 0870     		strb	r0, [r1]
 867:bt.c          ****         menu.pHeaderText = "Exit";
 2012              		.loc 1 867 0
 2013 0a66 0B96     		str	r6, [sp, #44]
 877:bt.c          ****         switch(drawMenu(menu))
 2014              		.loc 1 877 0
 2015 0a68 0DA9     		add	r1, sp, #52
 2016 0a6a 6846     		mov	r0, sp
 867:bt.c          ****         menu.pHeaderText = "Exit";
 2017              		.loc 1 867 0
 2018 0a6c B446     		mov	ip, r6
 877:bt.c          ****         switch(drawMenu(menu))
ARM GAS  C:\Users\KOZLOV~1\AppData\Local\Temp\cc7z5Qbi.s 			page 63


 2019              		.loc 1 877 0
 2020 0a6e C4C9     		ldmia	r1!, {r2, r6, r7}
 2021 0a70 C4C0     		stmia	r0!, {r2, r6, r7}
 2022 0a72 C4C9     		ldmia	r1!, {r2, r6, r7}
 2023 0a74 C4C0     		stmia	r0!, {r2, r6, r7}
 2024 0a76 44C9     		ldmia	r1!, {r2, r6}
 2025 0a78 44C0     		stmia	r0!, {r2, r6}
 2026 0a7a 6246     		mov	r2, ip
 2027 0a7c 0998     		ldr	r0, [sp, #36]
 2028 0a7e 0A99     		ldr	r1, [sp, #40]
 2029 0a80 0C9B     		ldr	r3, [sp, #48]
 2030 0a82 FFF7FEFF 		bl	drawMenu
 2031 0a86 0128     		cmp	r0, #1
 2032 0a88 00D0     		beq	.LCB1824
 2033 0a8a 86E0     		b	.L240	@long jump
 2034              	.LCB1824:
 2035 0a8c 2C4E     		ldr	r6, .L262+52
 2036 0a8e 331C     		mov	r3, r6
1165:bt.c          **** handleBt(void)
 2037              		.loc 1 1165 0
 2038 0a90 321C     		mov	r2, r6
 877:bt.c          ****         switch(drawMenu(menu))
 2039              		.loc 1 877 0
 2040 0a92 2F33     		add	r3, r3, #47
1165:bt.c          **** handleBt(void)
 2041              		.loc 1 1165 0
 2042 0a94 2032     		add	r2, r2, #32
 2043              	.L155:
 886:bt.c          ****               if (localName[i] == ' ')
 2044              		.loc 1 886 0
 2045 0a96 1978     		ldrb	r1, [r3]
 2046 0a98 2029     		cmp	r1, #32
 2047 0a9a 03D1     		bne	.L154
 887:bt.c          ****                 localName[i] = '\0';
 2048              		.loc 1 887 0
 2049 0a9c 1C70     		strb	r4, [r3]
 2050 0a9e 013B     		sub	r3, r3, #1
 884:bt.c          ****             for(i=15; i>0; i--)
 2051              		.loc 1 884 0
 2052 0aa0 9342     		cmp	r3, r2
 2053 0aa2 F8D1     		bne	.L155
 2054              	.LVL131:
 2055              	.L154:
 895:bt.c          ****             uart1SendString("AT+BTLNM=\"");
 2056              		.loc 1 895 0
 2057 0aa4 3248     		ldr	r0, .L262+100
 2058 0aa6 FFF7FEFF 		bl	uart1SendString
 896:bt.c          ****             uart1SendString(localName);
 2059              		.loc 1 896 0
 2060 0aaa 301C     		mov	r0, r6
 2061 0aac 2030     		add	r0, r0, #32
 2062 0aae FFF7FEFF 		bl	uart1SendString
 897:bt.c          ****             uart1SendString("\"\r");
 2063              		.loc 1 897 0
 2064 0ab2 3048     		ldr	r0, .L262+104
 2065 0ab4 FFF7FEFF 		bl	uart1SendString
 898:bt.c          ****             osSleep(100);
ARM GAS  C:\Users\KOZLOV~1\AppData\Local\Temp\cc7z5Qbi.s 			page 64


 2066              		.loc 1 898 0
 2067 0ab8 6420     		mov	r0, #100
 2068 0aba FFF7FEFF 		bl	osSleep
 903:bt.c          ****             uart1SendString("AT+BTFLS\r");
 2069              		.loc 1 903 0
 2070 0abe 2E48     		ldr	r0, .L262+108
 2071 0ac0 FFF7FEFF 		bl	uart1SendString
 2072 0ac4 69E0     		b	.L240
 2073              	.L152:
 2074              	.LBE41:
 911:bt.c          ****       else if (anyKey == KEY_UP)
 2075              		.loc 1 911 0
 2076 0ac6 012B     		cmp	r3, #1
 2077 0ac8 0BD1     		bne	.L156
 913:bt.c          ****         localName[cursorPos]++;
 2078              		.loc 1 913 0
 2079 0aca 1D4A     		ldr	r2, .L262+52
 2080 0acc 0132     		add	r2, r2, #1
 2081 0ace 5219     		add	r2, r2, r5
 2082 0ad0 D37F     		ldrb	r3, [r2, #31]
 2083 0ad2 0133     		add	r3, r3, #1
 2084 0ad4 1B06     		lsl	r3, r3, #24
 2085 0ad6 1B0E     		lsr	r3, r3, #24
 2086 0ad8 D377     		strb	r3, [r2, #31]
 914:bt.c          ****         if (localName[cursorPos] > 127)
 2087              		.loc 1 914 0
 2088 0ada 1B06     		lsl	r3, r3, #24
 2089 0adc 58D5     		bpl	.L162
 915:bt.c          ****           localName[cursorPos] = ' ';
 2090              		.loc 1 915 0
 2091 0ade 2023     		mov	r3, #32
 2092 0ae0 0BE0     		b	.L253
 2093              	.L156:
 920:bt.c          ****       else if (anyKey == KEY_DOWN)
 2094              		.loc 1 920 0
 2095 0ae2 042B     		cmp	r3, #4
 2096 0ae4 0BD1     		bne	.L158
 922:bt.c          ****         localName[cursorPos]--;
 2097              		.loc 1 922 0
 2098 0ae6 254F     		ldr	r7, .L262+112
 2099 0ae8 7A19     		add	r2, r7, r5
 2100 0aea D37F     		ldrb	r3, [r2, #31]
 2101 0aec 013B     		sub	r3, r3, #1
 2102 0aee 1B06     		lsl	r3, r3, #24
 2103 0af0 1B0E     		lsr	r3, r3, #24
 2104 0af2 D377     		strb	r3, [r2, #31]
 923:bt.c          ****         if (localName[cursorPos] < ' ')
 2105              		.loc 1 923 0
 2106 0af4 1F2B     		cmp	r3, #31
 2107 0af6 4BD8     		bhi	.L162
 924:bt.c          ****           localName[cursorPos] = 127;
 2108              		.loc 1 924 0
 2109 0af8 7F23     		mov	r3, #127
 2110              	.L253:
 2111 0afa D377     		strb	r3, [r2, #31]
 2112 0afc 48E0     		b	.L162
 2113              	.L158:
ARM GAS  C:\Users\KOZLOV~1\AppData\Local\Temp\cc7z5Qbi.s 			page 65


 929:bt.c          ****       else if (anyKey == KEY_LEFT)
 2114              		.loc 1 929 0
 2115 0afe 082B     		cmp	r3, #8
 2116 0b00 3ED1     		bne	.L160
 931:bt.c          ****         if (cursorPos > 0)
 2117              		.loc 1 931 0
 2118 0b02 002D     		cmp	r5, #0
 2119 0b04 44D0     		beq	.L162
 932:bt.c          ****           cursorPos--;
 2120              		.loc 1 932 0
 2121 0b06 013D     		sub	r5, r5, #1
 2122 0b08 40E0     		b	.L252
 2123              	.L263:
 2124 0b0a C046     		.align	2
 2125              	.L262:
 2126 0b0c 40010000 		.word	.LC102
 2127 0b10 46010000 		.word	.LC104
 2128 0b14 4A010000 		.word	.LC106
 2129 0b18 4E010000 		.word	.LC108
 2130 0b1c 52010000 		.word	.LC110
 2131 0b20 56010000 		.word	.LC112
 2132 0b24 00000000 		.word	ms
 2133 0b28 6F170000 		.word	5999
 2134 0b2c 5A010000 		.word	.LC114
 2135 0b30 61010000 		.word	.LC116
 2136 0b34 6B010000 		.word	.LC118
 2137 0b38 79010000 		.word	.LC120
 2138 0b3c 83010000 		.word	.LC122
 2139 0b40 80000000 		.word	.LANCHOR1
 2140 0b44 93010000 		.word	.LC124
 2141 0b48 9D010000 		.word	.LC126
 2142 0b4c AD010000 		.word	.LC128
 2143 0b50 BC010000 		.word	.LC130
 2144 0b54 02000000 		.word	.LC9
 2145 0b58 0B000000 		.word	.LC13
 2146 0b5c 37000000 		.word	.LC22
 2147 0b60 CC010000 		.word	.LC133
 2148 0b64 DB010000 		.word	.LC137
 2149 0b68 E2010000 		.word	.LC139
 2150 0b6c D6010000 		.word	.LC135
 2151 0b70 F1010000 		.word	.LC141
 2152 0b74 FC010000 		.word	.LC143
 2153 0b78 FF010000 		.word	.LC145
 2154 0b7c 81000000 		.word	.LANCHOR1+1
 2155              	.L160:
 937:bt.c          ****       else if (anyKey == KEY_RIGHT)
 2156              		.loc 1 937 0
 2157 0b80 0024     		mov	r4, #0
 2158 0b82 022B     		cmp	r3, #2
 2159 0b84 0AD1     		bne	.L151
 939:bt.c          ****         if (cursorPos < 15)
 2160              		.loc 1 939 0
 2161 0b86 0E2D     		cmp	r5, #14
 2162 0b88 02D8     		bhi	.L162
 940:bt.c          ****           cursorPos++;
 2163              		.loc 1 940 0
 2164 0b8a 0135     		add	r5, r5, #1
ARM GAS  C:\Users\KOZLOV~1\AppData\Local\Temp\cc7z5Qbi.s 			page 66


 2165              	.L252:
 2166 0b8c 2D06     		lsl	r5, r5, #24
 2167 0b8e 2D0E     		lsr	r5, r5, #24
 2168              	.LVL132:
 2169              	.L162:
 941:bt.c          ****         drawBtName(cursorPos);
 2170              		.loc 1 941 0
 2171 0b90 281C     		mov	r0, r5
 2172 0b92 FFF76FFA 		bl	drawBtName
 2173 0b96 0024     		mov	r4, #0
 2174 0b98 00E0     		b	.L151
 2175              	.LVL133:
 2176              	.L240:
 2177              	.LBB42:
 907:bt.c          ****         done = TRUE;
 2178              		.loc 1 907 0
 2179 0b9a 0124     		mov	r4, #1
 2180              	.L151:
 2181              	.LVL134:
 2182              	.LBE42:
 944:bt.c          ****     osSleep(1);
 2183              		.loc 1 944 0
 2184 0b9c 0120     		mov	r0, #1
 2185 0b9e FFF7FEFF 		bl	osSleep
 851:bt.c          ****   while(done == FALSE)
 2186              		.loc 1 851 0
 2187 0ba2 002C     		cmp	r4, #0
 2188 0ba4 00D1     		bne	.LCB1974
 2189 0ba6 38E7     		b	.L163	@long jump
 2190              	.LCB1974:
 2191 0ba8 04E1     		b	.L255
 2192              	.LVL135:
 2193              	.L90:
 2194              	.LBE40:
 2195              	.LBE39:
 2196              	.LBB43:
 2197              	.LBB44:
 580:bt.c          ****   lcdRect(1, 16, 126, 84, BT_BACKGROUND_COLOR);
 2198              		.loc 1 580 0
 2199 0baa 7E22     		mov	r2, #126
 2200 0bac 5423     		mov	r3, #84
 2201 0bae 0120     		mov	r0, #1
 2202 0bb0 1021     		mov	r1, #16
 2203 0bb2 0094     		str	r4, [sp]
 2204 0bb4 FFF7FEFF 		bl	lcdRect
 581:bt.c          ****   lcdGotoxy(18,20);
 2205              		.loc 1 581 0
 2206 0bb8 1220     		mov	r0, #18
 2207 0bba 1421     		mov	r1, #20
 2208 0bbc FFF7FEFF 		bl	lcdGotoxy
 582:bt.c          ****   lcdColor(BT_BACKGROUND_COLOR,0xfd);
 2209              		.loc 1 582 0
 2210 0bc0 FD21     		mov	r1, #253
 2211 0bc2 0120     		mov	r0, #1
 2212 0bc4 FFF7FEFF 		bl	lcdColor
 583:bt.c          ****   lcdPuts("Set address:");
 2213              		.loc 1 583 0
ARM GAS  C:\Users\KOZLOV~1\AppData\Local\Temp\cc7z5Qbi.s 			page 67


 2214 0bc8 D748     		ldr	r0, .L264
 2215 0bca FFF7FEFF 		bl	lcdPuts
 584:bt.c          ****   lcdGotoxy(6,34);
 2216              		.loc 1 584 0
 2217 0bce 2221     		mov	r1, #34
 2218 0bd0 0620     		mov	r0, #6
 2219 0bd2 FFF7FEFF 		bl	lcdGotoxy
 585:bt.c          ****   lcdPuts("Move cursor and");
 2220              		.loc 1 585 0
 2221 0bd6 D548     		ldr	r0, .L264+4
 2222 0bd8 FFF7FEFF 		bl	lcdPuts
 586:bt.c          ****   lcdGotoxy(6,48);
 2223              		.loc 1 586 0
 2224 0bdc 3021     		mov	r1, #48
 2225 0bde 0620     		mov	r0, #6
 2226 0be0 FFF7FEFF 		bl	lcdGotoxy
 587:bt.c          ****   lcdPuts("set each char.");
 2227              		.loc 1 587 0
 2228 0be4 D248     		ldr	r0, .L264+8
 2229 0be6 FFF7FEFF 		bl	lcdPuts
 588:bt.c          ****   lcdGotoxy(6,62);
 2230              		.loc 1 588 0
 2231 0bea 3E21     		mov	r1, #62
 2232 0bec 0620     		mov	r0, #6
 2233 0bee FFF7FEFF 		bl	lcdGotoxy
 589:bt.c          ****   lcdPuts("Exit with c-key");
 2234              		.loc 1 589 0
 2235 0bf2 D048     		ldr	r0, .L264+12
 2236 0bf4 FFF7FEFF 		bl	lcdPuts
 592:bt.c          ****   stopRecvProc = TRUE;
 2237              		.loc 1 592 0
 2238 0bf8 CF4B     		ldr	r3, .L264+16
 2239 0bfa 5C33     		add	r3, r3, #92
 2240 0bfc 1C70     		strb	r4, [r3]
 597:bt.c          ****   osSleep(100);
 2241              		.loc 1 597 0
 2242 0bfe 6420     		mov	r0, #100
 2243 0c00 FFF7FEFF 		bl	osSleep
 598:bt.c          ****   uart1SendString("+++");
 2244              		.loc 1 598 0
 2245 0c04 CD48     		ldr	r0, .L264+20
 2246 0c06 FFF7FEFF 		bl	uart1SendString
 599:bt.c          ****   osSleep(100);
 2247              		.loc 1 599 0
 2248 0c0a 6420     		mov	r0, #100
 2249 0c0c FFF7FEFF 		bl	osSleep
 600:bt.c          ****   uart1SendString("AT+BTBDA\r");
 2250              		.loc 1 600 0
 2251 0c10 CB48     		ldr	r0, .L264+24
 2252 0c12 FFF7FEFF 		bl	uart1SendString
 605:bt.c          ****   timeStamp = ms;
 2253              		.loc 1 605 0
 2254 0c16 CB4E     		ldr	r6, .L264+28
 2255 0c18 3468     		ldr	r4, [r6]
 611:bt.c          ****     if (uart1GetChar(&rxChar) == TRUE)
 2256              		.loc 1 611 0
 2257 0c1a 28AD     		add	r5, sp, #160
ARM GAS  C:\Users\KOZLOV~1\AppData\Local\Temp\cc7z5Qbi.s 			page 68


 605:bt.c          ****   timeStamp = ms;
 2258              		.loc 1 605 0
 2259 0c1c 0894     		str	r4, [sp, #32]
 2260              	.LVL136:
 607:bt.c          ****   recvPos = 0;
 2261              		.loc 1 607 0
 2262 0c1e 0024     		mov	r4, #0
 2263              	.LVL137:
 2264 0c20 31E0     		b	.L239
 2265              	.LVL138:
 2266              	.L171:
 611:bt.c          ****     if (uart1GetChar(&rxChar) == TRUE)
 2267              		.loc 1 611 0
 2268 0c22 281C     		mov	r0, r5
 2269 0c24 FFF7FEFF 		bl	uart1GetChar
 2270 0c28 0128     		cmp	r0, #1
 2271 0c2a 2CD1     		bne	.L239
 613:bt.c          ****       printf("%c", rxChar);
 2272              		.loc 1 613 0
 2273 0c2c 2978     		ldrb	r1, [r5]
 2274              	.LVL139:
 2275 0c2e C648     		ldr	r0, .L264+32
 2276 0c30 FFF7FEFF 		bl	simplePrintf
 2277              	.LVL140:
 615:bt.c          ****       if (rxChar == 0x0a)
 2278              		.loc 1 615 0
 2279 0c34 2B78     		ldrb	r3, [r5]
 2280 0c36 0A2B     		cmp	r3, #10
 2281 0c38 1CD1     		bne	.L166
 617:bt.c          ****         if (recvPos > 0)
 2282              		.loc 1 617 0
 2283 0c3a 002C     		cmp	r4, #0
 2284 0c3c 04D0     		beq	.L167
 618:bt.c          ****           recvBuf[recvPos-1] = '\0';
 2285              		.loc 1 618 0
 2286 0c3e 2AAF     		add	r7, sp, #168
 2287 0c40 3B19     		add	r3, r7, r4
 2288 0c42 553B     		sub	r3, r3, #85
 2289 0c44 0022     		mov	r2, #0
 2290 0c46 1A70     		strb	r2, [r3]
 2291              	.L167:
 621:bt.c          ****         if ((memcmp(recvBuf, "+BTBDA: ", 8) == 0) && (recvPos == 21))
 2292              		.loc 1 621 0
 2293 0c48 15AF     		add	r7, sp, #84
 2294 0c4a 381C     		mov	r0, r7
 2295 0c4c BF49     		ldr	r1, .L264+36
 2296 0c4e 0822     		mov	r2, #8
 2297 0c50 FFF7FEFF 		bl	memcmp
 2298 0c54 0028     		cmp	r0, #0
 2299 0c56 15D1     		bne	.L218
 2300 0c58 152C     		cmp	r4, #21
 2301 0c5a 13D1     		bne	.L218
 625:bt.c          ****             btAddress[recvPos-8] = recvBuf[recvPos];
 2302              		.loc 1 625 0
 2303 0c5c B64A     		ldr	r2, .L264+16
 621:bt.c          ****         if ((memcmp(recvBuf, "+BTBDA: ", 8) == 0) && (recvPos == 21))
 2304              		.loc 1 621 0
ARM GAS  C:\Users\KOZLOV~1\AppData\Local\Temp\cc7z5Qbi.s 			page 69


 2305 0c5e 0023     		mov	r3, #0
 625:bt.c          ****             btAddress[recvPos-8] = recvBuf[recvPos];
 2306              		.loc 1 625 0
 2307 0c60 3132     		add	r2, r2, #49
 2308              	.L169:
1165:bt.c          **** handleBt(void)
 2309              		.loc 1 1165 0
 2310 0c62 F918     		add	r1, r7, r3
 625:bt.c          ****             btAddress[recvPos-8] = recvBuf[recvPos];
 2311              		.loc 1 625 0
 2312 0c64 097A     		ldrb	r1, [r1, #8]
 2313 0c66 9954     		strb	r1, [r3, r2]
 2314 0c68 0133     		add	r3, r3, #1
 624:bt.c          ****           for(recvPos=8; recvPos<20; recvPos++)
 2315              		.loc 1 624 0
 2316 0c6a 0C2B     		cmp	r3, #12
 2317 0c6c F9D1     		bne	.L169
 626:bt.c          ****           btAddress[12] = '\0';
 2318              		.loc 1 626 0
 2319 0c6e 0023     		mov	r3, #0
 2320 0c70 1373     		strb	r3, [r2, #12]
 2321              	.LVL141:
 2322 0c72 0DE0     		b	.L170
 2323              	.LVL142:
 2324              	.L166:
 631:bt.c          ****       else if (recvPos < RECV_BUF_LEN)
 2325              		.loc 1 631 0
 2326 0c74 1F2C     		cmp	r4, #31
 2327 0c76 06D8     		bhi	.L239
 632:bt.c          ****         recvBuf[recvPos++] = rxChar;
 2328              		.loc 1 632 0
 2329 0c78 15AA     		add	r2, sp, #84
 2330 0c7a 1355     		strb	r3, [r2, r4]
 2331 0c7c 0134     		add	r4, r4, #1
 2332 0c7e 2406     		lsl	r4, r4, #24
 2333 0c80 240E     		lsr	r4, r4, #24
 2334              	.LVL143:
 2335 0c82 00E0     		b	.L239
 2336              	.LVL144:
 2337              	.L218:
 629:bt.c          ****         recvPos = 0;
 2338              		.loc 1 629 0
 2339 0c84 0024     		mov	r4, #0
 2340              	.L239:
 608:bt.c          ****   while((done == FALSE) && ((ms - timeStamp) < 200))
 2341              		.loc 1 608 0
 2342 0c86 3368     		ldr	r3, [r6]
 2343 0c88 089F     		ldr	r7, [sp, #32]
 2344 0c8a DB1B     		sub	r3, r3, r7
 2345 0c8c C72B     		cmp	r3, #199
 2346 0c8e C8D9     		bls	.L171
 2347              	.LVL145:
 2348              	.L170:
 637:bt.c          ****   stopRecvProc = FALSE;
 2349              		.loc 1 637 0
 2350 0c90 A94E     		ldr	r6, .L264+16
 2351 0c92 331C     		mov	r3, r6
ARM GAS  C:\Users\KOZLOV~1\AppData\Local\Temp\cc7z5Qbi.s 			page 70


 2352 0c94 5C33     		add	r3, r3, #92
 2353 0c96 0025     		mov	r5, #0
 638:bt.c          ****   osSemGive(&recvSem, &error);
 2354              		.loc 1 638 0
 2355 0c98 301C     		mov	r0, r6
 2356 0c9a 6946     		mov	r1, sp
 637:bt.c          ****   stopRecvProc = FALSE;
 2357              		.loc 1 637 0
 2358 0c9c 1D70     		strb	r5, [r3]
 638:bt.c          ****   osSemGive(&recvSem, &error);
 2359              		.loc 1 638 0
 2360 0c9e 4030     		add	r0, r0, #64
 2361 0ca0 A631     		add	r1, r1, #166
 2362 0ca2 FFF7FEFF 		bl	osSemGive
 2363              	.LVL146:
 645:bt.c          ****   drawBtAddress(cursorPos);
 2364              		.loc 1 645 0
 2365 0ca6 281C     		mov	r0, r5
 2366 0ca8 FFF702FA 		bl	drawBtAddress
 703:bt.c          ****         btAddress[cursorPos]--;
 2367              		.loc 1 703 0
 2368 0cac 3136     		add	r6, r6, #49
 2369              	.LVL147:
 2370              	.L184:
 648:bt.c          ****     anyKey = checkKey();
 2371              		.loc 1 648 0
 2372 0cae FFF7FEFF 		bl	checkKey
 2373 0cb2 041C     		mov	r4, r0
 649:bt.c          ****     if (anyKey != KEY_NOTHING)
 2374              		.loc 1 649 0
 2375 0cb4 031E     		sub	r3, r0, #0
 2376 0cb6 77D0     		beq	.L172
 652:bt.c          ****       if (anyKey == KEY_CENTER)
 2377              		.loc 1 652 0
 2378 0cb8 1028     		cmp	r0, #16
 2379 0cba 3DD1     		bne	.L173
 2380              	.LBB45:
 656:bt.c          ****         menu.xPos = 5;
 2381              		.loc 1 656 0
 2382 0cbc 09AB     		add	r3, sp, #36
 663:bt.c          ****         menu.headerTextXpos = 50;
 2383              		.loc 1 663 0
 2384 0cbe 3220     		mov	r0, #50
 2385 0cc0 1873     		strb	r0, [r3, #12]
 664:bt.c          ****         menu.pChoice[0] = "Cancel";
 2386              		.loc 1 664 0
 2387 0cc2 A348     		ldr	r0, .L264+40
 656:bt.c          ****         menu.xPos = 5;
 2388              		.loc 1 656 0
 2389 0cc4 0522     		mov	r2, #5
 2390 0cc6 1A70     		strb	r2, [r3]
 664:bt.c          ****         menu.pChoice[0] = "Cancel";
 2391              		.loc 1 664 0
 2392 0cc8 0D90     		str	r0, [sp, #52]
 657:bt.c          ****         menu.yPos = 35;
 2393              		.loc 1 657 0
 2394 0cca 2322     		mov	r2, #35
ARM GAS  C:\Users\KOZLOV~1\AppData\Local\Temp\cc7z5Qbi.s 			page 71


 665:bt.c          ****         menu.pChoice[1] = "Store new addr";
 2395              		.loc 1 665 0
 2396 0ccc A148     		ldr	r0, .L264+44
 657:bt.c          ****         menu.yPos = 35;
 2397              		.loc 1 657 0
 2398 0cce 5A70     		strb	r2, [r3, #1]
 658:bt.c          ****         menu.xLen = 6+(14*8);
 2399              		.loc 1 658 0
 2400 0cd0 7622     		mov	r2, #118
 2401 0cd2 9A70     		strb	r2, [r3, #2]
 665:bt.c          ****         menu.pChoice[1] = "Store new addr";
 2402              		.loc 1 665 0
 2403 0cd4 0E90     		str	r0, [sp, #56]
 661:bt.c          ****         menu.initialChoice = 0;
 2404              		.loc 1 661 0
 2405 0cd6 0021     		mov	r1, #0
 666:bt.c          ****         menu.bgColor       = 0;
 2406              		.loc 1 666 0
 2407 0cd8 13A8     		add	r0, sp, #76
 659:bt.c          ****         menu.yLen = 3*14+5;
 2408              		.loc 1 659 0
 2409 0cda 2F22     		mov	r2, #47
 2410 0cdc DA70     		strb	r2, [r3, #3]
 661:bt.c          ****         menu.initialChoice = 0;
 2411              		.loc 1 661 0
 2412 0cde 5971     		strb	r1, [r3, #5]
 666:bt.c          ****         menu.bgColor       = 0;
 2413              		.loc 1 666 0
 2414 0ce0 0170     		strb	r1, [r0]
 668:bt.c          ****         menu.headerColor   = 0;
 2415              		.loc 1 668 0
 2416 0ce2 8170     		strb	r1, [r0, #2]
 667:bt.c          ****         menu.borderColor   = 0x6d;
 2417              		.loc 1 667 0
 2418 0ce4 6D24     		mov	r4, #109
 660:bt.c          ****         menu.noOfChoices = 2;
 2419              		.loc 1 660 0
 2420 0ce6 0222     		mov	r2, #2
 669:bt.c          ****         menu.choicesColor  = 0xfd;
 2421              		.loc 1 669 0
 2422 0ce8 6946     		mov	r1, sp
 660:bt.c          ****         menu.noOfChoices = 2;
 2423              		.loc 1 660 0
 2424 0cea 1A71     		strb	r2, [r3, #4]
 667:bt.c          ****         menu.borderColor   = 0x6d;
 2425              		.loc 1 667 0
 2426 0cec 4470     		strb	r4, [r0, #1]
 662:bt.c          ****         menu.pHeaderText = "Exit";
 2427              		.loc 1 662 0
 2428 0cee 9A4A     		ldr	r2, .L264+48
 669:bt.c          ****         menu.choicesColor  = 0xfd;
 2429              		.loc 1 669 0
 2430 0cf0 FD20     		mov	r0, #253
 2431 0cf2 4F31     		add	r1, r1, #79
 2432 0cf4 0870     		strb	r0, [r1]
 670:bt.c          ****         menu.selectedColor = 0xe0;
 2433              		.loc 1 670 0
ARM GAS  C:\Users\KOZLOV~1\AppData\Local\Temp\cc7z5Qbi.s 			page 72


 2434 0cf6 E020     		mov	r0, #224
 2435 0cf8 14A9     		add	r1, sp, #80
 2436 0cfa 0870     		strb	r0, [r1]
 662:bt.c          ****         menu.pHeaderText = "Exit";
 2437              		.loc 1 662 0
 2438 0cfc 0B92     		str	r2, [sp, #44]
 672:bt.c          ****         switch(drawMenu(menu))
 2439              		.loc 1 672 0
 2440 0cfe 0DA9     		add	r1, sp, #52
 2441 0d00 6846     		mov	r0, sp
 662:bt.c          ****         menu.pHeaderText = "Exit";
 2442              		.loc 1 662 0
 2443 0d02 9446     		mov	ip, r2
 672:bt.c          ****         switch(drawMenu(menu))
 2444              		.loc 1 672 0
 2445 0d04 94C9     		ldmia	r1!, {r2, r4, r7}
 2446 0d06 94C0     		stmia	r0!, {r2, r4, r7}
 2447 0d08 94C9     		ldmia	r1!, {r2, r4, r7}
 2448 0d0a 94C0     		stmia	r0!, {r2, r4, r7}
 2449 0d0c 84C9     		ldmia	r1!, {r2, r7}
 2450 0d0e 84C0     		stmia	r0!, {r2, r7}
 2451 0d10 6246     		mov	r2, ip
 2452 0d12 0998     		ldr	r0, [sp, #36]
 2453 0d14 0A99     		ldr	r1, [sp, #40]
 2454 0d16 0C9B     		ldr	r3, [sp, #48]
 2455 0d18 FFF7FEFF 		bl	drawMenu
 2456 0d1c 041C     		mov	r4, r0
 2457 0d1e 0128     		cmp	r0, #1
 2458 0d20 41D1     		bne	.L241
 679:bt.c          ****             uart1SendString("AT+BTSET=1,");
 2459              		.loc 1 679 0
 2460 0d22 8E48     		ldr	r0, .L264+52
 2461 0d24 FFF7FEFF 		bl	uart1SendString
 680:bt.c          ****             uart1SendString(btAddress);     //12 digits
 2462              		.loc 1 680 0
 2463 0d28 8348     		ldr	r0, .L264+16
 2464 0d2a 3130     		add	r0, r0, #49
 2465 0d2c FFF7FEFF 		bl	uart1SendString
 681:bt.c          ****             uart1SendString("\r");
 2466              		.loc 1 681 0
 2467 0d30 8B48     		ldr	r0, .L264+56
 2468 0d32 FFF7FEFF 		bl	uart1SendString
 2469 0d36 37E0     		b	.L172
 2470              	.L173:
 2471              	.LBE45:
 690:bt.c          ****       else if (anyKey == KEY_UP)
 2472              		.loc 1 690 0
 2473 0d38 012B     		cmp	r3, #1
 2474 0d3a 10D1     		bne	.L175
 692:bt.c          ****         btAddress[cursorPos]++;
 2475              		.loc 1 692 0
 2476 0d3c 7E4B     		ldr	r3, .L264+16
 2477 0d3e 3133     		add	r3, r3, #49
 2478 0d40 595D     		ldrb	r1, [r3, r5]
 2479 0d42 4A1C     		add	r2, r1, #1
 2480 0d44 1206     		lsl	r2, r2, #24
 2481 0d46 120E     		lsr	r2, r2, #24
ARM GAS  C:\Users\KOZLOV~1\AppData\Local\Temp\cc7z5Qbi.s 			page 73


 2482 0d48 5A55     		strb	r2, [r3, r5]
 693:bt.c          ****         if (btAddress[cursorPos] > 'F')
 2483              		.loc 1 693 0
 2484 0d4a 462A     		cmp	r2, #70
 2485 0d4c 01D9     		bls	.L176
 694:bt.c          ****           btAddress[cursorPos] = '0';
 2486              		.loc 1 694 0
 2487 0d4e 3022     		mov	r2, #48
 2488 0d50 03E0     		b	.L246
 2489              	.L176:
 695:bt.c          ****         else if ((btAddress[cursorPos] > '9') && (btAddress[cursorPos] < 'A'))
 2490              		.loc 1 695 0
 2491 0d52 3939     		sub	r1, r1, #57
 2492 0d54 0629     		cmp	r1, #6
 2493 0d56 21D8     		bhi	.L183
 696:bt.c          ****           btAddress[cursorPos] = 'A';
 2494              		.loc 1 696 0
 2495 0d58 4122     		mov	r2, #65
 2496              	.L246:
 2497 0d5a 5A55     		strb	r2, [r3, r5]
 2498 0d5c 1EE0     		b	.L183
 2499              	.L175:
 701:bt.c          ****       else if (anyKey == KEY_DOWN)
 2500              		.loc 1 701 0
 2501 0d5e 042B     		cmp	r3, #4
 2502 0d60 0ED1     		bne	.L178
 703:bt.c          ****         btAddress[cursorPos]--;
 2503              		.loc 1 703 0
 2504 0d62 725D     		ldrb	r2, [r6, r5]
 2505 0d64 531E     		sub	r3, r2, #1
 2506 0d66 1B06     		lsl	r3, r3, #24
 2507 0d68 1B0E     		lsr	r3, r3, #24
 2508 0d6a 7355     		strb	r3, [r6, r5]
 704:bt.c          ****         if (btAddress[cursorPos] < '0')
 2509              		.loc 1 704 0
 2510 0d6c 2F2B     		cmp	r3, #47
 2511 0d6e 01D8     		bhi	.L179
 705:bt.c          ****           btAddress[cursorPos] = 'F';
 2512              		.loc 1 705 0
 2513 0d70 4623     		mov	r3, #70
 2514 0d72 03E0     		b	.L247
 2515              	.L179:
 706:bt.c          ****         else if ((btAddress[cursorPos] < 'A') && (btAddress[cursorPos] > '9'))
 2516              		.loc 1 706 0
 2517 0d74 3B3A     		sub	r2, r2, #59
 2518 0d76 062A     		cmp	r2, #6
 2519 0d78 10D8     		bhi	.L183
 707:bt.c          ****           btAddress[cursorPos] = '9';
 2520              		.loc 1 707 0
 2521 0d7a 3923     		mov	r3, #57
 2522              	.L247:
 2523 0d7c 7355     		strb	r3, [r6, r5]
 2524 0d7e 0DE0     		b	.L183
 2525              	.L178:
 712:bt.c          ****       else if (anyKey == KEY_LEFT)
 2526              		.loc 1 712 0
 2527 0d80 082B     		cmp	r3, #8
ARM GAS  C:\Users\KOZLOV~1\AppData\Local\Temp\cc7z5Qbi.s 			page 74


 2528 0d82 03D1     		bne	.L181
 714:bt.c          ****         if (cursorPos > 0)
 2529              		.loc 1 714 0
 2530 0d84 002D     		cmp	r5, #0
 2531 0d86 09D0     		beq	.L183
 715:bt.c          ****           cursorPos--;
 2532              		.loc 1 715 0
 2533 0d88 013D     		sub	r5, r5, #1
 2534 0d8a 05E0     		b	.L254
 2535              	.L181:
 720:bt.c          ****       else if (anyKey == KEY_RIGHT)
 2536              		.loc 1 720 0
 2537 0d8c 0024     		mov	r4, #0
 2538 0d8e 022B     		cmp	r3, #2
 2539 0d90 0AD1     		bne	.L172
 722:bt.c          ****         if (cursorPos < 11)
 2540              		.loc 1 722 0
 2541 0d92 0A2D     		cmp	r5, #10
 2542 0d94 02D8     		bhi	.L183
 723:bt.c          ****           cursorPos++;
 2543              		.loc 1 723 0
 2544 0d96 0135     		add	r5, r5, #1
 2545              	.L254:
 2546 0d98 2D06     		lsl	r5, r5, #24
 2547 0d9a 2D0E     		lsr	r5, r5, #24
 2548              	.LVL148:
 2549              	.L183:
 724:bt.c          ****         drawBtAddress(cursorPos);
 2550              		.loc 1 724 0
 2551 0d9c 281C     		mov	r0, r5
 2552 0d9e FFF787F9 		bl	drawBtAddress
 2553 0da2 0024     		mov	r4, #0
 2554 0da4 00E0     		b	.L172
 2555              	.LVL149:
 2556              	.L241:
 2557              	.LBB46:
 686:bt.c          ****         done = TRUE;
 2558              		.loc 1 686 0
 2559 0da6 0124     		mov	r4, #1
 2560              	.L172:
 2561              	.LVL150:
 2562              	.LBE46:
 727:bt.c          ****     osSleep(1);
 2563              		.loc 1 727 0
 2564 0da8 0120     		mov	r0, #1
 2565 0daa FFF7FEFF 		bl	osSleep
 646:bt.c          ****   while(done == FALSE)
 2566              		.loc 1 646 0
 2567 0dae 002C     		cmp	r4, #0
 2568 0db0 00D1     		bne	.LCB2307
 2569 0db2 7CE7     		b	.L184	@long jump
 2570              	.LCB2307:
 2571              	.LVL151:
 2572              	.L255:
 730:bt.c          ****   osSleep(100);
 2573              		.loc 1 730 0
 2574 0db4 6420     		mov	r0, #100
ARM GAS  C:\Users\KOZLOV~1\AppData\Local\Temp\cc7z5Qbi.s 			page 75


 2575 0db6 FFF7FEFF 		bl	osSleep
 731:bt.c          ****   btSetMode(btCommandMode);
 2576              		.loc 1 731 0
 2577 0dba 5F4B     		ldr	r3, .L264+16
 2578 0dbc 5E33     		add	r3, r3, #94
 2579 0dbe 1878     		ldrb	r0, [r3]
 2580 0dc0 FFF70AFA 		bl	btSetMode
 2581 0dc4 02E1     		b	.L249
 2582              	.L91:
 2583              	.LBE44:
 2584              	.LBE43:
 2585              	.LBB47:
 2586              	.LBB48:
1037:bt.c          ****   lcdRect(1, 16, 126, 84, BT_BACKGROUND_COLOR);
 2587              		.loc 1 1037 0
 2588 0dc6 0125     		mov	r5, #1
 2589 0dc8 7E22     		mov	r2, #126
 2590 0dca 5423     		mov	r3, #84
 2591 0dcc 281C     		mov	r0, r5
 2592 0dce 1021     		mov	r1, #16
 2593 0dd0 0094     		str	r4, [sp]
 2594 0dd2 FFF7FEFF 		bl	lcdRect
1038:bt.c          ****   lcdGotoxy(14,26);
 2595              		.loc 1 1038 0
 2596 0dd6 0E20     		mov	r0, #14
 2597 0dd8 1A21     		mov	r1, #26
 2598 0dda FFF7FEFF 		bl	lcdGotoxy
1039:bt.c          ****   lcdColor(BT_BACKGROUND_COLOR,0xfd);
 2599              		.loc 1 1039 0
 2600 0dde 281C     		mov	r0, r5
 2601 0de0 FD21     		mov	r1, #253
 2602 0de2 FFF7FEFF 		bl	lcdColor
1041:bt.c          ****   if (btCommandMode == FALSE)
 2603              		.loc 1 1041 0
 2604 0de6 544C     		ldr	r4, .L264+16
 2605 0de8 5E34     		add	r4, r4, #94
 2606 0dea 2378     		ldrb	r3, [r4]
 2607 0dec 5D49     		ldr	r1, .L264+60
 2608              	.LBB49:
1043:bt.c          ****     tU8 messagePart1[] = "Activate";
 2609              		.loc 1 1043 0
 2610 0dee 25A8     		add	r0, sp, #148
 2611 0df0 0922     		mov	r2, #9
 2612              	.LBE49:
1041:bt.c          ****   if (btCommandMode == FALSE)
 2613              		.loc 1 1041 0
 2614 0df2 002B     		cmp	r3, #0
 2615 0df4 39D1     		bne	.L185
 2616              	.LBB50:
1043:bt.c          ****     tU8 messagePart1[] = "Activate";
 2617              		.loc 1 1043 0
 2618 0df6 FFF7FEFF 		bl	memcpy
1044:bt.c          ****     tU8 messagePart2[] = "command mode";
 2619              		.loc 1 1044 0
 2620 0dfa 5B49     		ldr	r1, .L264+64
 2621 0dfc 0D22     		mov	r2, #13
 2622 0dfe 1DA8     		add	r0, sp, #116
ARM GAS  C:\Users\KOZLOV~1\AppData\Local\Temp\cc7z5Qbi.s 			page 76


 2623 0e00 FFF7FEFF 		bl	memcpy
1045:bt.c          ****     tU8 messagePart3[] = "(unit cannot";
 2624              		.loc 1 1045 0
 2625 0e04 5949     		ldr	r1, .L264+68
 2626 0e06 0D22     		mov	r2, #13
 2627 0e08 21A8     		add	r0, sp, #132
 2628 0e0a FFF7FEFF 		bl	memcpy
1046:bt.c          ****     tU8 messagePart4[] = "be discovered";
 2629              		.loc 1 1046 0
 2630 0e0e 5849     		ldr	r1, .L264+72
 2631 0e10 0E22     		mov	r2, #14
 2632 0e12 15A8     		add	r0, sp, #84
 2633 0e14 FFF7FEFF 		bl	memcpy
1047:bt.c          ****     tU8 messagePart5[] = "in this mode)";
 2634              		.loc 1 1047 0
 2635 0e18 0E22     		mov	r2, #14
 2636 0e1a 5649     		ldr	r1, .L264+76
 2637 0e1c 09A8     		add	r0, sp, #36
 2638 0e1e FFF7FEFF 		bl	memcpy
1049:bt.c          ****     displayMessage(messagePart1, 3);
 2639              		.loc 1 1049 0
 2640 0e22 25A8     		add	r0, sp, #148
 2641 0e24 FFF7A4FA 		bl	displayMessage.constprop.2
1050:bt.c          ****     lcdGotoxy(14,40);
 2642              		.loc 1 1050 0
 2643 0e28 2821     		mov	r1, #40
 2644 0e2a 0E20     		mov	r0, #14
 2645 0e2c FFF7FEFF 		bl	lcdGotoxy
1051:bt.c          ****     displayMessage(messagePart2, 3);
 2646              		.loc 1 1051 0
 2647 0e30 1DA8     		add	r0, sp, #116
 2648 0e32 FFF79DFA 		bl	displayMessage.constprop.2
1052:bt.c          ****     lcdGotoxy(14,54);
 2649              		.loc 1 1052 0
 2650 0e36 3621     		mov	r1, #54
 2651 0e38 0E20     		mov	r0, #14
 2652 0e3a FFF7FEFF 		bl	lcdGotoxy
1053:bt.c          ****     displayMessage(messagePart3, 3);
 2653              		.loc 1 1053 0
 2654 0e3e 21A8     		add	r0, sp, #132
 2655 0e40 FFF796FA 		bl	displayMessage.constprop.2
1054:bt.c          ****     lcdGotoxy(14,68);
 2656              		.loc 1 1054 0
 2657 0e44 4421     		mov	r1, #68
 2658 0e46 0E20     		mov	r0, #14
 2659 0e48 FFF7FEFF 		bl	lcdGotoxy
1055:bt.c          ****     displayMessage(messagePart4, 3);
 2660              		.loc 1 1055 0
 2661 0e4c 15A8     		add	r0, sp, #84
 2662 0e4e FFF78FFA 		bl	displayMessage.constprop.2
1056:bt.c          ****     lcdGotoxy(14,84);
 2663              		.loc 1 1056 0
 2664 0e52 5421     		mov	r1, #84
 2665 0e54 0E20     		mov	r0, #14
 2666 0e56 FFF7FEFF 		bl	lcdGotoxy
1057:bt.c          ****     displayMessage(messagePart5, 3);
 2667              		.loc 1 1057 0
ARM GAS  C:\Users\KOZLOV~1\AppData\Local\Temp\cc7z5Qbi.s 			page 77


 2668 0e5a 09A8     		add	r0, sp, #36
 2669 0e5c FFF788FA 		bl	displayMessage.constprop.2
1059:bt.c          ****     btSetMode(TRUE);
 2670              		.loc 1 1059 0
 2671 0e60 281C     		mov	r0, r5
 2672 0e62 FFF7B9F9 		bl	btSetMode
1060:bt.c          ****     btCommandMode = TRUE;
 2673              		.loc 1 1060 0
 2674 0e66 2570     		strb	r5, [r4]
 2675 0e68 2DE0     		b	.L186
 2676              	.L185:
 2677              	.LBE50:
 2678              	.LBB51:
1064:bt.c          ****     tU8 messagePart1[] = "Activate";
 2679              		.loc 1 1064 0
 2680 0e6a FFF7FEFF 		bl	memcpy
1065:bt.c          ****     tU8 messagePart2[] = "data mode...";
 2681              		.loc 1 1065 0
 2682 0e6e 4249     		ldr	r1, .L264+80
 2683 0e70 0D22     		mov	r2, #13
 2684 0e72 21A8     		add	r0, sp, #132
 2685 0e74 FFF7FEFF 		bl	memcpy
1066:bt.c          ****     tU8 messagePart3[] = "(unit can now";
 2686              		.loc 1 1066 0
 2687 0e78 4049     		ldr	r1, .L264+84
 2688 0e7a 0E22     		mov	r2, #14
 2689 0e7c 1DA8     		add	r0, sp, #116
 2690 0e7e FFF7FEFF 		bl	memcpy
1067:bt.c          ****     tU8 messagePart4[] = "be discovered)";
 2691              		.loc 1 1067 0
 2692 0e82 0F22     		mov	r2, #15
 2693 0e84 3E49     		ldr	r1, .L264+88
 2694 0e86 15A8     		add	r0, sp, #84
 2695 0e88 FFF7FEFF 		bl	memcpy
1069:bt.c          ****     displayMessage(messagePart1, 3);
 2696              		.loc 1 1069 0
 2697 0e8c 25A8     		add	r0, sp, #148
 2698 0e8e FFF76FFA 		bl	displayMessage.constprop.2
1070:bt.c          ****     lcdGotoxy(14,40);
 2699              		.loc 1 1070 0
 2700 0e92 2821     		mov	r1, #40
 2701 0e94 0E20     		mov	r0, #14
 2702 0e96 FFF7FEFF 		bl	lcdGotoxy
1071:bt.c          ****     displayMessage(messagePart2, 3);
 2703              		.loc 1 1071 0
 2704 0e9a 21A8     		add	r0, sp, #132
 2705 0e9c FFF768FA 		bl	displayMessage.constprop.2
1072:bt.c          ****     lcdGotoxy(14,54);
 2706              		.loc 1 1072 0
 2707 0ea0 3621     		mov	r1, #54
 2708 0ea2 0E20     		mov	r0, #14
 2709 0ea4 FFF7FEFF 		bl	lcdGotoxy
1073:bt.c          ****     displayMessage(messagePart3, 3);
 2710              		.loc 1 1073 0
 2711 0ea8 1DA8     		add	r0, sp, #116
 2712 0eaa FFF761FA 		bl	displayMessage.constprop.2
1074:bt.c          ****     lcdGotoxy(14,68);
ARM GAS  C:\Users\KOZLOV~1\AppData\Local\Temp\cc7z5Qbi.s 			page 78


 2713              		.loc 1 1074 0
 2714 0eae 4421     		mov	r1, #68
 2715 0eb0 0E20     		mov	r0, #14
 2716 0eb2 FFF7FEFF 		bl	lcdGotoxy
1075:bt.c          ****     displayMessage(messagePart4, 3);
 2717              		.loc 1 1075 0
 2718 0eb6 15A8     		add	r0, sp, #84
 2719 0eb8 FFF75AFA 		bl	displayMessage.constprop.2
1077:bt.c          ****     btSetMode(FALSE);
 2720              		.loc 1 1077 0
 2721 0ebc 0020     		mov	r0, #0
 2722 0ebe FFF78BF9 		bl	btSetMode
1078:bt.c          ****     btCommandMode = FALSE;
 2723              		.loc 1 1078 0
 2724 0ec2 0023     		mov	r3, #0
 2725 0ec4 2370     		strb	r3, [r4]
 2726              	.L186:
 2727              	.LBE51:
1080:bt.c          ****   osSleep(100);
 2728              		.loc 1 1080 0
 2729 0ec6 6420     		mov	r0, #100
 2730 0ec8 7EE0     		b	.L248
 2731              	.L92:
 2732              	.LBE48:
 2733              	.LBE47:
 2734              	.LBB52:
 2735              	.LBB53:
 964:bt.c          ****   lcdRect(1, 16, 126, 84, BT_BACKGROUND_COLOR);
 2736              		.loc 1 964 0
 2737 0eca 0125     		mov	r5, #1
 2738 0ecc 5423     		mov	r3, #84
 2739 0ece 7E22     		mov	r2, #126
 2740 0ed0 281C     		mov	r0, r5
 2741 0ed2 1021     		mov	r1, #16
 2742 0ed4 0094     		str	r4, [sp]
 2743 0ed6 FFF7FEFF 		bl	lcdRect
 965:bt.c          ****   lcdGotoxy(18,34);
 2744              		.loc 1 965 0
 2745 0eda 1220     		mov	r0, #18
 2746 0edc 2221     		mov	r1, #34
 2747 0ede FFF7FEFF 		bl	lcdGotoxy
 966:bt.c          ****   lcdColor(BT_BACKGROUND_COLOR,0xfd);
 2748              		.loc 1 966 0
 2749 0ee2 281C     		mov	r0, r5
 2750 0ee4 FD21     		mov	r1, #253
 2751 0ee6 FFF7FEFF 		bl	lcdColor
 968:bt.c          ****   if (btSleepState == FALSE)
 2752              		.loc 1 968 0
 2753 0eea 134C     		ldr	r4, .L264+16
 2754 0eec 261C     		mov	r6, r4
 2755 0eee 5F36     		add	r6, r6, #95
 2756 0ef0 3378     		ldrb	r3, [r6]
 2757 0ef2 002B     		cmp	r3, #0
 2758 0ef4 4AD1     		bne	.L187
 2759              	.LBB54:
 970:bt.c          ****     tU8 messagePart1[] = "Deactivate";
 2760              		.loc 1 970 0
ARM GAS  C:\Users\KOZLOV~1\AppData\Local\Temp\cc7z5Qbi.s 			page 79


 2761 0ef6 2349     		ldr	r1, .L264+92
 2762 0ef8 0B22     		mov	r2, #11
 2763 0efa 25A8     		add	r0, sp, #148
 2764 0efc FFF7FEFF 		bl	memcpy
 971:bt.c          ****     tU8 messagePart2[] = "BT module...";
 2765              		.loc 1 971 0
 2766 0f00 0D22     		mov	r2, #13
 2767 0f02 2149     		ldr	r1, .L264+96
 2768 0f04 21A8     		add	r0, sp, #132
 2769 0f06 FFF7FEFF 		bl	memcpy
 973:bt.c          ****     resetBT(TRUE);
 2770              		.loc 1 973 0
 2771 0f0a 281C     		mov	r0, r5
 2772 0f0c FFF7FEFF 		bl	resetBT
 974:bt.c          ****     displayMessage(messagePart1, 3);
 2773              		.loc 1 974 0
 2774 0f10 25A8     		add	r0, sp, #148
 2775 0f12 FFF72DFA 		bl	displayMessage.constprop.2
 975:bt.c          ****     lcdGotoxy(18,48);
 2776              		.loc 1 975 0
 2777 0f16 1220     		mov	r0, #18
 2778 0f18 3021     		mov	r1, #48
 2779 0f1a FFF7FEFF 		bl	lcdGotoxy
 976:bt.c          ****     displayMessage(messagePart2, 3);
 2780              		.loc 1 976 0
 2781 0f1e 21A8     		add	r0, sp, #132
 2782 0f20 FFF726FA 		bl	displayMessage.constprop.2
 978:bt.c          ****     btSleepState = TRUE;
 2783              		.loc 1 978 0
 2784 0f24 3570     		strb	r5, [r6]
 2785 0f26 4EE0     		b	.L188
 2786              	.L265:
 2787              		.align	2
 2788              	.L264:
 2789 0f28 09020000 		.word	.LC147
 2790 0f2c 9D010000 		.word	.LC126
 2791 0f30 AD010000 		.word	.LC128
 2792 0f34 BC010000 		.word	.LC130
 2793 0f38 80000000 		.word	.LANCHOR1
 2794 0f3c 02000000 		.word	.LC9
 2795 0f40 15000000 		.word	.LC15
 2796 0f44 00000000 		.word	ms
 2797 0f48 37000000 		.word	.LC22
 2798 0f4c 16020000 		.word	.LC150
 2799 0f50 DB010000 		.word	.LC137
 2800 0f54 1F020000 		.word	.LC152
 2801 0f58 D6010000 		.word	.LC135
 2802 0f5c 2E020000 		.word	.LC154
 2803 0f60 24010000 		.word	.LC96
 2804 0f64 3A020000 		.word	.LC156
 2805 0f68 43020000 		.word	.LC158
 2806 0f6c 50020000 		.word	.LC160
 2807 0f70 5D020000 		.word	.LC162
 2808 0f74 6B020000 		.word	.LC164
 2809 0f78 79020000 		.word	.LC166
 2810 0f7c 86020000 		.word	.LC168
 2811 0f80 94020000 		.word	.LC170
ARM GAS  C:\Users\KOZLOV~1\AppData\Local\Temp\cc7z5Qbi.s 			page 80


 2812 0f84 A3020000 		.word	.LC172
 2813 0f88 AE020000 		.word	.LC174
 2814              	.L187:
 2815              	.LBE54:
 2816              	.LBB55:
 982:bt.c          ****     tU8 messagePart1[] = "Activate BT";
 2817              		.loc 1 982 0
 2818 0f8c 2549     		ldr	r1, .L266
 2819 0f8e 0C22     		mov	r2, #12
 2820 0f90 21A8     		add	r0, sp, #132
 2821 0f92 FFF7FEFF 		bl	memcpy
 983:bt.c          ****     tU8 messagePart2[] = "module...";
 2822              		.loc 1 983 0
 2823 0f96 0A22     		mov	r2, #10
 2824 0f98 2349     		ldr	r1, .L266+4
 2825 0f9a 25A8     		add	r0, sp, #148
 2826 0f9c FFF7FEFF 		bl	memcpy
 986:bt.c          ****     btSetMode(btCommandMode);
 2827              		.loc 1 986 0
 2828 0fa0 5E34     		add	r4, r4, #94
 985:bt.c          ****     resetBT(FALSE);
 2829              		.loc 1 985 0
 2830 0fa2 0020     		mov	r0, #0
 2831 0fa4 FFF7FEFF 		bl	resetBT
 986:bt.c          ****     btSetMode(btCommandMode);
 2832              		.loc 1 986 0
 2833 0fa8 2078     		ldrb	r0, [r4]
 2834 0faa FFF715F9 		bl	btSetMode
 988:bt.c          ****     displayMessage(messagePart1, 3);
 2835              		.loc 1 988 0
 2836 0fae 21A8     		add	r0, sp, #132
 2837 0fb0 FFF7DEF9 		bl	displayMessage.constprop.2
 989:bt.c          ****     lcdGotoxy(18,48);
 2838              		.loc 1 989 0
 2839 0fb4 1220     		mov	r0, #18
 2840 0fb6 3021     		mov	r1, #48
 2841 0fb8 FFF7FEFF 		bl	lcdGotoxy
 990:bt.c          ****     displayMessage(messagePart2, 3);
 2842              		.loc 1 990 0
 2843 0fbc 25A8     		add	r0, sp, #148
 2844 0fbe FFF7D7F9 		bl	displayMessage.constprop.2
 992:bt.c          ****     btSleepState = FALSE;
 2845              		.loc 1 992 0
 2846 0fc2 0023     		mov	r3, #0
 2847 0fc4 3370     		strb	r3, [r6]
 2848              	.L188:
 2849              	.LBE55:
 994:bt.c          ****   osSleep(200);
 2850              		.loc 1 994 0
 2851 0fc6 C820     		mov	r0, #200
 2852              	.L248:
 2853 0fc8 FFF7FEFF 		bl	osSleep
 2854              	.L249:
 2855 0fcc 0024     		mov	r4, #0
 2856 0fce 00E0     		b	.L93
 2857              	.L196:
 2858              	.LBE53:
ARM GAS  C:\Users\KOZLOV~1\AppData\Local\Temp\cc7z5Qbi.s 			page 81


 2859              	.LBE52:
1183:bt.c          ****         {
1184:bt.c          ****           case 0: btInquiry(); break;
1185:bt.c          ****           case 1: btSetName(); break;
1186:bt.c          ****           case 2: btSetAddress(); break;
1187:bt.c          ****           case 3: btMode(); break;
1188:bt.c          ****           case 4: btActiveSleep(); break;
1189:bt.c          ****           case 5: exit = TRUE; break;
 2860              		.loc 1 1189 0
 2861 0fd0 0124     		mov	r4, #1
 2862              	.L93:
 2863              	.LVL152:
1190:bt.c          ****           default: break;
1191:bt.c          ****         }
1192:bt.c          ****         drawBtMenu();
 2864              		.loc 1 1192 0
 2865 0fd2 FFF771F9 		bl	drawBtMenu
 2866 0fd6 1AE0     		b	.L85
 2867              	.LVL153:
 2868              	.L86:
1193:bt.c          ****       }
1194:bt.c          ****       
1195:bt.c          ****       //move cursor up
1196:bt.c          ****       else if (anyKey == KEY_UP)
 2869              		.loc 1 1196 0
 2870 0fd8 0128     		cmp	r0, #1
 2871 0fda 09D1     		bne	.L189
1197:bt.c          ****       {
1198:bt.c          ****         if (btCursor > 0)
 2872              		.loc 1 1198 0
 2873 0fdc 134B     		ldr	r3, .L266+8
 2874 0fde 5D33     		add	r3, r3, #93
 2875 0fe0 1A78     		ldrb	r2, [r3]
 2876 0fe2 002A     		cmp	r2, #0
 2877 0fe4 01D0     		beq	.L190
1199:bt.c          ****           btCursor--;
 2878              		.loc 1 1199 0
 2879 0fe6 013A     		sub	r2, r2, #1
 2880 0fe8 00E0     		b	.L250
 2881              	.L190:
1200:bt.c          ****         else
1201:bt.c          ****           btCursor = 5;
 2882              		.loc 1 1201 0
 2883 0fea 0522     		mov	r2, #5
 2884              	.L250:
 2885 0fec 1A70     		strb	r2, [r3]
 2886 0fee 0BE0     		b	.L193
 2887              	.L189:
1202:bt.c          ****         drawBtMenuCursor(btCursor);
1203:bt.c          ****       }
1204:bt.c          ****       
1205:bt.c          ****       //move cursor down
1206:bt.c          ****       else if (anyKey == KEY_DOWN)
 2888              		.loc 1 1206 0
 2889 0ff0 0024     		mov	r4, #0
 2890 0ff2 0428     		cmp	r0, #4
 2891 0ff4 0BD1     		bne	.L85
ARM GAS  C:\Users\KOZLOV~1\AppData\Local\Temp\cc7z5Qbi.s 			page 82


1207:bt.c          ****       {
1208:bt.c          ****         if (btCursor < 5)
 2892              		.loc 1 1208 0
 2893 0ff6 0E4E     		ldr	r6, .L266+12
 2894 0ff8 3378     		ldrb	r3, [r6]
 2895 0ffa 042B     		cmp	r3, #4
 2896 0ffc 02D8     		bhi	.L192
1209:bt.c          ****           btCursor++;
 2897              		.loc 1 1209 0
 2898 0ffe 0133     		add	r3, r3, #1
 2899 1000 3370     		strb	r3, [r6]
 2900 1002 01E0     		b	.L193
 2901              	.L192:
1210:bt.c          ****         else
1211:bt.c          ****           btCursor = 0;
 2902              		.loc 1 1211 0
 2903 1004 0A4F     		ldr	r7, .L266+12
 2904 1006 3C70     		strb	r4, [r7]
 2905              	.L193:
1212:bt.c          ****         drawBtMenuCursor(btCursor);
 2906              		.loc 1 1212 0
 2907 1008 FFF708F9 		bl	drawBtMenuCursor.isra.1
 2908              	.LVL154:
 2909 100c 0024     		mov	r4, #0
 2910              	.L85:
 2911              	.LVL155:
1213:bt.c          ****       }
1214:bt.c          ****     }
1215:bt.c          ****     osSleep(1);
 2912              		.loc 1 1215 0
 2913 100e 0120     		mov	r0, #1
 2914 1010 FFF7FEFF 		bl	osSleep
 2915              	.LBE30:
1172:bt.c          ****   while(exit == FALSE)
 2916              		.loc 1 1172 0
 2917 1014 002C     		cmp	r4, #0
 2918 1016 01D1     		bne	.LCB2627
 2919 1018 FFF7E2F9 		bl	.L194	@far jump
 2920              	.LCB2627:
1216:bt.c          ****   }
1217:bt.c          **** }
 2921              		.loc 1 1217 0
 2922 101c 2AB0     		add	sp, sp, #168
 2923              		@ sp needed for prologue
 2924              	.LVL156:
 2925 101e F0BC     		pop	{r4, r5, r6, r7}
 2926 1020 01BC     		pop	{r0}
 2927 1022 0047     		bx	r0
 2928              	.L267:
 2929              		.align	2
 2930              	.L266:
 2931 1024 81000000 		.word	.LC41
 2932 1028 BB020000 		.word	.LC177
 2933 102c 80000000 		.word	.LANCHOR1
 2934 1030 DD000000 		.word	.LANCHOR1+93
 2935              		.cfi_endproc
 2936              	.LFE14:
ARM GAS  C:\Users\KOZLOV~1\AppData\Local\Temp\cc7z5Qbi.s 			page 83


 2937              		.size	handleBt, .-handleBt
 2938              		.align	1
 2939              		.global	blockBtProc
 2940              		.code	16
 2941              		.thumb_func
 2942              		.type	blockBtProc, %function
 2943              	blockBtProc:
 2944              	.LFB15:
1218:bt.c          **** 
1219:bt.c          **** 
1220:bt.c          **** /*****************************************************************************
1221:bt.c          ****  *
1222:bt.c          ****  * Description:
1223:bt.c          ****  *    Blocks the Bluetooth handling process to receive/send any characters
1224:bt.c          ****  *    from/to the BGB203-S06 unit.
1225:bt.c          ****  *
1226:bt.c          ****  ****************************************************************************/
1227:bt.c          **** void
1228:bt.c          **** blockBtProc(void)
1229:bt.c          **** {
 2945              		.loc 1 1229 0
 2946              		.cfi_startproc
 2947 1034 00B5     		push	{lr}
 2948              	.LCFI11:
 2949              		.cfi_def_cfa_offset 4
 2950              		.cfi_offset 14, -4
1230:bt.c          ****   //stop the BT handling process
1231:bt.c          ****   stopRecvProc = TRUE;
 2951              		.loc 1 1231 0
 2952 1036 044B     		ldr	r3, .L269
 2953 1038 0122     		mov	r2, #1
 2954 103a 5C33     		add	r3, r3, #92
 2955 103c 1A70     		strb	r2, [r3]
1232:bt.c          ****   osSleep(10);
 2956              		.loc 1 1232 0
 2957 103e 0A20     		mov	r0, #10
 2958 1040 FFF7FEFF 		bl	osSleep
1233:bt.c          **** }
 2959              		.loc 1 1233 0
 2960              		@ sp needed for prologue
 2961 1044 01BC     		pop	{r0}
 2962 1046 0047     		bx	r0
 2963              	.L270:
 2964              		.align	2
 2965              	.L269:
 2966 1048 80000000 		.word	.LANCHOR1
 2967              		.cfi_endproc
 2968              	.LFE15:
 2969              		.size	blockBtProc, .-blockBtProc
 2970              		.align	1
 2971              		.global	activateBtProc
 2972              		.code	16
 2973              		.thumb_func
 2974              		.type	activateBtProc, %function
 2975              	activateBtProc:
 2976              	.LFB16:
1234:bt.c          **** 
ARM GAS  C:\Users\KOZLOV~1\AppData\Local\Temp\cc7z5Qbi.s 			page 84


1235:bt.c          **** 
1236:bt.c          **** /*****************************************************************************
1237:bt.c          ****  *
1238:bt.c          ****  * Description:
1239:bt.c          ****  *    Release any blocking of the Bluetooth handling process
1240:bt.c          ****  *    (that receives/sends characters from/to the BGB203-S06 unit).
1241:bt.c          ****  *
1242:bt.c          ****  ****************************************************************************/
1243:bt.c          **** void
1244:bt.c          **** activateBtProc(void)
1245:bt.c          **** {
 2977              		.loc 1 1245 0
 2978              		.cfi_startproc
 2979 104c 11B5     		push	{r0, r4, lr}
 2980              	.LCFI12:
 2981              		.cfi_def_cfa_offset 12
 2982              		.cfi_offset 0, -12
 2983              		.cfi_offset 4, -8
 2984              		.cfi_offset 14, -4
1246:bt.c          ****   tU8 error;
1247:bt.c          **** 
1248:bt.c          ****   //start BT handling process again
1249:bt.c          ****   stopRecvProc = FALSE;
 2985              		.loc 1 1249 0
 2986 104e 0A4C     		ldr	r4, .L272
 2987 1050 231C     		mov	r3, r4
 2988 1052 5C33     		add	r3, r3, #92
 2989 1054 0022     		mov	r2, #0
1250:bt.c          ****   osSemGive(&recvSem, &error);
 2990              		.loc 1 1250 0
 2991 1056 201C     		mov	r0, r4
 2992 1058 6946     		mov	r1, sp
1249:bt.c          ****   stopRecvProc = FALSE;
 2993              		.loc 1 1249 0
 2994 105a 1A70     		strb	r2, [r3]
 2995              		.loc 1 1250 0
 2996 105c 0331     		add	r1, r1, #3
 2997 105e 4030     		add	r0, r0, #64
 2998 1060 FFF7FEFF 		bl	osSemGive
1251:bt.c          **** 
1252:bt.c          ****   //set to previous mode
1253:bt.c          ****   osSleep(100);
1254:bt.c          ****   btSetMode(btCommandMode);
 2999              		.loc 1 1254 0
 3000 1064 5E34     		add	r4, r4, #94
1253:bt.c          ****   osSleep(100);
 3001              		.loc 1 1253 0
 3002 1066 6420     		mov	r0, #100
 3003 1068 FFF7FEFF 		bl	osSleep
 3004              		.loc 1 1254 0
 3005 106c 2078     		ldrb	r0, [r4]
 3006 106e FFF7B3F8 		bl	btSetMode
1255:bt.c          **** }
 3007              		.loc 1 1255 0
 3008              		@ sp needed for prologue
 3009 1072 11BC     		pop	{r0, r4}
 3010 1074 01BC     		pop	{r0}
ARM GAS  C:\Users\KOZLOV~1\AppData\Local\Temp\cc7z5Qbi.s 			page 85


 3011 1076 0047     		bx	r0
 3012              	.L273:
 3013              		.align	2
 3014              	.L272:
 3015 1078 80000000 		.word	.LANCHOR1
 3016              		.cfi_endproc
 3017              	.LFE16:
 3018              		.size	activateBtProc, .-activateBtProc
 3019              		.section	.rodata.str1.1,"aMS",%progbits,1
 3020              	.LC3:
 3021 0000 2D00     		.ascii	"-\000"
 3022              	.LC9:
 3023 0002 2B2B2B00 		.ascii	"+++\000"
 3024              	.LC11:
 3025 0006 4154490D 		.ascii	"ATI\015\000"
 3025      00
 3026              	.LC13:
 3027 000b 41542B42 		.ascii	"AT+BTLNM\015\000"
 3027      544C4E4D 
 3027      0D00
 3028              	.LC15:
 3029 0015 41542B42 		.ascii	"AT+BTBDA\015\000"
 3029      54424441 
 3029      0D00
 3030              	.LC17:
 3031 001f 41542B42 		.ascii	"AT+BTINQ=5\015\000"
 3031      54494E51 
 3031      3D350D00 
 3032              	.LC19:
 3033 002b 41542B42 		.ascii	"AT+BTSRV=1\015\000"
 3033      54535256 
 3033      3D310D00 
 3034              	.LC22:
 3035 0037 256300   		.ascii	"%c\000"
 3036              	.LC29:
 3037 003a 496E7175 		.ascii	"Inquiry\000"
 3037      69727900 
 3038              	.LC31:
 3039 0042 53657420 		.ascii	"Set name\000"
 3039      6E616D65 
 3039      00
 3040              	.LC33:
 3041 004b 53657420 		.ascii	"Set address\000"
 3041      61646472 
 3041      65737300 
 3042              	.LC35:
 3043 0057 53657420 		.ascii	"Set comm.mode\000"
 3043      636F6D6D 
 3043      2E6D6F64 
 3043      6500
 3044              	.LC37:
 3045 0065 53657420 		.ascii	"Set data mode\000"
 3045      64617461 
 3045      206D6F64 
 3045      6500
 3046              	.LC39:
 3047 0073 44656163 		.ascii	"Deactivate BT\000"
ARM GAS  C:\Users\KOZLOV~1\AppData\Local\Temp\cc7z5Qbi.s 			page 86


 3047      74697661 
 3047      74652042 
 3047      5400
 3048              	.LC41:
 3049 0081 41637469 		.ascii	"Activate BT\000"
 3049      76617465 
 3049      20425400 
 3050              	.LC43:
 3051 008d 4D61696E 		.ascii	"Main menu\000"
 3051      206D656E 
 3051      7500
 3052              	.LC48:
 3053 0097 424C5545 		.ascii	"BLUETOOTH MENU\000"
 3053      544F4F54 
 3053      48204D45 
 3053      4E5500
 3054              	.LC50:
 3055 00a6 42542073 		.ascii	"BT stat:\000"
 3055      7461743A 
 3055      00
 3056              	.LC53:
 3057 00af 41637469 		.ascii	"Active\000"
 3057      766500
 3058              	.LC55:
 3059 00b6 496E6163 		.ascii	"Inactive\000"
 3059      74697665 
 3059      00
 3060              	.LC57:
 3061 00bf 44617461 		.ascii	"Data mode\000"
 3061      206D6F64 
 3061      6500
 3062              	.LC59:
 3063 00c9 436F6D6D 		.ascii	"Command mode\000"
 3063      616E6420 
 3063      6D6F6465 
 3063      00
 3064              	.LC72:
 3065 00d6 41542B42 		.ascii	"AT+BTINQ=6\015\000"
 3065      54494E51 
 3065      3D360D00 
 3066              	.LC76:
 3067 00e2 2B425449 		.ascii	"+BTINQ: \000"
 3067      4E513A20 
 3067      00
 3068              	.LC78:
 3069 00eb 2B425449 		.ascii	"+BTINQ: COMPLETE\000"
 3069      4E513A20 
 3069      434F4D50 
 3069      4C455445 
 3069      00
 3070              	.LC80:
 3071 00fc 20202000 		.ascii	"   \000"
 3072              	.LC82:
 3073 0100 2E202000 		.ascii	".  \000"
 3074              	.LC84:
 3075 0104 2E2E2000 		.ascii	".. \000"
 3076              	.LC86:
ARM GAS  C:\Users\KOZLOV~1\AppData\Local\Temp\cc7z5Qbi.s 			page 87


 3077 0108 2E2E2E00 		.ascii	"...\000"
 3078              	.LC88:
 3079 010c 202E2E00 		.ascii	" ..\000"
 3080              	.LC90:
 3081 0110 20202E00 		.ascii	"  .\000"
 3082              	.LC92:
 3083 0114 2D646F6E 		.ascii	"-done\000"
 3083      6500
 3084              	.LC94:
 3085 011a 41542B42 		.ascii	"AT+BTSDP=\000"
 3085      54534450 
 3085      3D00
 3086              	.LC96:
 3087 0124 0D00     		.ascii	"\015\000"
 3088              	.LC98:
 3089 0126 2B425453 		.ascii	"+BTSDP: COMPLETE\000"
 3089      44503A20 
 3089      434F4D50 
 3089      4C455445 
 3089      00
 3090              	.LC100:
 3091 0137 2B425453 		.ascii	"+BTSDP: \000"
 3091      44503A20 
 3091      00
 3092              	.LC102:
 3093 0140 20202020 		.ascii	"     \000"
 3093      2000
 3094              	.LC104:
 3095 0146 2D202000 		.ascii	"-  \000"
 3096              	.LC106:
 3097 014a 2D2D2000 		.ascii	"-- \000"
 3098              	.LC108:
 3099 014e 2D2D2D00 		.ascii	"---\000"
 3100              	.LC110:
 3101 0152 202D2D00 		.ascii	" --\000"
 3102              	.LC112:
 3103 0156 20202D00 		.ascii	"  -\000"
 3104              	.LC114:
 3105 015a 466F756E 		.ascii	"Found \000"
 3105      642000
 3106              	.LC116:
 3107 0161 20736572 		.ascii	" services\000"
 3107      76696365 
 3107      7300
 3108              	.LC118:
 3109 016b 46697273 		.ascii	"First service\000"
 3109      74207365 
 3109      72766963 
 3109      6500
 3110              	.LC120:
 3111 0179 206E616D 		.ascii	" name is:\000"
 3111      65206973 
 3111      3A00
 3112              	.LC122:
 3113 0183 286E616D 		.ascii	"(name trunc:ed)\000"
 3113      65207472 
 3113      756E633A 
ARM GAS  C:\Users\KOZLOV~1\AppData\Local\Temp\cc7z5Qbi.s 			page 88


 3113      65642900 
 3114              	.LC124:
 3115 0193 53657420 		.ascii	"Set name:\000"
 3115      6E616D65 
 3115      3A00
 3116              	.LC126:
 3117 019d 4D6F7665 		.ascii	"Move cursor and\000"
 3117      20637572 
 3117      736F7220 
 3117      616E6400 
 3118              	.LC128:
 3119 01ad 73657420 		.ascii	"set each char.\000"
 3119      65616368 
 3119      20636861 
 3119      722E00
 3120              	.LC130:
 3121 01bc 45786974 		.ascii	"Exit with c-key\000"
 3121      20776974 
 3121      6820632D 
 3121      6B657900 
 3122              	.LC133:
 3123 01cc 2B42544C 		.ascii	"+BTLNM: \"\000"
 3123      4E4D3A20 
 3123      2200
 3124              	.LC135:
 3125 01d6 45786974 		.ascii	"Exit\000"
 3125      00
 3126              	.LC137:
 3127 01db 43616E63 		.ascii	"Cancel\000"
 3127      656C00
 3128              	.LC139:
 3129 01e2 53746F72 		.ascii	"Store new name\000"
 3129      65206E65 
 3129      77206E61 
 3129      6D6500
 3130              	.LC141:
 3131 01f1 41542B42 		.ascii	"AT+BTLNM=\"\000"
 3131      544C4E4D 
 3131      3D2200
 3132              	.LC143:
 3133 01fc 220D00   		.ascii	"\"\015\000"
 3134              	.LC145:
 3135 01ff 41542B42 		.ascii	"AT+BTFLS\015\000"
 3135      54464C53 
 3135      0D00
 3136              	.LC147:
 3137 0209 53657420 		.ascii	"Set address:\000"
 3137      61646472 
 3137      6573733A 
 3137      00
 3138              	.LC150:
 3139 0216 2B425442 		.ascii	"+BTBDA: \000"
 3139      44413A20 
 3139      00
 3140              	.LC152:
 3141 021f 53746F72 		.ascii	"Store new addr\000"
 3141      65206E65 
ARM GAS  C:\Users\KOZLOV~1\AppData\Local\Temp\cc7z5Qbi.s 			page 89


 3141      77206164 
 3141      647200
 3142              	.LC154:
 3143 022e 41542B42 		.ascii	"AT+BTSET=1,\000"
 3143      54534554 
 3143      3D312C00 
 3144              	.LC156:
 3145 023a 41637469 		.ascii	"Activate\000"
 3145      76617465 
 3145      00
 3146              	.LC158:
 3147 0243 636F6D6D 		.ascii	"command mode\000"
 3147      616E6420 
 3147      6D6F6465 
 3147      00
 3148              	.LC160:
 3149 0250 28756E69 		.ascii	"(unit cannot\000"
 3149      74206361 
 3149      6E6E6F74 
 3149      00
 3150              	.LC162:
 3151 025d 62652064 		.ascii	"be discovered\000"
 3151      6973636F 
 3151      76657265 
 3151      6400
 3152              	.LC164:
 3153 026b 696E2074 		.ascii	"in this mode)\000"
 3153      68697320 
 3153      6D6F6465 
 3153      2900
 3154              	.LC166:
 3155 0279 64617461 		.ascii	"data mode...\000"
 3155      206D6F64 
 3155      652E2E2E 
 3155      00
 3156              	.LC168:
 3157 0286 28756E69 		.ascii	"(unit can now\000"
 3157      74206361 
 3157      6E206E6F 
 3157      7700
 3158              	.LC170:
 3159 0294 62652064 		.ascii	"be discovered)\000"
 3159      6973636F 
 3159      76657265 
 3159      642900
 3160              	.LC172:
 3161 02a3 44656163 		.ascii	"Deactivate\000"
 3161      74697661 
 3161      746500
 3162              	.LC174:
 3163 02ae 4254206D 		.ascii	"BT module...\000"
 3163      6F64756C 
 3163      652E2E2E 
 3163      00
 3164              	.LC177:
 3165 02bb 6D6F6475 		.ascii	"module...\000"
 3165      6C652E2E 
ARM GAS  C:\Users\KOZLOV~1\AppData\Local\Temp\cc7z5Qbi.s 			page 90


 3165      2E00
 3166              		.bss
 3167              		.align	2
 3168              		.set	.LANCHOR0,. + 0
 3169              		.set	.LANCHOR1,. + 128
 3170              		.set	.LANCHOR2,. + 1024
 3171              		.type	foundBtUnits, %object
 3172              		.size	foundBtUnits, 160
 3173              	foundBtUnits:
 3174 0000 00000000 		.space	160
 3174      00000000 
 3174      00000000 
 3174      00000000 
 3174      00000000 
 3175              		.type	localName, %object
 3176              		.size	localName, 17
 3177              	localName:
 3178 00a0 00000000 		.space	17
 3178      00000000 
 3178      00000000 
 3178      00000000 
 3178      00
 3179              		.type	btAddress, %object
 3180              		.size	btAddress, 13
 3181              	btAddress:
 3182 00b1 00000000 		.space	13
 3182      00000000 
 3182      00000000 
 3182      00
 3183 00be 0000     		.space	2
 3184              		.type	recvSem, %object
 3185              		.size	recvSem, 28
 3186              	recvSem:
 3187 00c0 00000000 		.space	28
 3187      00000000 
 3187      00000000 
 3187      00000000 
 3187      00000000 
 3188              		.type	stopRecvProc, %object
 3189              		.size	stopRecvProc, 1
 3190              	stopRecvProc:
 3191 00dc 00       		.space	1
 3192              		.type	btCursor, %object
 3193              		.size	btCursor, 1
 3194              	btCursor:
 3195 00dd 00       		.space	1
 3196              		.type	btCommandMode, %object
 3197              		.size	btCommandMode, 1
 3198              	btCommandMode:
 3199 00de 00       		.space	1
 3200              		.type	btSleepState, %object
 3201              		.size	btSleepState, 1
 3202              	btSleepState:
 3203 00df 00       		.space	1
 3204              		.type	procBtStack, %object
 3205              		.size	procBtStack, 800
 3206              	procBtStack:
ARM GAS  C:\Users\KOZLOV~1\AppData\Local\Temp\cc7z5Qbi.s 			page 91


 3207 00e0 00000000 		.space	800
 3207      00000000 
 3207      00000000 
 3207      00000000 
 3207      00000000 
 3208              		.type	pidBt, %object
 3209              		.size	pidBt, 1
 3210              	pidBt:
 3211 0400 00       		.space	1
 3212 0401 000000   		.text
 3213              	.Letext0:
 3214              		.file 2 "./startup/../pre_emptive_os/api/../api/general.h"
 3215              		.file 3 "./startup/../pre_emptive_os/api/osapi.h"
 3216              		.file 4 "select.h"