ARM GAS  C:\Users\KOZLOV~1\AppData\Local\Temp\ccM4HcVx.s 			page 1


   1              		.code	16
   2              		.file	"eeprom.c"
   3              		.text
   4              	.Ltext0:
   5              		.cfi_sections	.debug_frame
   6              		.align	1
   7              		.global	eepromPoll
   8              		.code	16
   9              		.thumb_func
  10              		.type	eepromPoll, %function
  11              	eepromPoll:
  12              	.LFB0:
  13              		.file 1 "eeprom.c"
   1:eeprom.c      **** /******************************************************************************
   2:eeprom.c      ****  *
   3:eeprom.c      ****  * Copyright:
   4:eeprom.c      ****  *    (C) 2006 Embedded Artists AB
   5:eeprom.c      ****  *
   6:eeprom.c      ****  * File:
   7:eeprom.c      ****  *    eeprom.c
   8:eeprom.c      ****  *
   9:eeprom.c      ****  * Description:
  10:eeprom.c      ****  *    Implements routines for communicating over I2C bus
  11:eeprom.c      ****  *
  12:eeprom.c      ****  *****************************************************************************/
  13:eeprom.c      **** 
  14:eeprom.c      **** /******************************************************************************
  15:eeprom.c      ****  * Includes
  16:eeprom.c      ****  *****************************************************************************/
  17:eeprom.c      **** #include "../pre_emptive_os/api/general.h"
  18:eeprom.c      **** #include "i2c.h"
  19:eeprom.c      **** 
  20:eeprom.c      **** /******************************************************************************
  21:eeprom.c      ****  * Defines and typedefs
  22:eeprom.c      ****  *****************************************************************************/
  23:eeprom.c      **** 
  24:eeprom.c      **** #define EEPROM_SIZE       0x0800
  25:eeprom.c      **** #define LOCAL_EEPROM_ADDR 0x0
  26:eeprom.c      **** #define EEPROM_ADDR       0xA0
  27:eeprom.c      **** 
  28:eeprom.c      **** #define I2C_EEPROM_ADDR   (EEPROM_ADDR + (LOCAL_EEPROM_ADDR << 1))
  29:eeprom.c      **** #define I2C_EEPROM_RCV    (EEPROM_ADDR + (LOCAL_EEPROM_ADDR << 1) + 0x01)
  30:eeprom.c      **** #define I2C_EEPROM_SND    (EEPROM_ADDR + (LOCAL_EEPROM_ADDR << 1) + 0x00)
  31:eeprom.c      **** 
  32:eeprom.c      **** 
  33:eeprom.c      **** /******************************************************************************
  34:eeprom.c      ****  * Implementation of public functions
  35:eeprom.c      ****  *****************************************************************************/
  36:eeprom.c      **** 
  37:eeprom.c      **** /******************************************************************************
  38:eeprom.c      ****  *
  39:eeprom.c      ****  * Description:
  40:eeprom.c      ****  *    Waits till I2C returns ACK (after BURN cycle)
  41:eeprom.c      ****  *
  42:eeprom.c      ****  *    Note: After a stop condition, you may need a bus free time before you 
  43:eeprom.c      ****  *          can generate a new start condition.
  44:eeprom.c      ****  *
ARM GAS  C:\Users\KOZLOV~1\AppData\Local\Temp\ccM4HcVx.s 			page 2


  45:eeprom.c      ****  * Returns:
  46:eeprom.c      ****  *    I2C_CODE_OK or I2C_CODE_ERROR
  47:eeprom.c      ****  *
  48:eeprom.c      ****  *****************************************************************************/
  49:eeprom.c      **** tS8 
  50:eeprom.c      **** eepromPoll(void){
  14              		.loc 1 50 0
  15              		.cfi_startproc
  16 0000 70B5     		push	{r4, r5, r6, lr}
  17              	.LCFI0:
  18              		.cfi_def_cfa_offset 16
  19              		.cfi_offset 4, -16
  20              		.cfi_offset 5, -12
  21              		.cfi_offset 6, -8
  22              		.cfi_offset 14, -4
  23              	.L5:
  51:eeprom.c      ****   tS8 retCode  = I2C_CODE_OK;
  52:eeprom.c      ****   tU8 status   = 0;
  53:eeprom.c      ****   tBool burnEnd = FALSE;
  54:eeprom.c      **** 
  55:eeprom.c      ****   while(burnEnd == FALSE)
  56:eeprom.c      ****   {
  57:eeprom.c      **** getI2cLock();
  24              		.loc 1 57 0
  25 0002 FFF7FEFF 		bl	getI2cLock
  58:eeprom.c      ****     /* Generate Start condition */
  59:eeprom.c      ****     retCode = i2cStart();
  26              		.loc 1 59 0
  27 0006 FFF7FEFF 		bl	i2cStart
  60:eeprom.c      **** 
  61:eeprom.c      ****     /* Transmit SLA+W */
  62:eeprom.c      ****     if(retCode == I2C_CODE_OK)
  28              		.loc 1 62 0
  29 000a 0024     		mov	r4, #0
  59:eeprom.c      ****     retCode = i2cStart();
  30              		.loc 1 59 0
  31 000c 061C     		mov	r6, r0
  32              	.LVL0:
  33              		.loc 1 62 0
  34 000e 0128     		cmp	r0, #1
  35 0010 16D1     		bne	.L2
  36              	.LVL1:
  37              	.L4:
  63:eeprom.c      ****     {
  64:eeprom.c      ****       /* Write SLA+W */
  65:eeprom.c      ****       retCode = i2cPutChar(I2C_EEPROM_SND);
  66:eeprom.c      ****       while(retCode == I2C_CODE_BUSY)
  67:eeprom.c      ****       {
  68:eeprom.c      ****         retCode = i2cPutChar(I2C_EEPROM_SND);
  38              		.loc 1 68 0
  39 0012 A020     		mov	r0, #160
  40 0014 FFF7FEFF 		bl	i2cPutChar
  41              	.LVL2:
  66:eeprom.c      ****       while(retCode == I2C_CODE_BUSY)
  42              		.loc 1 66 0
  43 0018 0506     		lsl	r5, r0, #24
  44 001a 2D16     		asr	r5, r5, #24
ARM GAS  C:\Users\KOZLOV~1\AppData\Local\Temp\ccM4HcVx.s 			page 3


  45 001c 2B1D     		add	r3, r5, #4
  46 001e F8D0     		beq	.L4
  47 0020 061C     		mov	r6, r0
  69:eeprom.c      ****       }
  70:eeprom.c      ****     }
  71:eeprom.c      **** 
  72:eeprom.c      ****     if(retCode == I2C_CODE_OK)
  48              		.loc 1 72 0
  49 0022 0024     		mov	r4, #0
  50 0024 012D     		cmp	r5, #1
  51 0026 0BD1     		bne	.L2
  73:eeprom.c      ****     {
  74:eeprom.c      ****       /* Wait until SLA+W transmitted */
  75:eeprom.c      ****       /* Get new status */
  76:eeprom.c      ****       status = i2cCheckStatus();
  52              		.loc 1 76 0
  53 0028 FFF7FEFF 		bl	i2cCheckStatus
  54              	.LVL3:
  77:eeprom.c      **** 
  78:eeprom.c      ****       if(status == 0x18)
  79:eeprom.c      ****       {
  80:eeprom.c      ****         /* data transmitted and ACK received */
  81:eeprom.c      ****         burnEnd = TRUE;
  55              		.loc 1 81 0
  56 002c 2C1C     		mov	r4, r5
  78:eeprom.c      ****       if(status == 0x18)
  57              		.loc 1 78 0
  58 002e 1828     		cmp	r0, #24
  59 0030 06D0     		beq	.L2
  82:eeprom.c      ****       }
  83:eeprom.c      ****       else if(status == 0x20)
  84:eeprom.c      ****       {
  85:eeprom.c      ****         /* data transmitted and ACK not received */
  86:eeprom.c      ****         // send start bit, start again
  87:eeprom.c      ****         burnEnd = FALSE;
  60              		.loc 1 87 0
  61 0032 0024     		mov	r4, #0
  83:eeprom.c      ****       else if(status == 0x20)
  62              		.loc 1 83 0
  63 0034 2028     		cmp	r0, #32
  64 0036 03D0     		beq	.L2
  88:eeprom.c      ****       }
  89:eeprom.c      ****       else if( status != 0xf8 )
  65              		.loc 1 89 0
  66 0038 F828     		cmp	r0, #248
  67 003a 01D0     		beq	.L2
  90:eeprom.c      ****       {
  91:eeprom.c      ****         /* error ---*/
  92:eeprom.c      ****         retCode = I2C_CODE_ERROR;
  93:eeprom.c      ****         burnEnd = TRUE;
  68              		.loc 1 93 0
  69 003c 2C1C     		mov	r4, r5
  92:eeprom.c      ****         retCode = I2C_CODE_ERROR;
  70              		.loc 1 92 0
  71 003e FF26     		mov	r6, #255
  72              	.LVL4:
  73              	.L2:
ARM GAS  C:\Users\KOZLOV~1\AppData\Local\Temp\ccM4HcVx.s 			page 4


  94:eeprom.c      ****       }
  95:eeprom.c      ****     }
  96:eeprom.c      **** 
  97:eeprom.c      ****     /* Generate Stop condition */
  98:eeprom.c      ****     i2cStop();
  74              		.loc 1 98 0
  75 0040 FFF7FEFF 		bl	i2cStop
  99:eeprom.c      **** releaseI2cLock();
  76              		.loc 1 99 0
  77 0044 FFF7FEFF 		bl	releaseI2cLock
  55:eeprom.c      ****   while(burnEnd == FALSE)
  78              		.loc 1 55 0
  79 0048 002C     		cmp	r4, #0
  80 004a DAD0     		beq	.L5
 100:eeprom.c      **** 
 101:eeprom.c      ****   } // end of while 
 102:eeprom.c      **** 
 103:eeprom.c      **** 
 104:eeprom.c      ****   return retCode;
  81              		.loc 1 104 0
  82 004c 3606     		lsl	r6, r6, #24
  83              	.LVL5:
  84 004e 3016     		asr	r0, r6, #24
 105:eeprom.c      **** 
 106:eeprom.c      **** }
  85              		.loc 1 106 0
  86              		@ sp needed for prologue
  87              	.LVL6:
  88 0050 70BC     		pop	{r4, r5, r6}
  89 0052 02BC     		pop	{r1}
  90 0054 0847     		bx	r1
  91              		.cfi_endproc
  92              	.LFE0:
  93              		.size	eepromPoll, .-eepromPoll
  94              		.align	1
  95              		.global	eepromStartRead
  96              		.code	16
  97              		.thumb_func
  98              		.type	eepromStartRead, %function
  99              	eepromStartRead:
 100              	.LFB1:
 107:eeprom.c      **** 
 108:eeprom.c      **** 
 109:eeprom.c      **** /******************************************************************************
 110:eeprom.c      ****  *
 111:eeprom.c      ****  * Description:
 112:eeprom.c      ****  *    Start a read
 113:eeprom.c      ****  *
 114:eeprom.c      ****  * Params:
 115:eeprom.c      ****  *    [in] devAddr - device address
 116:eeprom.c      ****  *    [in] address - eeprom address
 117:eeprom.c      ****  *
 118:eeprom.c      ****  * Returns:
 119:eeprom.c      ****  *    I2C_CODE_OK or I2C_CODE_ERROR
 120:eeprom.c      ****  *
 121:eeprom.c      ****  *****************************************************************************/
 122:eeprom.c      ****  
ARM GAS  C:\Users\KOZLOV~1\AppData\Local\Temp\ccM4HcVx.s 			page 5


 123:eeprom.c      ****   tS8 eepromStartRead(tU8  devAddr, tU16 address) {
 101              		.loc 1 123 0
 102              		.cfi_startproc
 103 0056 70B5     		push	{r4, r5, r6, lr}
 104              	.LCFI1:
 105              		.cfi_def_cfa_offset 16
 106              		.cfi_offset 4, -16
 107              		.cfi_offset 5, -12
 108              		.cfi_offset 6, -8
 109              		.cfi_offset 14, -4
 110              	.LVL7:
 111              		.loc 1 123 0
 112 0058 0506     		lsl	r5, r0, #24
 113 005a 0C04     		lsl	r4, r1, #16
 114 005c 2D0E     		lsr	r5, r5, #24
 115 005e 260C     		lsr	r6, r4, #16
 124:eeprom.c      ****   tS8 retCode = 0;
 125:eeprom.c      ****   tU8 status  = 0;
 126:eeprom.c      **** 
 127:eeprom.c      ****   /* Generate Start condition */
 128:eeprom.c      ****   retCode = i2cStart();
 116              		.loc 1 128 0
 117 0060 FFF7FEFF 		bl	i2cStart
 118              	.LVL8:
 129:eeprom.c      **** 
 130:eeprom.c      ****   /* Transmit address */
 131:eeprom.c      ****   if(retCode == I2C_CODE_OK )  {
 119              		.loc 1 131 0
 120 0064 0128     		cmp	r0, #1
 121 0066 1ED1     		bne	.L29
 132:eeprom.c      ****     /* Write SLA+W */
 133:eeprom.c      ****       retCode = i2cPutChar(devAddr | ((tU8)(address >> 7) & 0x0e));
 122              		.loc 1 133 0
 123 0068 E40D     		lsr	r4, r4, #23
 124 006a 0E23     		mov	r3, #14
 125 006c 1C40     		and	r4, r3
 126 006e 2C43     		orr	r4, r5
 127              	.LVL9:
 128              	.L15:
 134:eeprom.c      **** //    retCode = i2cPutChar(devAddr);
 135:eeprom.c      ****       
 136:eeprom.c      ****       while( retCode == I2C_CODE_BUSY )    {
 137:eeprom.c      **** //      retCode = i2cPutChar( devAddr );
 138:eeprom.c      ****         retCode = i2cPutChar( devAddr | ((tU8)(address >> 7) & 0x0e));
 129              		.loc 1 138 0
 130 0070 201C     		mov	r0, r4
 131 0072 FFF7FEFF 		bl	i2cPutChar
 132              	.LVL10:
 136:eeprom.c      ****       while( retCode == I2C_CODE_BUSY )    {
 133              		.loc 1 136 0
 134 0076 0006     		lsl	r0, r0, #24
 135              	.LVL11:
 136 0078 0016     		asr	r0, r0, #24
 137 007a 031D     		add	r3, r0, #4
 138 007c F8D0     		beq	.L15
 139:eeprom.c      ****     }
 140:eeprom.c      ****   }
ARM GAS  C:\Users\KOZLOV~1\AppData\Local\Temp\ccM4HcVx.s 			page 6


 141:eeprom.c      **** 
 142:eeprom.c      ****   if( retCode == I2C_CODE_OK )  {
 139              		.loc 1 142 0
 140 007e 0128     		cmp	r0, #1
 141 0080 11D1     		bne	.L29
 142              	.LVL12:
 143              	.L30:
 143:eeprom.c      ****   #if 0
 144:eeprom.c      ****     /* Wait until data transmitted */
 145:eeprom.c      ****     while(1)
 146:eeprom.c      ****     {
 147:eeprom.c      ****       /* Get new status */
 148:eeprom.c      ****       status = i2cCheckStatus();
 149:eeprom.c      **** 
 150:eeprom.c      ****       if( (status == 0x18) || (status == 0x28) )
 151:eeprom.c      ****       {
 152:eeprom.c      ****         /* Data transmitted and ACK received */
 153:eeprom.c      **** 
 154:eeprom.c      **** 
 155:eeprom.c      ****         /* Write data */
 156:eeprom.c      ****         retCode = i2cPutChar( (tU8)(address >> 8) );
 157:eeprom.c      ****         while(retCode == I2C_CODE_BUSY)
 158:eeprom.c      ****         {
 159:eeprom.c      ****           retCode = i2cPutChar( (tU8)(address >> 8) );
 160:eeprom.c      ****         }
 161:eeprom.c      ****         break;
 162:eeprom.c      ****       }
 163:eeprom.c      ****       else if(status != 0xf8)
 164:eeprom.c      ****       {
 165:eeprom.c      ****         /* error */
 166:eeprom.c      ****         retCode = I2C_CODE_ERROR;
 167:eeprom.c      ****         break;
 168:eeprom.c      ****       }
 169:eeprom.c      ****     }
 170:eeprom.c      **** #endif
 171:eeprom.c      **** 
 172:eeprom.c      ****     if(retCode == I2C_CODE_OK)
 173:eeprom.c      ****     {
 174:eeprom.c      ****       /* Wait until data transmitted */
 175:eeprom.c      ****       while(1)
 176:eeprom.c      ****       {
 177:eeprom.c      ****         /* Get new status */
 178:eeprom.c      ****         status = i2cCheckStatus();
 144              		.loc 1 178 0
 145 0082 FFF7FEFF 		bl	i2cCheckStatus
 146              	.LVL13:
 179:eeprom.c      **** 
 180:eeprom.c      ****         if( (status == 0x18) || (status == 0x28) ) {
 147              		.loc 1 180 0
 148 0086 2828     		cmp	r0, #40
 149 0088 01D0     		beq	.L27
 150 008a 1828     		cmp	r0, #24
 151 008c 09D1     		bne	.L16
 152              	.L27:
 181:eeprom.c      ****           /* Data transmitted and ACK received */
 182:eeprom.c      ****           /* Write data */
 183:eeprom.c      ****           retCode = i2cPutChar( (tU8)(address & 0xff) );
ARM GAS  C:\Users\KOZLOV~1\AppData\Local\Temp\ccM4HcVx.s 			page 7


 153              		.loc 1 183 0
 154 008e 3406     		lsl	r4, r6, #24
 155 0090 240E     		lsr	r4, r4, #24
 156              	.LVL14:
 157              	.L19:
 184:eeprom.c      ****           
 185:eeprom.c      ****             while( retCode == I2C_CODE_BUSY ) {
 186:eeprom.c      ****               retCode = i2cPutChar( (tU8)(address & 0xff) );
 158              		.loc 1 186 0
 159 0092 201C     		mov	r0, r4
 160 0094 FFF7FEFF 		bl	i2cPutChar
 161              	.LVL15:
 185:eeprom.c      ****             while( retCode == I2C_CODE_BUSY ) {
 162              		.loc 1 185 0
 163 0098 0006     		lsl	r0, r0, #24
 164              	.LVL16:
 165 009a 0016     		asr	r0, r0, #24
 166 009c 0430     		add	r0, r0, #4
 167 009e F8D0     		beq	.L19
 168 00a0 01E0     		b	.L29
 169              	.LVL17:
 170              	.L16:
 187:eeprom.c      ****             }
 188:eeprom.c      **** 
 189:eeprom.c      ****           break;
 190:eeprom.c      ****         }
 191:eeprom.c      ****         else if( status != 0xf8 )
 171              		.loc 1 191 0
 172 00a2 F828     		cmp	r0, #248
 173 00a4 EDD0     		beq	.L30
 174              	.LVL18:
 175              	.L29:
 192:eeprom.c      ****         {
 193:eeprom.c      ****           /*  error */
 194:eeprom.c      ****           retCode = I2C_CODE_ERROR;
 195:eeprom.c      ****           break;
 196:eeprom.c      ****         }
 197:eeprom.c      ****       }
 198:eeprom.c      ****     }
 199:eeprom.c      ****   }
 200:eeprom.c      **** 
 201:eeprom.c      ****   /* Wait until data transmitted */
 202:eeprom.c      ****   while(1)
 203:eeprom.c      ****   {
 204:eeprom.c      ****     /* Get new status */
 205:eeprom.c      ****     status = i2cCheckStatus();
 176              		.loc 1 205 0
 177 00a6 FFF7FEFF 		bl	i2cCheckStatus
 178              	.LVL19:
 206:eeprom.c      **** 
 207:eeprom.c      ****     if(status == 0x28)
 208:eeprom.c      ****     {
 209:eeprom.c      ****       /* Data transmitted and ACK received */
 210:eeprom.c      ****       break;
 211:eeprom.c      ****     }
 212:eeprom.c      ****     else if( status != 0xf8 )
 179              		.loc 1 212 0
ARM GAS  C:\Users\KOZLOV~1\AppData\Local\Temp\ccM4HcVx.s 			page 8


 180 00aa F828     		cmp	r0, #248
 181 00ac FBD0     		beq	.L29
 213:eeprom.c      ****     {
 214:eeprom.c      ****       /* error */
 215:eeprom.c      ****       retCode = I2C_CODE_ERROR;
 216:eeprom.c      ****       break;
 217:eeprom.c      ****     }
 218:eeprom.c      ****   }
 219:eeprom.c      **** 
 220:eeprom.c      ****   /* Generate Start condition */
 221:eeprom.c      ****   retCode = i2cRepeatStart();
 182              		.loc 1 221 0
 183 00ae FFF7FEFF 		bl	i2cRepeatStart
 184              	.LVL20:
 185 00b2 041C     		mov	r4, r0
 186              	.LVL21:
 222:eeprom.c      **** 
 223:eeprom.c      ****   /* Transmit device address */
 224:eeprom.c      ****   if( retCode == I2C_CODE_OK)
 187              		.loc 1 224 0
 188 00b4 0128     		cmp	r0, #1
 189 00b6 0AD1     		bne	.L28
 225:eeprom.c      ****   {
 226:eeprom.c      ****     /* Write SLA+R */
 227:eeprom.c      ****     retCode = i2cPutChar( devAddr + 0x01 );
 190              		.loc 1 227 0
 191 00b8 0135     		add	r5, r5, #1
 192 00ba 2D06     		lsl	r5, r5, #24
 193 00bc 2D0E     		lsr	r5, r5, #24
 194              	.LVL22:
 195              	.L24:
 228:eeprom.c      ****     while( retCode == I2C_CODE_BUSY )
 229:eeprom.c      ****     {
 230:eeprom.c      ****       retCode = i2cPutChar( devAddr + 0x01 );
 196              		.loc 1 230 0
 197 00be 281C     		mov	r0, r5
 198 00c0 FFF7FEFF 		bl	i2cPutChar
 228:eeprom.c      ****     while( retCode == I2C_CODE_BUSY )
 199              		.loc 1 228 0
 200 00c4 0306     		lsl	r3, r0, #24
 201 00c6 1B16     		asr	r3, r3, #24
 202              		.loc 1 230 0
 203 00c8 041C     		mov	r4, r0
 204              	.LVL23:
 228:eeprom.c      ****     while( retCode == I2C_CODE_BUSY )
 205              		.loc 1 228 0
 206 00ca 0433     		add	r3, r3, #4
 207 00cc F7D0     		beq	.L24
 208              	.LVL24:
 209              	.L28:
 231:eeprom.c      ****     }
 232:eeprom.c      ****   }
 233:eeprom.c      **** 
 234:eeprom.c      ****   /* Wait until SLA+R transmitted */
 235:eeprom.c      ****   while(1)
 236:eeprom.c      ****   {
 237:eeprom.c      ****     /* Get new status */
ARM GAS  C:\Users\KOZLOV~1\AppData\Local\Temp\ccM4HcVx.s 			page 9


 238:eeprom.c      ****     status = i2cCheckStatus();
 210              		.loc 1 238 0
 211 00ce FFF7FEFF 		bl	i2cCheckStatus
 212              	.LVL25:
 239:eeprom.c      **** 
 240:eeprom.c      ****     if(status == 0x40)
 213              		.loc 1 240 0
 214 00d2 4028     		cmp	r0, #64
 215 00d4 02D0     		beq	.L25
 241:eeprom.c      ****     {
 242:eeprom.c      ****       /* Data transmitted and ACK received */
 243:eeprom.c      ****       break;
 244:eeprom.c      ****     }
 245:eeprom.c      ****     else if(status != 0xf8)
 216              		.loc 1 245 0
 217 00d6 F828     		cmp	r0, #248
 218 00d8 F9D0     		beq	.L28
 246:eeprom.c      ****     {
 247:eeprom.c      ****       /* error */
 248:eeprom.c      ****       retCode = I2C_CODE_ERROR;
 219              		.loc 1 248 0
 220 00da FF24     		mov	r4, #255
 221              	.LVL26:
 222              	.L25:
 249:eeprom.c      ****       break;
 250:eeprom.c      ****     }
 251:eeprom.c      ****   }
 252:eeprom.c      **** 
 253:eeprom.c      ****   // Do not generate a stop bit
 254:eeprom.c      **** 
 255:eeprom.c      ****   return retCode;
 223              		.loc 1 255 0
 224 00dc 2406     		lsl	r4, r4, #24
 225              	.LVL27:
 226 00de 2016     		asr	r0, r4, #24
 227              	.LVL28:
 256:eeprom.c      **** }
 228              		.loc 1 256 0
 229              		@ sp needed for prologue
 230 00e0 70BC     		pop	{r4, r5, r6}
 231 00e2 02BC     		pop	{r1}
 232 00e4 0847     		bx	r1
 233              		.cfi_endproc
 234              	.LFE1:
 235              		.size	eepromStartRead, .-eepromStartRead
 236              		.align	1
 237              		.global	eepromPageRead
 238              		.code	16
 239              		.thumb_func
 240              		.type	eepromPageRead, %function
 241              	eepromPageRead:
 242              	.LFB2:
 257:eeprom.c      **** 
 258:eeprom.c      **** 
 259:eeprom.c      **** /******************************************************************************
 260:eeprom.c      ****  *
 261:eeprom.c      ****  * Description:
ARM GAS  C:\Users\KOZLOV~1\AppData\Local\Temp\ccM4HcVx.s 			page 10


 262:eeprom.c      ****  *    Random read from 'address'. Write read bytes to 'pBuf'.
 263:eeprom.c      ****  *
 264:eeprom.c      ****  *****************************************************************************/
 265:eeprom.c      **** tS8 
 266:eeprom.c      **** eepromPageRead(tU16 address, 
 267:eeprom.c      ****                tU8* pBuf, 
 268:eeprom.c      ****                tU16 len) 
 269:eeprom.c      **** {
 243              		.loc 1 269 0
 244              		.cfi_startproc
 245 00e6 F0B5     		push	{r4, r5, r6, r7, lr}
 246              	.LCFI2:
 247              		.cfi_def_cfa_offset 20
 248              		.cfi_offset 4, -20
 249              		.cfi_offset 5, -16
 250              		.cfi_offset 6, -12
 251              		.cfi_offset 7, -8
 252              		.cfi_offset 14, -4
 253              	.LVL29:
 254              		.loc 1 269 0
 255 00e8 0404     		lsl	r4, r0, #16
 256 00ea 240C     		lsr	r4, r4, #16
 257 00ec 1704     		lsl	r7, r2, #16
 258 00ee 0E1C     		mov	r6, r1
 270:eeprom.c      ****   tS8  retCode = 0;
 271:eeprom.c      ****   tU8  status  = 0;
 272:eeprom.c      ****   tU16 i       = 0;
 273:eeprom.c      **** 
 274:eeprom.c      **** getI2cLock();
 259              		.loc 1 274 0
 260 00f0 FFF7FEFF 		bl	getI2cLock
 261              	.LVL30:
 275:eeprom.c      ****   /* Write 3/4 bytes, see 24Cxx Random Read */
 276:eeprom.c      ****   retCode = eepromStartRead(I2C_EEPROM_ADDR, address);
 262              		.loc 1 276 0
 263 00f4 211C     		mov	r1, r4
 264 00f6 A020     		mov	r0, #160
 265 00f8 FFF7FEFF 		bl	eepromStartRead
 269:eeprom.c      **** {
 266              		.loc 1 269 0
 267 00fc 3F0C     		lsr	r7, r7, #16
 268              		.loc 1 276 0
 269 00fe 041C     		mov	r4, r0
 270              	.LVL31:
 277:eeprom.c      **** 
 278:eeprom.c      **** 
 279:eeprom.c      ****   if( retCode == I2C_CODE_OK )
 271              		.loc 1 279 0
 272 0100 0128     		cmp	r0, #1
 273 0102 25D1     		bne	.L36
 274 0104 21E0     		b	.L49
 275              	.LVL32:
 276              	.L46:
 280:eeprom.c      ****   {
 281:eeprom.c      ****     /* wait until address transmitted and receive data */
 282:eeprom.c      ****     for(i = 1; i <= len; i++ )
 283:eeprom.c      ****     {
ARM GAS  C:\Users\KOZLOV~1\AppData\Local\Temp\ccM4HcVx.s 			page 11


 284:eeprom.c      ****       /* wait until data transmitted */
 285:eeprom.c      ****       while(1)
 286:eeprom.c      ****       {
 287:eeprom.c      ****         /* Get new status */
 288:eeprom.c      ****         status = i2cCheckStatus();
 277              		.loc 1 288 0
 278 0106 FFF7FEFF 		bl	i2cCheckStatus
 279              	.LVL33:
 289:eeprom.c      **** 
 290:eeprom.c      ****         if(( status == 0x40 ) || ( status == 0x48 ) || ( status == 0x50 ))
 280              		.loc 1 290 0
 281 010a 4828     		cmp	r0, #72
 282 010c 03D0     		beq	.L37
 283 010e 4028     		cmp	r0, #64
 284 0110 01D0     		beq	.L37
 285              		.loc 1 290 0 is_stmt 0 discriminator 1
 286 0112 5028     		cmp	r0, #80
 287 0114 11D1     		bne	.L38
 288              	.L37:
 291:eeprom.c      ****         {
 292:eeprom.c      ****           /* Data received */
 293:eeprom.c      **** 
 294:eeprom.c      ****           if(i == len )
 295:eeprom.c      ****           {
 296:eeprom.c      ****             /* Set generate NACK */
 297:eeprom.c      ****             retCode = i2cGetChar( I2C_MODE_ACK1, pBuf );
 289              		.loc 1 297 0 is_stmt 1
 290 0116 0120     		mov	r0, #1
 291              	.LVL34:
 294:eeprom.c      ****           if(i == len )
 292              		.loc 1 294 0
 293 0118 BD42     		cmp	r5, r7
 294 011a 00D0     		beq	.L48
 298:eeprom.c      ****           }
 299:eeprom.c      ****           else
 300:eeprom.c      ****           {
 301:eeprom.c      ****             retCode = i2cGetChar( I2C_MODE_ACK0, pBuf );
 295              		.loc 1 301 0
 296 011c 0020     		mov	r0, #0
 297              	.L48:
 298 011e 311C     		mov	r1, r6
 299 0120 FFF7FEFF 		bl	i2cGetChar
 300              	.LVL35:
 301              	.L42:
 302:eeprom.c      ****           }
 303:eeprom.c      **** 
 304:eeprom.c      ****           /* Read data */
 305:eeprom.c      ****           retCode = i2cGetChar( I2C_MODE_READ, pBuf );
 306:eeprom.c      ****           while( retCode == I2C_CODE_EMPTY )
 307:eeprom.c      ****           {
 308:eeprom.c      ****             retCode = i2cGetChar( I2C_MODE_READ, pBuf );
 302              		.loc 1 308 0
 303 0124 0220     		mov	r0, #2
 304 0126 311C     		mov	r1, r6
 305 0128 FFF7FEFF 		bl	i2cGetChar
 306:eeprom.c      ****           while( retCode == I2C_CODE_EMPTY )
 306              		.loc 1 306 0
ARM GAS  C:\Users\KOZLOV~1\AppData\Local\Temp\ccM4HcVx.s 			page 12


 307 012c 0306     		lsl	r3, r0, #24
 308 012e 1B16     		asr	r3, r3, #24
 309              		.loc 1 308 0
 310 0130 041C     		mov	r4, r0
 311              	.LVL36:
 306:eeprom.c      ****           while( retCode == I2C_CODE_EMPTY )
 312              		.loc 1 306 0
 313 0132 0333     		add	r3, r3, #3
 314 0134 F6D0     		beq	.L42
 309:eeprom.c      ****           }
 310:eeprom.c      ****           pBuf++;
 315              		.loc 1 310 0
 316 0136 0136     		add	r6, r6, #1
 317              	.LVL37:
 311:eeprom.c      **** 
 312:eeprom.c      ****           break;
 318              		.loc 1 312 0
 319 0138 03E0     		b	.L43
 320              	.LVL38:
 321              	.L38:
 313:eeprom.c      ****         }
 314:eeprom.c      ****         else if( status != 0xf8 )
 322              		.loc 1 314 0
 323 013a F828     		cmp	r0, #248
 324 013c E3D0     		beq	.L46
 325 013e 3D1C     		mov	r5, r7
 326              	.LVL39:
 315:eeprom.c      ****         {
 316:eeprom.c      ****           /* ERROR */
 317:eeprom.c      ****           i = len;
 318:eeprom.c      ****           retCode = I2C_CODE_ERROR;
 327              		.loc 1 318 0
 328 0140 FF24     		mov	r4, #255
 329              	.LVL40:
 330              	.L43:
 282:eeprom.c      ****     for(i = 1; i <= len; i++ )
 331              		.loc 1 282 0
 332 0142 0135     		add	r5, r5, #1
 333              	.LVL41:
 334 0144 2D04     		lsl	r5, r5, #16
 335              	.LVL42:
 336 0146 2D0C     		lsr	r5, r5, #16
 337              	.LVL43:
 338 0148 00E0     		b	.L35
 339              	.LVL44:
 340              	.L49:
 279:eeprom.c      ****   if( retCode == I2C_CODE_OK )
 341              		.loc 1 279 0
 342 014a 051C     		mov	r5, r0
 343              	.LVL45:
 344              	.L35:
 282:eeprom.c      ****     for(i = 1; i <= len; i++ )
 345              		.loc 1 282 0 discriminator 1
 346 014c BD42     		cmp	r5, r7
 347 014e DAD9     		bls	.L46
 348              	.LVL46:
 349              	.L36:
ARM GAS  C:\Users\KOZLOV~1\AppData\Local\Temp\ccM4HcVx.s 			page 13


 319:eeprom.c      ****           break;
 320:eeprom.c      ****         }
 321:eeprom.c      ****       }
 322:eeprom.c      ****     }
 323:eeprom.c      ****   }
 324:eeprom.c      **** 
 325:eeprom.c      ****   /* Generate Stop condition */
 326:eeprom.c      ****   i2cStop();
 327:eeprom.c      **** releaseI2cLock();
 328:eeprom.c      **** 
 329:eeprom.c      ****   return retCode;
 350              		.loc 1 329 0
 351 0150 2406     		lsl	r4, r4, #24
 352              	.LVL47:
 326:eeprom.c      ****   i2cStop();
 353              		.loc 1 326 0
 354 0152 FFF7FEFF 		bl	i2cStop
 330:eeprom.c      **** 
 331:eeprom.c      **** }
 355              		.loc 1 331 0
 356              		@ sp needed for prologue
 327:eeprom.c      **** releaseI2cLock();
 357              		.loc 1 327 0
 358 0156 FFF7FEFF 		bl	releaseI2cLock
 329:eeprom.c      ****   return retCode;
 359              		.loc 1 329 0
 360 015a 2016     		asr	r0, r4, #24
 361              	.LVL48:
 362              		.loc 1 331 0
 363 015c F0BC     		pop	{r4, r5, r6, r7}
 364 015e 02BC     		pop	{r1}
 365 0160 0847     		bx	r1
 366              		.cfi_endproc
 367              	.LFE2:
 368              		.size	eepromPageRead, .-eepromPageRead
 369              		.align	1
 370              		.global	eepromWrite
 371              		.code	16
 372              		.thumb_func
 373              		.type	eepromWrite, %function
 374              	eepromWrite:
 375              	.LFB3:
 332:eeprom.c      **** 
 333:eeprom.c      **** 
 334:eeprom.c      **** /******************************************************************************
 335:eeprom.c      ****  *
 336:eeprom.c      ****  * Description:
 337:eeprom.c      ****  *    Start a (random) write operation
 338:eeprom.c      ****  *
 339:eeprom.c      ****  *****************************************************************************/
 340:eeprom.c      **** tS8
 341:eeprom.c      **** eepromWrite(tU16 addr,
 342:eeprom.c      ****             tU8* pData,
 343:eeprom.c      ****             tU16 len)
 344:eeprom.c      **** {
 376              		.loc 1 344 0
 377              		.cfi_startproc
ARM GAS  C:\Users\KOZLOV~1\AppData\Local\Temp\ccM4HcVx.s 			page 14


 378 0162 F1B5     		push	{r0, r4, r5, r6, r7, lr}
 379              	.LCFI3:
 380              		.cfi_def_cfa_offset 24
 381              		.cfi_offset 0, -24
 382              		.cfi_offset 4, -20
 383              		.cfi_offset 5, -16
 384              		.cfi_offset 6, -12
 385              		.cfi_offset 7, -8
 386              		.cfi_offset 14, -4
 387              	.LVL49:
 388              		.loc 1 344 0
 389 0164 0504     		lsl	r5, r0, #16
 390 0166 1604     		lsl	r6, r2, #16
 391 0168 0091     		str	r1, [sp]
 345:eeprom.c      ****   tS8  retCode = 0;
 346:eeprom.c      ****   tU16 i       = 0;
 347:eeprom.c      **** 
 348:eeprom.c      **** getI2cLock();
 392              		.loc 1 348 0
 393 016a FFF7FEFF 		bl	getI2cLock
 394              	.LVL50:
 349:eeprom.c      ****   do
 350:eeprom.c      ****   {
 351:eeprom.c      **** 
 352:eeprom.c      ****     /* generate Start condition */
 353:eeprom.c      ****     retCode = i2cStart();
 395              		.loc 1 353 0
 396 016e FFF7FEFF 		bl	i2cStart
 344:eeprom.c      **** {
 397              		.loc 1 344 0
 398 0172 2F0C     		lsr	r7, r5, #16
 399 0174 360C     		lsr	r6, r6, #16
 400              		.loc 1 353 0
 401 0176 041C     		mov	r4, r0
 402              	.LVL51:
 354:eeprom.c      ****     if(retCode != I2C_CODE_OK)
 403              		.loc 1 354 0
 404 0178 0128     		cmp	r0, #1
 405 017a 1FD1     		bne	.L51
 355:eeprom.c      ****       break;
 356:eeprom.c      **** 
 357:eeprom.c      **** 
 358:eeprom.c      ****     /* write EEPROM I2C address */
 359:eeprom.c      ****     retCode = i2cWriteWithWait(I2C_EEPROM_ADDR | ((tU8)(addr >> 7) & 0x0e));
 406              		.loc 1 359 0
 407 017c 0E23     		mov	r3, #14
 408 017e E80D     		lsr	r0, r5, #23
 409              	.LVL52:
 410 0180 1840     		and	r0, r3
 411 0182 A023     		mov	r3, #160
 412 0184 1843     		orr	r0, r3
 413 0186 FFF7FEFF 		bl	i2cWriteWithWait
 414 018a 041C     		mov	r4, r0
 415              	.LVL53:
 360:eeprom.c      **** //    retCode = i2cWriteWithWait(I2C_EEPROM_ADDR);
 361:eeprom.c      ****     if(retCode != I2C_CODE_OK)
 416              		.loc 1 361 0
ARM GAS  C:\Users\KOZLOV~1\AppData\Local\Temp\ccM4HcVx.s 			page 15


 417 018c 0128     		cmp	r0, #1
 418 018e 15D1     		bne	.L51
 362:eeprom.c      ****       break;
 363:eeprom.c      **** 
 364:eeprom.c      **** #if 0
 365:eeprom.c      ****     /* write offset high in EEPROM space  */
 366:eeprom.c      ****     retCode = i2cWriteWithWait( (tU8)(addr >> 8));
 367:eeprom.c      ****     if(retCode != I2C_CODE_OK)
 368:eeprom.c      ****       break;
 369:eeprom.c      **** #endif
 370:eeprom.c      **** 
 371:eeprom.c      ****     /* write offset low in EEPROM space  */
 372:eeprom.c      ****     retCode = i2cWriteWithWait( (tU8)(addr & 0xFF));
 419              		.loc 1 372 0
 420 0190 3806     		lsl	r0, r7, #24
 421              	.LVL54:
 422 0192 000E     		lsr	r0, r0, #24
 423 0194 FFF7FEFF 		bl	i2cWriteWithWait
 373:eeprom.c      ****     if(retCode != I2C_CODE_OK)
 424              		.loc 1 373 0
 425 0198 0025     		mov	r5, #0
 372:eeprom.c      ****     retCode = i2cWriteWithWait( (tU8)(addr & 0xFF));
 426              		.loc 1 372 0
 427 019a 041C     		mov	r4, r0
 428              	.LVL55:
 429              		.loc 1 373 0
 430 019c 0128     		cmp	r0, #1
 431 019e 0DD1     		bne	.L51
 432 01a0 06E0     		b	.L52
 433              	.LVL56:
 434              	.L53:
 374:eeprom.c      ****       break;
 375:eeprom.c      **** 
 376:eeprom.c      **** 
 377:eeprom.c      ****     /* write data */
 378:eeprom.c      ****     for(i = 0; i <len; i++)
 379:eeprom.c      ****     {
 380:eeprom.c      ****       retCode = i2cWriteWithWait(*pData);
 435              		.loc 1 380 0
 436 01a2 009B     		ldr	r3, [sp]
 437 01a4 585D     		ldrb	r0, [r3, r5]
 438 01a6 FFF7FEFF 		bl	i2cWriteWithWait
 439              	.LVL57:
 440 01aa 0135     		add	r5, r5, #1
 381:eeprom.c      ****       if(retCode != I2C_CODE_OK)
 441              		.loc 1 381 0
 442 01ac 0128     		cmp	r0, #1
 443 01ae 04D1     		bne	.L54
 444              	.LVL58:
 445              	.L52:
 378:eeprom.c      ****     for(i = 0; i <len; i++)
 446              		.loc 1 378 0 discriminator 1
 447 01b0 2B04     		lsl	r3, r5, #16
 448 01b2 1B0C     		lsr	r3, r3, #16
 449 01b4 B342     		cmp	r3, r6
 450 01b6 F4D3     		bcc	.L53
 451 01b8 00E0     		b	.L51
ARM GAS  C:\Users\KOZLOV~1\AppData\Local\Temp\ccM4HcVx.s 			page 16


 452              	.LVL59:
 453              	.L54:
 380:eeprom.c      ****       retCode = i2cWriteWithWait(*pData);
 454              		.loc 1 380 0
 455 01ba 041C     		mov	r4, r0
 456              	.LVL60:
 457              	.L51:
 382:eeprom.c      ****         break;
 383:eeprom.c      **** 
 384:eeprom.c      ****       pData++;
 385:eeprom.c      ****     }
 386:eeprom.c      **** 
 387:eeprom.c      ****   } while(0);
 388:eeprom.c      **** 
 389:eeprom.c      ****   /* generate Stop condition */
 390:eeprom.c      ****   i2cStop();
 391:eeprom.c      **** releaseI2cLock();
 392:eeprom.c      **** 
 393:eeprom.c      **** 
 394:eeprom.c      ****   return retCode;
 458              		.loc 1 394 0
 459 01bc 2406     		lsl	r4, r4, #24
 460              	.LVL61:
 390:eeprom.c      ****   i2cStop();
 461              		.loc 1 390 0
 462 01be FFF7FEFF 		bl	i2cStop
 395:eeprom.c      **** }
 463              		.loc 1 395 0
 464              		@ sp needed for prologue
 391:eeprom.c      **** releaseI2cLock();
 465              		.loc 1 391 0
 466 01c2 FFF7FEFF 		bl	releaseI2cLock
 394:eeprom.c      ****   return retCode;
 467              		.loc 1 394 0
 468 01c6 2016     		asr	r0, r4, #24
 469              		.loc 1 395 0
 470 01c8 F2BC     		pop	{r1, r4, r5, r6, r7}
 471 01ca 02BC     		pop	{r1}
 472 01cc 0847     		bx	r1
 473              		.cfi_endproc
 474              	.LFE3:
 475              		.size	eepromWrite, .-eepromWrite
 476              		.align	1
 477              		.global	lm75Read
 478              		.code	16
 479              		.thumb_func
 480              		.type	lm75Read, %function
 481              	lm75Read:
 482              	.LFB4:
 396:eeprom.c      **** 
 397:eeprom.c      **** 
 398:eeprom.c      **** /******************************************************************************
 399:eeprom.c      ****  *
 400:eeprom.c      ****  * Description:
 401:eeprom.c      ****  *    Read the temperature from a LM75 temperature sensor
 402:eeprom.c      ****  *
 403:eeprom.c      ****  *****************************************************************************/
ARM GAS  C:\Users\KOZLOV~1\AppData\Local\Temp\ccM4HcVx.s 			page 17


 404:eeprom.c      **** tS8 
 405:eeprom.c      **** lm75Read(tU8 address, tU8* pBuf, tU16 len) 
 406:eeprom.c      **** {
 483              		.loc 1 406 0
 484              		.cfi_startproc
 485 01ce F0B5     		push	{r4, r5, r6, r7, lr}
 486              	.LCFI4:
 487              		.cfi_def_cfa_offset 20
 488              		.cfi_offset 4, -20
 489              		.cfi_offset 5, -16
 490              		.cfi_offset 6, -12
 491              		.cfi_offset 7, -8
 492              		.cfi_offset 14, -4
 493              	.LVL62:
 494              		.loc 1 406 0
 495 01d0 0406     		lsl	r4, r0, #24
 496 01d2 240E     		lsr	r4, r4, #24
 497 01d4 1704     		lsl	r7, r2, #16
 498 01d6 0E1C     		mov	r6, r1
 407:eeprom.c      ****   tS8  retCode = 0;
 408:eeprom.c      ****   tU8  status  = 0;
 409:eeprom.c      ****   tU16 i       = 0;
 410:eeprom.c      **** 
 411:eeprom.c      **** getI2cLock();
 499              		.loc 1 411 0
 500 01d8 FFF7FEFF 		bl	getI2cLock
 501              	.LVL63:
 412:eeprom.c      ****   retCode = eepromStartRead(address, 0);
 502              		.loc 1 412 0
 503 01dc 201C     		mov	r0, r4
 504 01de 0021     		mov	r1, #0
 505 01e0 FFF7FEFF 		bl	eepromStartRead
 406:eeprom.c      **** {
 506              		.loc 1 406 0
 507 01e4 3F0C     		lsr	r7, r7, #16
 508              		.loc 1 412 0
 509 01e6 041C     		mov	r4, r0
 510              	.LVL64:
 413:eeprom.c      **** 
 414:eeprom.c      **** 
 415:eeprom.c      ****   if( retCode == I2C_CODE_OK )
 511              		.loc 1 415 0
 512 01e8 0128     		cmp	r0, #1
 513 01ea 25D1     		bne	.L57
 514 01ec 21E0     		b	.L70
 515              	.LVL65:
 516              	.L67:
 416:eeprom.c      ****   {
 417:eeprom.c      ****     /* wait until address transmitted and receive data */
 418:eeprom.c      ****     for(i = 1; i <= len; i++ )
 419:eeprom.c      ****     {
 420:eeprom.c      ****       /* wait until data transmitted */
 421:eeprom.c      ****       while(1)
 422:eeprom.c      ****       {
 423:eeprom.c      ****         /* Get new status */
 424:eeprom.c      ****         status = i2cCheckStatus();
 517              		.loc 1 424 0
ARM GAS  C:\Users\KOZLOV~1\AppData\Local\Temp\ccM4HcVx.s 			page 18


 518 01ee FFF7FEFF 		bl	i2cCheckStatus
 519              	.LVL66:
 425:eeprom.c      **** 
 426:eeprom.c      ****         if(( status == 0x40 ) || ( status == 0x48 ) || ( status == 0x50 ))
 520              		.loc 1 426 0
 521 01f2 4828     		cmp	r0, #72
 522 01f4 03D0     		beq	.L58
 523 01f6 4028     		cmp	r0, #64
 524 01f8 01D0     		beq	.L58
 525              		.loc 1 426 0 is_stmt 0 discriminator 1
 526 01fa 5028     		cmp	r0, #80
 527 01fc 11D1     		bne	.L59
 528              	.L58:
 427:eeprom.c      ****         {
 428:eeprom.c      ****           /* Data received */
 429:eeprom.c      **** 
 430:eeprom.c      ****           if(i == len )
 431:eeprom.c      ****           {
 432:eeprom.c      ****             /* Set generate NACK */
 433:eeprom.c      ****             retCode = i2cGetChar( I2C_MODE_ACK1, pBuf );
 529              		.loc 1 433 0 is_stmt 1
 530 01fe 0120     		mov	r0, #1
 531              	.LVL67:
 430:eeprom.c      ****           if(i == len )
 532              		.loc 1 430 0
 533 0200 BD42     		cmp	r5, r7
 534 0202 00D0     		beq	.L69
 434:eeprom.c      ****           }
 435:eeprom.c      ****           else
 436:eeprom.c      ****           {
 437:eeprom.c      ****             retCode = i2cGetChar( I2C_MODE_ACK0, pBuf );
 535              		.loc 1 437 0
 536 0204 0020     		mov	r0, #0
 537              	.L69:
 538 0206 311C     		mov	r1, r6
 539 0208 FFF7FEFF 		bl	i2cGetChar
 540              	.LVL68:
 541              	.L63:
 438:eeprom.c      ****           }
 439:eeprom.c      **** 
 440:eeprom.c      ****           /* Read data */
 441:eeprom.c      ****           retCode = i2cGetChar( I2C_MODE_READ, pBuf );
 442:eeprom.c      ****           while( retCode == I2C_CODE_EMPTY )
 443:eeprom.c      ****           {
 444:eeprom.c      ****             retCode = i2cGetChar( I2C_MODE_READ, pBuf );
 542              		.loc 1 444 0
 543 020c 0220     		mov	r0, #2
 544 020e 311C     		mov	r1, r6
 545 0210 FFF7FEFF 		bl	i2cGetChar
 442:eeprom.c      ****           while( retCode == I2C_CODE_EMPTY )
 546              		.loc 1 442 0
 547 0214 0306     		lsl	r3, r0, #24
 548 0216 1B16     		asr	r3, r3, #24
 549              		.loc 1 444 0
 550 0218 041C     		mov	r4, r0
 551              	.LVL69:
 442:eeprom.c      ****           while( retCode == I2C_CODE_EMPTY )
ARM GAS  C:\Users\KOZLOV~1\AppData\Local\Temp\ccM4HcVx.s 			page 19


 552              		.loc 1 442 0
 553 021a 0333     		add	r3, r3, #3
 554 021c F6D0     		beq	.L63
 445:eeprom.c      ****           }
 446:eeprom.c      ****           pBuf++;
 555              		.loc 1 446 0
 556 021e 0136     		add	r6, r6, #1
 557              	.LVL70:
 447:eeprom.c      **** 
 448:eeprom.c      ****           break;
 558              		.loc 1 448 0
 559 0220 03E0     		b	.L64
 560              	.LVL71:
 561              	.L59:
 449:eeprom.c      ****         }
 450:eeprom.c      ****         else if( status != 0xf8 )
 562              		.loc 1 450 0
 563 0222 F828     		cmp	r0, #248
 564 0224 E3D0     		beq	.L67
 565 0226 3D1C     		mov	r5, r7
 566              	.LVL72:
 451:eeprom.c      ****         {
 452:eeprom.c      ****           /* ERROR */
 453:eeprom.c      ****           i = len;
 454:eeprom.c      ****           retCode = I2C_CODE_ERROR;
 567              		.loc 1 454 0
 568 0228 FF24     		mov	r4, #255
 569              	.LVL73:
 570              	.L64:
 418:eeprom.c      ****     for(i = 1; i <= len; i++ )
 571              		.loc 1 418 0
 572 022a 0135     		add	r5, r5, #1
 573              	.LVL74:
 574 022c 2D04     		lsl	r5, r5, #16
 575              	.LVL75:
 576 022e 2D0C     		lsr	r5, r5, #16
 577              	.LVL76:
 578 0230 00E0     		b	.L56
 579              	.LVL77:
 580              	.L70:
 415:eeprom.c      ****   if( retCode == I2C_CODE_OK )
 581              		.loc 1 415 0
 582 0232 051C     		mov	r5, r0
 583              	.LVL78:
 584              	.L56:
 418:eeprom.c      ****     for(i = 1; i <= len; i++ )
 585              		.loc 1 418 0 discriminator 1
 586 0234 BD42     		cmp	r5, r7
 587 0236 DAD9     		bls	.L67
 588              	.LVL79:
 589              	.L57:
 455:eeprom.c      ****           break;
 456:eeprom.c      ****         }
 457:eeprom.c      ****       }
 458:eeprom.c      ****     }
 459:eeprom.c      ****   }
 460:eeprom.c      **** 
ARM GAS  C:\Users\KOZLOV~1\AppData\Local\Temp\ccM4HcVx.s 			page 20


 461:eeprom.c      ****   /* Generate Stop condition */
 462:eeprom.c      ****   i2cStop();
 463:eeprom.c      **** releaseI2cLock();
 464:eeprom.c      **** 
 465:eeprom.c      ****   return retCode;
 590              		.loc 1 465 0
 591 0238 2406     		lsl	r4, r4, #24
 592              	.LVL80:
 462:eeprom.c      ****   i2cStop();
 593              		.loc 1 462 0
 594 023a FFF7FEFF 		bl	i2cStop
 466:eeprom.c      **** 
 467:eeprom.c      **** }
 595              		.loc 1 467 0
 596              		@ sp needed for prologue
 463:eeprom.c      **** releaseI2cLock();
 597              		.loc 1 463 0
 598 023e FFF7FEFF 		bl	releaseI2cLock
 465:eeprom.c      ****   return retCode;
 599              		.loc 1 465 0
 600 0242 2016     		asr	r0, r4, #24
 601              	.LVL81:
 602              		.loc 1 467 0
 603 0244 F0BC     		pop	{r4, r5, r6, r7}
 604 0246 02BC     		pop	{r1}
 605 0248 0847     		bx	r1
 606              		.cfi_endproc
 607              	.LFE4:
 608              		.size	lm75Read, .-lm75Read
 609              		.align	1
 610              		.global	pca9532
 611              		.code	16
 612              		.thumb_func
 613              		.type	pca9532, %function
 614              	pca9532:
 615              	.LFB5:
 468:eeprom.c      **** 
 469:eeprom.c      **** 
 470:eeprom.c      **** /******************************************************************************
 471:eeprom.c      ****  *
 472:eeprom.c      ****  * Description:
 473:eeprom.c      ****  *    Communicate with the PCA9532
 474:eeprom.c      ****  *    First pBuf/len = bytes to write
 475:eeprom.c      ****  *    Second pBuf2/len2 = bytes to read
 476:eeprom.c      ****  *
 477:eeprom.c      ****  *****************************************************************************/
 478:eeprom.c      **** tS8
 479:eeprom.c      **** pca9532(tU8* pBuf, tU16 len, tU8* pBuf2, tU16 len2) 
 480:eeprom.c      **** {
 616              		.loc 1 480 0
 617              		.cfi_startproc
 618 024a F3B5     		push	{r0, r1, r4, r5, r6, r7, lr}
 619              	.LCFI5:
 620              		.cfi_def_cfa_offset 28
 621              		.cfi_offset 0, -28
 622              		.cfi_offset 1, -24
 623              		.cfi_offset 4, -20
ARM GAS  C:\Users\KOZLOV~1\AppData\Local\Temp\ccM4HcVx.s 			page 21


 624              		.cfi_offset 5, -16
 625              		.cfi_offset 6, -12
 626              		.cfi_offset 7, -8
 627              		.cfi_offset 14, -4
 628              	.LVL82:
 629              		.loc 1 480 0
 630 024c 0904     		lsl	r1, r1, #16
 631              	.LVL83:
 632 024e 171C     		mov	r7, r2
 633 0250 0A0C     		lsr	r2, r1, #16
 634              	.LVL84:
 635 0252 1E04     		lsl	r6, r3, #16
 636 0254 0190     		str	r0, [sp, #4]
 637 0256 0092     		str	r2, [sp]
 481:eeprom.c      ****   tS8  retCode = 0;
 482:eeprom.c      ****   tU8  status  = 0;
 483:eeprom.c      ****   tU16 i       = 0;
 484:eeprom.c      **** 
 485:eeprom.c      **** getI2cLock();
 638              		.loc 1 485 0
 639 0258 FFF7FEFF 		bl	getI2cLock
 640              	.LVL85:
 486:eeprom.c      ****   do
 487:eeprom.c      ****   {
 488:eeprom.c      ****     /* generate Start condition */
 489:eeprom.c      ****     retCode = i2cStart();
 641              		.loc 1 489 0
 642 025c FFF7FEFF 		bl	i2cStart
 480:eeprom.c      **** {
 643              		.loc 1 480 0
 644 0260 360C     		lsr	r6, r6, #16
 645              		.loc 1 489 0
 646 0262 041C     		mov	r4, r0
 647              	.LVL86:
 490:eeprom.c      ****     if(retCode != I2C_CODE_OK)
 648              		.loc 1 490 0
 649 0264 0128     		cmp	r0, #1
 650 0266 15D1     		bne	.L72
 491:eeprom.c      ****       break;
 492:eeprom.c      **** 
 493:eeprom.c      **** 
 494:eeprom.c      ****     /* write pca9532 address */
 495:eeprom.c      ****     retCode = i2cWriteWithWait(0xc0);
 651              		.loc 1 495 0
 652 0268 C020     		mov	r0, #192
 653              	.LVL87:
 654 026a FFF7FEFF 		bl	i2cWriteWithWait
 496:eeprom.c      ****     if(retCode != I2C_CODE_OK)
 655              		.loc 1 496 0
 656 026e 0025     		mov	r5, #0
 495:eeprom.c      ****     retCode = i2cWriteWithWait(0xc0);
 657              		.loc 1 495 0
 658 0270 041C     		mov	r4, r0
 659              	.LVL88:
 660              		.loc 1 496 0
 661 0272 0128     		cmp	r0, #1
 662 0274 0ED1     		bne	.L72
ARM GAS  C:\Users\KOZLOV~1\AppData\Local\Temp\ccM4HcVx.s 			page 22


 663 0276 06E0     		b	.L73
 664              	.LVL89:
 665              	.L74:
 497:eeprom.c      ****       break;
 498:eeprom.c      **** 
 499:eeprom.c      ****     /* write data */
 500:eeprom.c      ****     for(i = 0; i <len; i++)
 501:eeprom.c      ****     {
 502:eeprom.c      ****       retCode = i2cWriteWithWait(*pBuf);
 666              		.loc 1 502 0
 667 0278 019B     		ldr	r3, [sp, #4]
 668 027a 585D     		ldrb	r0, [r3, r5]
 669 027c FFF7FEFF 		bl	i2cWriteWithWait
 670              	.LVL90:
 671 0280 0135     		add	r5, r5, #1
 503:eeprom.c      ****       if(retCode != I2C_CODE_OK)
 672              		.loc 1 503 0
 673 0282 0128     		cmp	r0, #1
 674 0284 05D1     		bne	.L90
 675              	.LVL91:
 676              	.L73:
 500:eeprom.c      ****     for(i = 0; i <len; i++)
 677              		.loc 1 500 0 discriminator 1
 678 0286 009A     		ldr	r2, [sp]
 679 0288 2B04     		lsl	r3, r5, #16
 680 028a 1B0C     		lsr	r3, r3, #16
 681 028c 9342     		cmp	r3, r2
 682 028e F3D3     		bcc	.L74
 683 0290 00E0     		b	.L72
 684              	.LVL92:
 685              	.L90:
 502:eeprom.c      ****       retCode = i2cWriteWithWait(*pBuf);
 686              		.loc 1 502 0
 687 0292 041C     		mov	r4, r0
 688              	.LVL93:
 689              	.L72:
 504:eeprom.c      ****         break;
 505:eeprom.c      **** 
 506:eeprom.c      ****       pBuf++;
 507:eeprom.c      ****     }
 508:eeprom.c      **** 
 509:eeprom.c      ****   } while(0);
 510:eeprom.c      **** 
 511:eeprom.c      ****   if (len2 > 0)
 690              		.loc 1 511 0
 691 0294 002E     		cmp	r6, #0
 692 0296 3DD0     		beq	.L75
 512:eeprom.c      ****   {
 513:eeprom.c      ****     /* Generate Start condition */
 514:eeprom.c      ****     retCode = i2cRepeatStart();
 693              		.loc 1 514 0
 694 0298 FFF7FEFF 		bl	i2cRepeatStart
 695 029c 041C     		mov	r4, r0
 696              	.LVL94:
 515:eeprom.c      **** 
 516:eeprom.c      ****     /* Transmit device address */
 517:eeprom.c      ****     if( retCode == I2C_CODE_OK)
ARM GAS  C:\Users\KOZLOV~1\AppData\Local\Temp\ccM4HcVx.s 			page 23


 697              		.loc 1 517 0
 698 029e 0128     		cmp	r0, #1
 699 02a0 07D1     		bne	.L95
 700              	.LVL95:
 701              	.L78:
 518:eeprom.c      ****     {
 519:eeprom.c      ****       /* Write SLA+R */
 520:eeprom.c      ****       retCode = i2cPutChar( 0xc0 + 0x01 );
 521:eeprom.c      ****       while( retCode == I2C_CODE_BUSY )
 522:eeprom.c      ****       {
 523:eeprom.c      ****         retCode = i2cPutChar( 0xc0 + 0x01 );
 702              		.loc 1 523 0
 703 02a2 C120     		mov	r0, #193
 704 02a4 FFF7FEFF 		bl	i2cPutChar
 521:eeprom.c      ****       while( retCode == I2C_CODE_BUSY )
 705              		.loc 1 521 0
 706 02a8 0306     		lsl	r3, r0, #24
 707 02aa 1B16     		asr	r3, r3, #24
 708              		.loc 1 523 0
 709 02ac 041C     		mov	r4, r0
 710              	.LVL96:
 521:eeprom.c      ****       while( retCode == I2C_CODE_BUSY )
 711              		.loc 1 521 0
 712 02ae 0433     		add	r3, r3, #4
 713 02b0 F7D0     		beq	.L78
 714              	.LVL97:
 715              	.L95:
 524:eeprom.c      ****       }
 525:eeprom.c      ****     }
 526:eeprom.c      **** 
 527:eeprom.c      ****     /* Wait until SLA+R transmitted */
 528:eeprom.c      ****     while(1)
 529:eeprom.c      ****     {
 530:eeprom.c      ****       /* Get new status */
 531:eeprom.c      ****       status = i2cCheckStatus();
 716              		.loc 1 531 0
 717 02b2 FFF7FEFF 		bl	i2cCheckStatus
 718              	.LVL98:
 532:eeprom.c      **** 
 533:eeprom.c      ****       if(status == 0x40)
 719              		.loc 1 533 0
 720 02b6 4028     		cmp	r0, #64
 721 02b8 02D0     		beq	.L79
 534:eeprom.c      ****       {
 535:eeprom.c      ****         /* Data transmitted and ACK received */
 536:eeprom.c      ****         break;
 537:eeprom.c      ****       }
 538:eeprom.c      ****       else if(status != 0xf8)
 722              		.loc 1 538 0
 723 02ba F828     		cmp	r0, #248
 724 02bc F9D0     		beq	.L95
 725 02be 28E0     		b	.L98
 726              	.L79:
 539:eeprom.c      ****       {
 540:eeprom.c      ****         /* error */
 541:eeprom.c      ****         retCode = I2C_CODE_ERROR;
 542:eeprom.c      ****         break;
ARM GAS  C:\Users\KOZLOV~1\AppData\Local\Temp\ccM4HcVx.s 			page 24


 543:eeprom.c      ****       }
 544:eeprom.c      ****     }
 545:eeprom.c      **** 
 546:eeprom.c      ****     if( retCode == I2C_CODE_OK )
 727              		.loc 1 546 0
 728 02c0 2506     		lsl	r5, r4, #24
 729 02c2 2D16     		asr	r5, r5, #24
 730 02c4 012D     		cmp	r5, #1
 731 02c6 21D0     		beq	.L96
 732 02c8 24E0     		b	.L75
 733              	.LVL99:
 734              	.L93:
 547:eeprom.c      ****     {
 548:eeprom.c      ****       /* wait until address transmitted and receive data */
 549:eeprom.c      ****       for(i = 1; i <= len2; i++ )
 550:eeprom.c      ****       {
 551:eeprom.c      ****         /* wait until data transmitted */
 552:eeprom.c      ****         while(1)
 553:eeprom.c      ****         {
 554:eeprom.c      ****           /* Get new status */
 555:eeprom.c      ****           status = i2cCheckStatus();
 735              		.loc 1 555 0
 736 02ca FFF7FEFF 		bl	i2cCheckStatus
 737              	.LVL100:
 556:eeprom.c      **** 
 557:eeprom.c      ****           if(( status == 0x40 ) || ( status == 0x48 ) || ( status == 0x50 ))
 738              		.loc 1 557 0
 739 02ce 4828     		cmp	r0, #72
 740 02d0 03D0     		beq	.L82
 741 02d2 4028     		cmp	r0, #64
 742 02d4 01D0     		beq	.L82
 743              		.loc 1 557 0 is_stmt 0 discriminator 1
 744 02d6 5028     		cmp	r0, #80
 745 02d8 11D1     		bne	.L83
 746              	.L82:
 558:eeprom.c      ****           {
 559:eeprom.c      ****             /* Data received */
 560:eeprom.c      **** 
 561:eeprom.c      ****             if(i == len2 )
 562:eeprom.c      ****             {
 563:eeprom.c      ****               /* Set generate NACK */
 564:eeprom.c      ****               retCode = i2cGetChar( I2C_MODE_ACK1, pBuf2 );
 747              		.loc 1 564 0 is_stmt 1
 748 02da 0120     		mov	r0, #1
 749              	.LVL101:
 561:eeprom.c      ****             if(i == len2 )
 750              		.loc 1 561 0
 751 02dc B542     		cmp	r5, r6
 752 02de 00D0     		beq	.L97
 565:eeprom.c      ****             }
 566:eeprom.c      ****             else
 567:eeprom.c      ****             {
 568:eeprom.c      ****               retCode = i2cGetChar( I2C_MODE_ACK0, pBuf2 );
 753              		.loc 1 568 0
 754 02e0 0020     		mov	r0, #0
 755              	.L97:
 756 02e2 391C     		mov	r1, r7
ARM GAS  C:\Users\KOZLOV~1\AppData\Local\Temp\ccM4HcVx.s 			page 25


 757 02e4 FFF7FEFF 		bl	i2cGetChar
 758              	.LVL102:
 759              	.L87:
 569:eeprom.c      ****             }
 570:eeprom.c      **** 
 571:eeprom.c      ****             /* Read data */
 572:eeprom.c      ****             retCode = i2cGetChar( I2C_MODE_READ, pBuf2 );
 573:eeprom.c      ****             while( retCode == I2C_CODE_EMPTY )
 574:eeprom.c      ****             {
 575:eeprom.c      ****               retCode = i2cGetChar( I2C_MODE_READ, pBuf2 );
 760              		.loc 1 575 0
 761 02e8 0220     		mov	r0, #2
 762 02ea 391C     		mov	r1, r7
 763 02ec FFF7FEFF 		bl	i2cGetChar
 573:eeprom.c      ****             while( retCode == I2C_CODE_EMPTY )
 764              		.loc 1 573 0
 765 02f0 0306     		lsl	r3, r0, #24
 766 02f2 1B16     		asr	r3, r3, #24
 767              		.loc 1 575 0
 768 02f4 041C     		mov	r4, r0
 769              	.LVL103:
 573:eeprom.c      ****             while( retCode == I2C_CODE_EMPTY )
 770              		.loc 1 573 0
 771 02f6 0333     		add	r3, r3, #3
 772 02f8 F6D0     		beq	.L87
 576:eeprom.c      ****             }
 577:eeprom.c      ****             pBuf2++;
 773              		.loc 1 577 0
 774 02fa 0137     		add	r7, r7, #1
 775              	.LVL104:
 578:eeprom.c      **** 
 579:eeprom.c      ****             break;
 776              		.loc 1 579 0
 777 02fc 03E0     		b	.L88
 778              	.LVL105:
 779              	.L83:
 580:eeprom.c      ****           }
 581:eeprom.c      ****           else if( status != 0xf8 )
 780              		.loc 1 581 0
 781 02fe F828     		cmp	r0, #248
 782 0300 E3D0     		beq	.L93
 783 0302 351C     		mov	r5, r6
 784              	.LVL106:
 582:eeprom.c      ****           {
 583:eeprom.c      ****             /* ERROR */
 584:eeprom.c      ****             i = len2;
 585:eeprom.c      ****             retCode = I2C_CODE_ERROR;
 785              		.loc 1 585 0
 786 0304 FF24     		mov	r4, #255
 787              	.LVL107:
 788              	.L88:
 549:eeprom.c      ****       for(i = 1; i <= len2; i++ )
 789              		.loc 1 549 0
 790 0306 0135     		add	r5, r5, #1
 791              	.LVL108:
 792 0308 2D04     		lsl	r5, r5, #16
 793              	.LVL109:
ARM GAS  C:\Users\KOZLOV~1\AppData\Local\Temp\ccM4HcVx.s 			page 26


 794 030a 2D0C     		lsr	r5, r5, #16
 795              	.LVL110:
 796              	.L96:
 549:eeprom.c      ****       for(i = 1; i <= len2; i++ )
 797              		.loc 1 549 0 is_stmt 0 discriminator 1
 798 030c B542     		cmp	r5, r6
 799 030e DCD9     		bls	.L93
 800 0310 00E0     		b	.L75
 801              	.LVL111:
 802              	.L98:
 541:eeprom.c      ****         retCode = I2C_CODE_ERROR;
 803              		.loc 1 541 0 is_stmt 1
 804 0312 FF24     		mov	r4, #255
 805              	.LVL112:
 806              	.L75:
 586:eeprom.c      ****             break;
 587:eeprom.c      ****           }
 588:eeprom.c      ****         }
 589:eeprom.c      ****       }
 590:eeprom.c      ****     }
 591:eeprom.c      ****   }
 592:eeprom.c      **** 
 593:eeprom.c      ****   /* Generate Stop condition */
 594:eeprom.c      ****   i2cStop();
 595:eeprom.c      **** releaseI2cLock();
 596:eeprom.c      **** 
 597:eeprom.c      ****   return retCode;
 807              		.loc 1 597 0
 808 0314 2406     		lsl	r4, r4, #24
 809              	.LVL113:
 594:eeprom.c      ****   i2cStop();
 810              		.loc 1 594 0
 811 0316 FFF7FEFF 		bl	i2cStop
 598:eeprom.c      **** 
 599:eeprom.c      **** }
 812              		.loc 1 599 0
 813              		@ sp needed for prologue
 595:eeprom.c      **** releaseI2cLock();
 814              		.loc 1 595 0
 815 031a FFF7FEFF 		bl	releaseI2cLock
 597:eeprom.c      ****   return retCode;
 816              		.loc 1 597 0
 817 031e 2016     		asr	r0, r4, #24
 818              	.LVL114:
 819              		.loc 1 599 0
 820 0320 F6BC     		pop	{r1, r2, r4, r5, r6, r7}
 821 0322 02BC     		pop	{r1}
 822 0324 0847     		bx	r1
 823              		.cfi_endproc
 824              	.LFE5:
 825              		.size	pca9532, .-pca9532
 826              	.Letext0:
 827              		.file 2 "./startup/../pre_emptive_os/api/general.h"