ARM GAS  C:\Users\KOZLOV~1\AppData\Local\Temp\ccLKmZOG.s 			page 1


   1              		.code	16
   2              		.file	"exampleGame.c"
   3              		.text
   4              	.Ltext0:
   5              		.cfi_sections	.debug_frame
   6              		.align	1
   7              		.code	16
   8              		.thumb_func
   9              		.type	isValid, %function
  10              	isValid:
  11              	.LFB0:
  12              		.file 1 "exampleGame.c"
   1:exampleGame.c **** /******************************************************************************
   2:exampleGame.c ****  *
   3:exampleGame.c ****  * Copyright:
   4:exampleGame.c ****  *    (C) 2006 Embedded Artists AB
   5:exampleGame.c ****  *
   6:exampleGame.c ****  * File:
   7:exampleGame.c ****  *    exampleGame.c
   8:exampleGame.c ****  *
   9:exampleGame.c ****  * Description:
  10:exampleGame.c ****  *    Implementation of example game.
  11:exampleGame.c ****  *
  12:exampleGame.c ****  *****************************************************************************/
  13:exampleGame.c **** 
  14:exampleGame.c **** /******************************************************************************
  15:exampleGame.c ****  * Includes
  16:exampleGame.c ****  *****************************************************************************/
  17:exampleGame.c **** #include "../pre_emptive_os/api/osapi.h"
  18:exampleGame.c **** #include "../pre_emptive_os/api/general.h"
  19:exampleGame.c **** #include <printf_P.h>
  20:exampleGame.c **** #include <ea_init.h>
  21:exampleGame.c **** #include <stdlib.h>
  22:exampleGame.c **** #include "lcd.h"
  23:exampleGame.c **** #include "key.h"
  24:exampleGame.c **** #include "select.h"
  25:exampleGame.c **** 
  26:exampleGame.c **** #include "configAppl.h"
  27:exampleGame.c **** 
  28:exampleGame.c **** #ifdef INCLUDE_EXAMPLE_GAME_BACKGROUND
  29:exampleGame.c **** #include "brickWall_130x130c.h"
  30:exampleGame.c **** #endif
  31:exampleGame.c **** 
  32:exampleGame.c **** 
  33:exampleGame.c **** /******************************************************************************
  34:exampleGame.c ****  * Typedefs and defines
  35:exampleGame.c ****  *****************************************************************************/
  36:exampleGame.c **** #define GAME_NOT_STARTED 0
  37:exampleGame.c **** #define GAME_RUNNING     1
  38:exampleGame.c **** #define GAME_OVER        2
  39:exampleGame.c **** #define GAME_END         3
  40:exampleGame.c **** 
  41:exampleGame.c **** #define BOARD_WIDTH  10
  42:exampleGame.c **** #define BOARD_HEIGHT 16
  43:exampleGame.c **** 
  44:exampleGame.c **** #define FIGURE_SIZE 4
  45:exampleGame.c **** #define NUM_OF_FIGURE 19
ARM GAS  C:\Users\KOZLOV~1\AppData\Local\Temp\ccLKmZOG.s 			page 2


  46:exampleGame.c **** 
  47:exampleGame.c **** 
  48:exampleGame.c **** /*****************************************************************************
  49:exampleGame.c ****  * Local variables
  50:exampleGame.c ****  ****************************************************************************/
  51:exampleGame.c **** static tU8 gameStatus;
  52:exampleGame.c **** static tU8 score;
  53:exampleGame.c **** 
  54:exampleGame.c **** static tS32 shift[NUM_OF_FIGURE]={1,0,3,4,5,2,7,8,9,6,11,12,13,10,15,14,17,16,18};
  55:exampleGame.c **** static tS32 board[BOARD_WIDTH][BOARD_HEIGHT];
  56:exampleGame.c **** static tS32 currFigure;
  57:exampleGame.c **** static tS32 currXpos;
  58:exampleGame.c **** static tS32 currYpos;
  59:exampleGame.c **** static volatile tU32 lastUpdate;
  60:exampleGame.c **** static volatile tU32 delayTimeMs;
  61:exampleGame.c **** 
  62:exampleGame.c **** 
  63:exampleGame.c **** /*****************************************************************************
  64:exampleGame.c ****  * External variables
  65:exampleGame.c ****  ****************************************************************************/
  66:exampleGame.c **** extern volatile tU32 ms;
  67:exampleGame.c **** 
  68:exampleGame.c **** 
  69:exampleGame.c **** char figures[NUM_OF_FIGURE][FIGURE_SIZE][FIGURE_SIZE]=
  70:exampleGame.c **** {{".X..",
  71:exampleGame.c ****   ".X..",
  72:exampleGame.c ****   ".X..",
  73:exampleGame.c ****   ".X.."},
  74:exampleGame.c ****  {"....",
  75:exampleGame.c ****   "XXXX",
  76:exampleGame.c ****   "....",
  77:exampleGame.c ****   "...."},
  78:exampleGame.c **** 
  79:exampleGame.c ****  {"XXX.",
  80:exampleGame.c ****   "X...",
  81:exampleGame.c ****   "....",
  82:exampleGame.c ****   "...."},
  83:exampleGame.c ****  {".XX.",
  84:exampleGame.c ****   "..X.",
  85:exampleGame.c ****   "..X.",
  86:exampleGame.c ****   "...."},
  87:exampleGame.c ****  {"..X.",
  88:exampleGame.c ****   "XXX.",
  89:exampleGame.c ****   "....",
  90:exampleGame.c ****   "...."},
  91:exampleGame.c ****  {".X..",
  92:exampleGame.c ****   ".X..",
  93:exampleGame.c ****   ".XX.",
  94:exampleGame.c ****   "...."},
  95:exampleGame.c **** 
  96:exampleGame.c ****  {"XXX.",
  97:exampleGame.c ****   "..X.",
  98:exampleGame.c ****   "....",
  99:exampleGame.c ****   "...."},
 100:exampleGame.c ****  {"..X.",
 101:exampleGame.c ****   "..X.",
 102:exampleGame.c ****   ".XX.",
ARM GAS  C:\Users\KOZLOV~1\AppData\Local\Temp\ccLKmZOG.s 			page 3


 103:exampleGame.c ****   "...."},
 104:exampleGame.c ****  {"X...",
 105:exampleGame.c ****   "XXX.",
 106:exampleGame.c ****   "....",
 107:exampleGame.c ****   "...."},
 108:exampleGame.c ****  {".XX.",
 109:exampleGame.c ****   ".X..",
 110:exampleGame.c ****   ".X..",
 111:exampleGame.c ****   "...."},
 112:exampleGame.c **** 
 113:exampleGame.c ****  {".X..",
 114:exampleGame.c ****   "XXX.",
 115:exampleGame.c ****   "....",
 116:exampleGame.c ****   "...."},
 117:exampleGame.c ****  {".X..",
 118:exampleGame.c ****   ".XX.",
 119:exampleGame.c ****   ".X..",
 120:exampleGame.c ****   "...."},
 121:exampleGame.c ****  {"XXX.",
 122:exampleGame.c ****   ".X..",
 123:exampleGame.c ****   "....",
 124:exampleGame.c ****   "...."},
 125:exampleGame.c ****  {".X..",
 126:exampleGame.c ****   "XX..",
 127:exampleGame.c ****   ".X..",
 128:exampleGame.c ****   "...."},
 129:exampleGame.c **** 
 130:exampleGame.c ****  {"X...",
 131:exampleGame.c ****   "XX..",
 132:exampleGame.c ****   ".X..",
 133:exampleGame.c ****   "...."},
 134:exampleGame.c ****  {".XX.",
 135:exampleGame.c ****   "XX..",
 136:exampleGame.c ****   "....",
 137:exampleGame.c ****   "...."},
 138:exampleGame.c **** 
 139:exampleGame.c ****  {".X..",
 140:exampleGame.c ****   "XX..",
 141:exampleGame.c ****   "X...",
 142:exampleGame.c ****   "...."},
 143:exampleGame.c ****  {"XX..",
 144:exampleGame.c ****   ".XX.",
 145:exampleGame.c ****   "....",
 146:exampleGame.c ****   "...."},
 147:exampleGame.c ****  {"XX..",
 148:exampleGame.c ****   "XX..",
 149:exampleGame.c ****   "....",
 150:exampleGame.c ****   "...."}};
 151:exampleGame.c **** 
 152:exampleGame.c **** 
 153:exampleGame.c **** /*****************************************************************************
 154:exampleGame.c ****  *
 155:exampleGame.c ****  * Description:
 156:exampleGame.c ****  *    Check if current place for figure is valid
 157:exampleGame.c ****  *
 158:exampleGame.c ****  ****************************************************************************/
 159:exampleGame.c **** static tS8
ARM GAS  C:\Users\KOZLOV~1\AppData\Local\Temp\ccLKmZOG.s 			page 4


 160:exampleGame.c **** isValid(tS32 x, tS32 y, tS32 shape)
 161:exampleGame.c **** {
  13              		.loc 1 161 0
  14              		.cfi_startproc
  15 0000 F1B5     		push	{r0, r4, r5, r6, r7, lr}
  16              	.LCFI0:
  17              		.cfi_def_cfa_offset 24
  18              		.cfi_offset 0, -24
  19              		.cfi_offset 4, -20
  20              		.cfi_offset 5, -16
  21              		.cfi_offset 6, -12
  22              		.cfi_offset 7, -8
  23              		.cfi_offset 14, -4
  24              	.LVL0:
 160:exampleGame.c **** isValid(tS32 x, tS32 y, tS32 shape)
  25              		.loc 1 160 0
  26 0002 234E     		ldr	r6, .L17
  27 0004 1701     		lsl	r7, r2, #4
  28              		.loc 1 161 0
  29 0006 051C     		mov	r5, r0
  30 0008 0024     		mov	r4, #0
 160:exampleGame.c **** isValid(tS32 x, tS32 y, tS32 shape)
  31              		.loc 1 160 0
  32 000a BF19     		add	r7, r7, r6
  33 000c 9446     		mov	ip, r2
  34 000e 11E0     		b	.L2
  35              	.LVL1:
  36              	.L5:
  37 0010 3A19     		add	r2, r7, r4
 162:exampleGame.c ****   tS32 i,j;
 163:exampleGame.c **** 
 164:exampleGame.c ****   for (i=0; i<FIGURE_SIZE; i++)
 165:exampleGame.c ****     for (j=0; j<FIGURE_SIZE; j++)
 166:exampleGame.c ****       if((figures[shape][i][j] == 'X') &&
  38              		.loc 1 166 0
  39 0012 D25C     		ldrb	r2, [r2, r3]
  40 0014 582A     		cmp	r2, #88
  41 0016 06D1     		bne	.L3
  42              		.loc 1 166 0 is_stmt 0 discriminator 1
  43 0018 092D     		cmp	r5, #9
  44 001a 34DC     		bgt	.L13
 160:exampleGame.c **** isValid(tS32 x, tS32 y, tS32 shape)
  45              		.loc 1 160 0 is_stmt 1
  46 001c 5A18     		add	r2, r3, r1
 167:exampleGame.c ****          ((i+x >= BOARD_WIDTH) || (j+y >= BOARD_HEIGHT) || (i+x < 0)))
  47              		.loc 1 167 0
  48 001e 0F2A     		cmp	r2, #15
  49 0020 31DC     		bgt	.L13
  50              		.loc 1 167 0 is_stmt 0 discriminator 1
  51 0022 002D     		cmp	r5, #0
  52 0024 2FDB     		blt	.L13
  53              	.L3:
 165:exampleGame.c ****     for (j=0; j<FIGURE_SIZE; j++)
  54              		.loc 1 165 0 is_stmt 1
  55 0026 0133     		add	r3, r3, #1
  56              	.LVL2:
  57 0028 042B     		cmp	r3, #4
ARM GAS  C:\Users\KOZLOV~1\AppData\Local\Temp\ccLKmZOG.s 			page 5


  58 002a F1D1     		bne	.L5
  59 002c 0434     		add	r4, r4, #4
  60 002e 0135     		add	r5, r5, #1
 164:exampleGame.c ****   for (i=0; i<FIGURE_SIZE; i++)
  61              		.loc 1 164 0
  62 0030 102C     		cmp	r4, #16
  63 0032 1ED0     		beq	.L6
  64              	.LVL3:
  65              	.L2:
 160:exampleGame.c **** isValid(tS32 x, tS32 y, tS32 shape)
  66              		.loc 1 160 0 discriminator 1
  67 0034 6246     		mov	r2, ip
  68 0036 9200     		lsl	r2, r2, #2
 161:exampleGame.c **** {
  69              		.loc 1 161 0 discriminator 1
  70 0038 0023     		mov	r3, #0
 160:exampleGame.c **** isValid(tS32 x, tS32 y, tS32 shape)
  71              		.loc 1 160 0 discriminator 1
  72 003a 0092     		str	r2, [sp]
  73 003c E8E7     		b	.L5
  74              	.LVL4:
  75              	.L8:
 168:exampleGame.c ****         return 0;
 169:exampleGame.c **** 
 170:exampleGame.c ****   for (i=0; i<FIGURE_SIZE; i++)
 171:exampleGame.c ****     for (j=0; j<FIGURE_SIZE; j++)
 172:exampleGame.c ****       if((i+x < BOARD_WIDTH) &&
  76              		.loc 1 172 0
  77 003e 092C     		cmp	r4, #9
  78 0040 0FDC     		bgt	.L7
 160:exampleGame.c **** isValid(tS32 x, tS32 y, tS32 shape)
  79              		.loc 1 160 0 discriminator 1
  80 0042 5818     		add	r0, r3, r1
  81              		.loc 1 172 0 discriminator 1
  82 0044 0F28     		cmp	r0, #15
  83 0046 0CDC     		bgt	.L7
 160:exampleGame.c **** isValid(tS32 x, tS32 y, tS32 shape)
  84              		.loc 1 160 0
  85 0048 009F     		ldr	r7, [sp]
  86 004a D019     		add	r0, r2, r7
  87 004c 104F     		ldr	r7, .L17
  88 004e 8000     		lsl	r0, r0, #2
  89 0050 C019     		add	r0, r0, r7
 173:exampleGame.c ****          (j+y < BOARD_HEIGHT) &&
  90              		.loc 1 173 0
  91 0052 C05C     		ldrb	r0, [r0, r3]
  92 0054 5828     		cmp	r0, #88
  93 0056 04D1     		bne	.L7
 160:exampleGame.c **** isValid(tS32 x, tS32 y, tS32 shape)
  94              		.loc 1 160 0
  95 0058 AF19     		add	r7, r5, r6
  96 005a 9800     		lsl	r0, r3, #2
 174:exampleGame.c ****          (figures[shape][i][j] == 'X') &&
  97              		.loc 1 174 0
  98 005c 3858     		ldr	r0, [r7, r0]
  99 005e 0028     		cmp	r0, #0
 100 0060 11D1     		bne	.L13
ARM GAS  C:\Users\KOZLOV~1\AppData\Local\Temp\ccLKmZOG.s 			page 6


 101              	.L7:
 171:exampleGame.c ****     for (j=0; j<FIGURE_SIZE; j++)
 102              		.loc 1 171 0
 103 0062 0133     		add	r3, r3, #1
 104              	.LVL5:
 105 0064 042B     		cmp	r3, #4
 106 0066 EAD1     		bne	.L8
 170:exampleGame.c ****   for (i=0; i<FIGURE_SIZE; i++)
 107              		.loc 1 170 0
 108 0068 0132     		add	r2, r2, #1
 109              	.LVL6:
 110 006a 042A     		cmp	r2, #4
 111 006c 04D1     		bne	.L9
 175:exampleGame.c ****          (board[i+x][j+y] != 0))
 176:exampleGame.c ****         return 0;
 177:exampleGame.c **** 
 178:exampleGame.c ****   return 1;
 112              		.loc 1 178 0
 113 006e 0120     		mov	r0, #1
 114 0070 0AE0     		b	.L4
 115              	.LVL7:
 116              	.L6:
 160:exampleGame.c **** isValid(tS32 x, tS32 y, tS32 shape)
 117              		.loc 1 160 0 discriminator 1
 118 0072 084D     		ldr	r5, .L17+4
 164:exampleGame.c ****   for (i=0; i<FIGURE_SIZE; i++)
 119              		.loc 1 164 0 discriminator 1
 120 0074 0022     		mov	r2, #0
 160:exampleGame.c **** isValid(tS32 x, tS32 y, tS32 shape)
 121              		.loc 1 160 0 discriminator 1
 122 0076 8446     		mov	ip, r0
 123              	.LVL8:
 124              	.L9:
 125 0078 6046     		mov	r0, ip
 126 007a 1418     		add	r4, r2, r0
 127 007c 2601     		lsl	r6, r4, #4
 128 007e 7618     		add	r6, r6, r1
 161:exampleGame.c **** {
 129              		.loc 1 161 0 discriminator 1
 130 0080 0023     		mov	r3, #0
 160:exampleGame.c **** isValid(tS32 x, tS32 y, tS32 shape)
 131              		.loc 1 160 0 discriminator 1
 132 0082 B600     		lsl	r6, r6, #2
 133 0084 DBE7     		b	.L8
 134              	.LVL9:
 135              	.L13:
 176:exampleGame.c ****         return 0;
 136              		.loc 1 176 0
 137 0086 0020     		mov	r0, #0
 138              	.L4:
 179:exampleGame.c **** }
 139              		.loc 1 179 0
 140              		@ sp needed for prologue
 141 0088 F2BC     		pop	{r1, r4, r5, r6, r7}
 142 008a 02BC     		pop	{r1}
 143 008c 0847     		bx	r1
 144              	.L18:
ARM GAS  C:\Users\KOZLOV~1\AppData\Local\Temp\ccLKmZOG.s 			page 7


 145 008e C046     		.align	2
 146              	.L17:
 147 0090 00000000 		.word	.LANCHOR0
 148 0094 00000000 		.word	.LANCHOR1
 149              		.cfi_endproc
 150              	.LFE0:
 151              		.size	isValid, .-isValid
 152              		.align	1
 153              		.code	16
 154              		.thumb_func
 155              		.type	insertFigure, %function
 156              	insertFigure:
 157              	.LFB2:
 180:exampleGame.c **** 
 181:exampleGame.c **** 
 182:exampleGame.c **** /*****************************************************************************
 183:exampleGame.c ****  *
 184:exampleGame.c ****  * Description:
 185:exampleGame.c ****  *    Draw/refresh game board
 186:exampleGame.c ****  *
 187:exampleGame.c ****  ****************************************************************************/
 188:exampleGame.c **** static void
 189:exampleGame.c **** drawGame(void)
 190:exampleGame.c **** {
 191:exampleGame.c ****   tS32 i,j;
 192:exampleGame.c **** 
 193:exampleGame.c ****   for (i=1; i<=BOARD_WIDTH; i++)
 194:exampleGame.c ****     for (j=1; j<=BOARD_HEIGHT; j++)
 195:exampleGame.c ****       if(board[i-1][j-1] != 0)
 196:exampleGame.c ****         lcdRectBrd(30+(i*6), 10+(j*6), 6, 6, 209,50,5);
 197:exampleGame.c ****       else
 198:exampleGame.c ****         lcdRect(30+(i*6), 10+(j*6), 6, 6, 0);
 199:exampleGame.c **** }
 200:exampleGame.c **** 
 201:exampleGame.c **** 
 202:exampleGame.c **** /*****************************************************************************
 203:exampleGame.c ****  *
 204:exampleGame.c ****  * Description:
 205:exampleGame.c ****  *    Insert one figure at a specific x,y position on the game board
 206:exampleGame.c ****  *
 207:exampleGame.c ****  ****************************************************************************/
 208:exampleGame.c **** static void
 209:exampleGame.c **** insertFigure(tS32 shape, tS32 x, tS32 y)
 210:exampleGame.c **** {
 158              		.loc 1 210 0
 159              		.cfi_startproc
 160 0098 F1B5     		push	{r0, r4, r5, r6, r7, lr}
 161              	.LCFI1:
 162              		.cfi_def_cfa_offset 24
 163              		.cfi_offset 0, -24
 164              		.cfi_offset 4, -20
 165              		.cfi_offset 5, -16
 166              		.cfi_offset 6, -12
 167              		.cfi_offset 7, -8
 168              		.cfi_offset 14, -4
 169              	.LVL10:
 209:exampleGame.c **** insertFigure(tS32 shape, tS32 x, tS32 y)
ARM GAS  C:\Users\KOZLOV~1\AppData\Local\Temp\ccLKmZOG.s 			page 8


 170              		.loc 1 209 0
 171 009a 104C     		ldr	r4, .L25
 172 009c 8900     		lsl	r1, r1, #2
 173              	.LVL11:
 174 009e 0001     		lsl	r0, r0, #4
 175              	.LVL12:
 176              		.loc 1 210 0
 177 00a0 0023     		mov	r3, #0
 209:exampleGame.c **** insertFigure(tS32 shape, tS32 x, tS32 y)
 178              		.loc 1 209 0
 179 00a2 0091     		str	r1, [sp]
 180 00a4 2018     		add	r0, r4, r0
 181 00a6 0FE0     		b	.L20
 182              	.LVL13:
 183              	.L22:
 184 00a8 C618     		add	r6, r0, r3
 211:exampleGame.c ****   tS32 i,j;
 212:exampleGame.c ****   
 213:exampleGame.c ****   for (i=0; i<FIGURE_SIZE; i++)
 214:exampleGame.c ****     for (j=0; j<FIGURE_SIZE; j++)
 215:exampleGame.c ****       if(figures[shape][i][j] == 'X')
 185              		.loc 1 215 0
 186 00aa 365D     		ldrb	r6, [r6, r4]
 187 00ac 582E     		cmp	r6, #88
 188 00ae 05D1     		bne	.L21
 209:exampleGame.c **** insertFigure(tS32 shape, tS32 x, tS32 y)
 189              		.loc 1 209 0
 190 00b0 0B4F     		ldr	r7, .L25+4
 191 00b2 AE00     		lsl	r6, r5, #2
 192 00b4 BF19     		add	r7, r7, r6
 216:exampleGame.c ****         board[x+i][y+j] = 1;
 193              		.loc 1 216 0
 194 00b6 0121     		mov	r1, #1
 209:exampleGame.c **** insertFigure(tS32 shape, tS32 x, tS32 y)
 195              		.loc 1 209 0
 196 00b8 A600     		lsl	r6, r4, #2
 197              		.loc 1 216 0
 198 00ba B951     		str	r1, [r7, r6]
 199              	.L21:
 214:exampleGame.c ****     for (j=0; j<FIGURE_SIZE; j++)
 200              		.loc 1 214 0
 201 00bc 0134     		add	r4, r4, #1
 202              	.LVL14:
 203 00be 042C     		cmp	r4, #4
 204 00c0 F2D1     		bne	.L22
 205 00c2 0433     		add	r3, r3, #4
 213:exampleGame.c ****   for (i=0; i<FIGURE_SIZE; i++)
 206              		.loc 1 213 0
 207 00c4 102B     		cmp	r3, #16
 208 00c6 05D0     		beq	.L19
 209              	.LVL15:
 210              	.L20:
 209:exampleGame.c **** insertFigure(tS32 shape, tS32 x, tS32 y)
 211              		.loc 1 209 0 discriminator 1
 212 00c8 0099     		ldr	r1, [sp]
 213 00ca 5D18     		add	r5, r3, r1
 214 00cc AD00     		lsl	r5, r5, #2
ARM GAS  C:\Users\KOZLOV~1\AppData\Local\Temp\ccLKmZOG.s 			page 9


 210:exampleGame.c **** {
 215              		.loc 1 210 0 discriminator 1
 216 00ce 0024     		mov	r4, #0
 209:exampleGame.c **** insertFigure(tS32 shape, tS32 x, tS32 y)
 217              		.loc 1 209 0 discriminator 1
 218 00d0 AD18     		add	r5, r5, r2
 219 00d2 E9E7     		b	.L22
 220              	.LVL16:
 221              	.L19:
 217:exampleGame.c **** }
 222              		.loc 1 217 0
 223              		@ sp needed for prologue
 224              	.LVL17:
 225 00d4 F1BC     		pop	{r0, r4, r5, r6, r7}
 226 00d6 01BC     		pop	{r0}
 227 00d8 0047     		bx	r0
 228              	.L26:
 229 00da C046     		.align	2
 230              	.L25:
 231 00dc 00000000 		.word	.LANCHOR0
 232 00e0 00000000 		.word	.LANCHOR1
 233              		.cfi_endproc
 234              	.LFE2:
 235              		.size	insertFigure, .-insertFigure
 236              		.global	__modsi3
 237              		.global	__udivsi3
 238              		.global	__umodsi3
 239              		.align	1
 240              		.code	16
 241              		.thumb_func
 242              		.type	advanceGame, %function
 243              	advanceGame:
 244              	.LFB9:
 218:exampleGame.c **** 
 219:exampleGame.c **** 
 220:exampleGame.c **** /*****************************************************************************
 221:exampleGame.c ****  *
 222:exampleGame.c ****  * Description:
 223:exampleGame.c ****  *    Delete one figure at a specific x,y position on the game board
 224:exampleGame.c ****  *
 225:exampleGame.c ****  ****************************************************************************/
 226:exampleGame.c **** static void
 227:exampleGame.c **** deleteFigure(tS32 shape, tS32 x, tS32 y)
 228:exampleGame.c **** {
 229:exampleGame.c ****   tS32 i,j;
 230:exampleGame.c ****   
 231:exampleGame.c ****   for (i=0; i<FIGURE_SIZE; i++)
 232:exampleGame.c ****     for (j=0; j<FIGURE_SIZE; j++)
 233:exampleGame.c ****       if(figures[shape][i][j] == 'X')
 234:exampleGame.c ****         board[x+i][y+j] = 0;
 235:exampleGame.c **** }
 236:exampleGame.c **** 
 237:exampleGame.c **** 
 238:exampleGame.c **** /*****************************************************************************
 239:exampleGame.c ****  *
 240:exampleGame.c ****  * Description:
 241:exampleGame.c ****  *    Returns TRUE if one row of the board is full
ARM GAS  C:\Users\KOZLOV~1\AppData\Local\Temp\ccLKmZOG.s 			page 10


 242:exampleGame.c ****  *
 243:exampleGame.c ****  ****************************************************************************/
 244:exampleGame.c **** static char
 245:exampleGame.c **** full(tS32 j)
 246:exampleGame.c **** {
 247:exampleGame.c ****   tS32 i;
 248:exampleGame.c ****   
 249:exampleGame.c ****   for(i=0; i<BOARD_WIDTH; i++)
 250:exampleGame.c ****     if(board[i][j] != 1)
 251:exampleGame.c ****       return 0;
 252:exampleGame.c **** 
 253:exampleGame.c ****   return 1;
 254:exampleGame.c **** }
 255:exampleGame.c **** 
 256:exampleGame.c **** 
 257:exampleGame.c **** /*****************************************************************************
 258:exampleGame.c ****  *
 259:exampleGame.c ****  * Description:
 260:exampleGame.c ****  *    Draw the current score
 261:exampleGame.c ****  *
 262:exampleGame.c ****  ****************************************************************************/
 263:exampleGame.c **** static void
 264:exampleGame.c **** drawScore(void)
 265:exampleGame.c **** {
 266:exampleGame.c ****   tU8 str[4];
 267:exampleGame.c ****   
 268:exampleGame.c ****   str[0] = score/100 + '0';
 269:exampleGame.c ****   str[1] = (score/10)%10 + '0';
 270:exampleGame.c ****   str[2] = score%10 + '0';
 271:exampleGame.c ****   str[3] = 0;
 272:exampleGame.c ****   if (str[0] == '0')
 273:exampleGame.c ****   {
 274:exampleGame.c ****     str[0] = ' ';
 275:exampleGame.c ****     if (str[1] == '0')
 276:exampleGame.c ****       str[1] = ' ';
 277:exampleGame.c ****   }
 278:exampleGame.c ****   lcdGotoxy(80,116);
 279:exampleGame.c ****   lcdPuts(str);
 280:exampleGame.c **** }
 281:exampleGame.c **** 
 282:exampleGame.c **** 
 283:exampleGame.c **** /*****************************************************************************
 284:exampleGame.c ****  *
 285:exampleGame.c ****  * Description:
 286:exampleGame.c ****  *    Check if time to update score
 287:exampleGame.c ****  *
 288:exampleGame.c ****  ****************************************************************************/
 289:exampleGame.c **** static void
 290:exampleGame.c **** checkScore(void)
 291:exampleGame.c **** {
 292:exampleGame.c ****   tS32 i,j,k;
 293:exampleGame.c ****   
 294:exampleGame.c ****   for (j=0; j<BOARD_HEIGHT; j++)
 295:exampleGame.c ****   {
 296:exampleGame.c ****     //check if one row is full
 297:exampleGame.c ****     if(full(j))
 298:exampleGame.c ****     {
ARM GAS  C:\Users\KOZLOV~1\AppData\Local\Temp\ccLKmZOG.s 			page 11


 299:exampleGame.c ****       //if so, erase that row...
 300:exampleGame.c ****       for(k=j; k>0; k--)
 301:exampleGame.c ****         for(i=0; i<BOARD_WIDTH; i++)
 302:exampleGame.c ****           board[i][k] = board[i][k-1];
 303:exampleGame.c ****           
 304:exampleGame.c ****       //and update score
 305:exampleGame.c ****       score++;
 306:exampleGame.c ****       drawScore();
 307:exampleGame.c ****     }
 308:exampleGame.c ****   }
 309:exampleGame.c **** }
 310:exampleGame.c **** 
 311:exampleGame.c **** 
 312:exampleGame.c **** /*****************************************************************************
 313:exampleGame.c ****  *
 314:exampleGame.c ****  * Description:
 315:exampleGame.c ****  *    Returns TRUE if game is over
 316:exampleGame.c ****  *
 317:exampleGame.c ****  ****************************************************************************/
 318:exampleGame.c **** static char
 319:exampleGame.c **** gameOver(void)
 320:exampleGame.c **** {
 321:exampleGame.c ****   tS32 i;
 322:exampleGame.c **** 
 323:exampleGame.c ****   for(i=0; i<NUM_OF_FIGURE; i++)
 324:exampleGame.c ****     if(!isValid(3,0,i))
 325:exampleGame.c ****       return 1;
 326:exampleGame.c **** 
 327:exampleGame.c ****   return 0;
 328:exampleGame.c **** }
 329:exampleGame.c **** 
 330:exampleGame.c **** 
 331:exampleGame.c **** /*****************************************************************************
 332:exampleGame.c ****  *
 333:exampleGame.c ****  * Description:
 334:exampleGame.c ****  *    Calculate new update/advance time, based in current score
 335:exampleGame.c ****  *    The higher score, the shorter update time
 336:exampleGame.c ****  *
 337:exampleGame.c ****  ****************************************************************************/
 338:exampleGame.c **** static void
 339:exampleGame.c **** updateDelayTime(void)
 340:exampleGame.c **** {
 341:exampleGame.c ****   if (score >= 75)
 342:exampleGame.c ****     delayTimeMs = 200;
 343:exampleGame.c ****   else if (score >= 50)
 344:exampleGame.c ****     delayTimeMs = 300;
 345:exampleGame.c ****   else if (score >= 25)
 346:exampleGame.c ****     delayTimeMs = 350;
 347:exampleGame.c ****   else if (score >= 10)
 348:exampleGame.c ****     delayTimeMs = 400;
 349:exampleGame.c ****   else
 350:exampleGame.c ****     delayTimeMs = 500;
 351:exampleGame.c **** }
 352:exampleGame.c **** 
 353:exampleGame.c **** 
 354:exampleGame.c **** /*****************************************************************************
 355:exampleGame.c ****  *
ARM GAS  C:\Users\KOZLOV~1\AppData\Local\Temp\ccLKmZOG.s 			page 12


 356:exampleGame.c ****  * Description:
 357:exampleGame.c ****  *    Advance the game, check if game is over
 358:exampleGame.c ****  *
 359:exampleGame.c ****  ****************************************************************************/
 360:exampleGame.c **** static void
 361:exampleGame.c **** advanceGame(void)
 362:exampleGame.c **** {
 245              		.loc 1 362 0
 246              		.cfi_startproc
 247 00e4 F0B5     		push	{r4, r5, r6, r7, lr}
 248              	.LCFI2:
 249              		.cfi_def_cfa_offset 20
 250              		.cfi_offset 4, -20
 251              		.cfi_offset 5, -16
 252              		.cfi_offset 6, -12
 253              		.cfi_offset 7, -8
 254              		.cfi_offset 14, -4
 363:exampleGame.c ****   insertFigure(currFigure, currXpos, currYpos);
 255              		.loc 1 363 0
 256 00e6 794B     		ldr	r3, .L62
 362:exampleGame.c **** {
 257              		.loc 1 362 0
 258 00e8 86B0     		sub	sp, sp, #24
 259              	.LCFI3:
 260              		.cfi_def_cfa_offset 44
 261              		.loc 1 363 0
 262 00ea 07CB     		ldmia	r3!, {r0, r1, r2}
 263 00ec FFF7D4FF 		bl	insertFigure
 264              	.LVL18:
 265 00f0 2426     		mov	r6, #36
 266 00f2 0027     		mov	r7, #0
 267 00f4 1DE0     		b	.L28
 268              	.LVL19:
 269              	.L31:
 270              	.LBB28:
 271              	.LBB29:
 195:exampleGame.c ****       if(board[i-1][j-1] != 0)
 272              		.loc 1 195 0
 273 00f6 08CD     		ldmia	r5!, {r3}
 274 00f8 002B     		cmp	r3, #0
 275 00fa 0CD0     		beq	.L29
 196:exampleGame.c ****         lcdRectBrd(30+(i*6), 10+(j*6), 6, 6, 209,50,5);
 276              		.loc 1 196 0
 277 00fc 3223     		mov	r3, #50
 278 00fe D121     		mov	r1, #209
 279 0100 0193     		str	r3, [sp, #4]
 280 0102 0622     		mov	r2, #6
 281 0104 0523     		mov	r3, #5
 282 0106 0091     		str	r1, [sp]
 283 0108 0293     		str	r3, [sp, #8]
 284 010a 301C     		mov	r0, r6
 285 010c 211C     		mov	r1, r4
 286 010e 131C     		mov	r3, r2
 287 0110 FFF7FEFF 		bl	lcdRectBrd
 288 0114 06E0     		b	.L30
 289              	.L29:
 198:exampleGame.c ****         lcdRect(30+(i*6), 10+(j*6), 6, 6, 0);
ARM GAS  C:\Users\KOZLOV~1\AppData\Local\Temp\ccLKmZOG.s 			page 13


 290              		.loc 1 198 0
 291 0116 0622     		mov	r2, #6
 292 0118 0093     		str	r3, [sp]
 293 011a 301C     		mov	r0, r6
 294 011c 211C     		mov	r1, r4
 295 011e 131C     		mov	r3, r2
 296 0120 FFF7FEFF 		bl	lcdRect
 297              	.L30:
 298 0124 0634     		add	r4, r4, #6
 194:exampleGame.c ****     for (j=1; j<=BOARD_HEIGHT; j++)
 299              		.loc 1 194 0
 300 0126 702C     		cmp	r4, #112
 301 0128 E5D1     		bne	.L31
 302 012a 0137     		add	r7, r7, #1
 303 012c 0636     		add	r6, r6, #6
 193:exampleGame.c ****   for (i=1; i<=BOARD_WIDTH; i++)
 304              		.loc 1 193 0
 305 012e 0A2F     		cmp	r7, #10
 306 0130 04D0     		beq	.L32
 307              	.LVL20:
 308              	.L28:
 361:exampleGame.c **** advanceGame(void)
 309              		.loc 1 361 0
 310 0132 674C     		ldr	r4, .L62+4
 311 0134 BD01     		lsl	r5, r7, #6
 312 0136 6519     		add	r5, r4, r5
 313              	.LBE29:
 314              	.LBE28:
 315 0138 1024     		mov	r4, #16
 316 013a DCE7     		b	.L31
 317              	.LVL21:
 318              	.L32:
 364:exampleGame.c ****   drawGame();
 365:exampleGame.c ****   deleteFigure(currFigure, currXpos, currYpos);
 319              		.loc 1 365 0
 320 013c 634B     		ldr	r3, .L62
 321 013e 1968     		ldr	r1, [r3]
 322 0140 0433     		add	r3, r3, #4
 323 0142 21CB     		ldmia	r3!, {r0, r5}
 324              	.LVL22:
 325              	.LBB30:
 326              	.LBB31:
 361:exampleGame.c **** advanceGame(void)
 327              		.loc 1 361 0
 328 0144 634A     		ldr	r2, .L62+8
 329 0146 0901     		lsl	r1, r1, #4
 330              	.LBE31:
 331              	.LBE30:
 332              		.loc 1 365 0
 333 0148 0023     		mov	r3, #0
 334              	.LBB34:
 335              	.LBB32:
 361:exampleGame.c **** advanceGame(void)
 336              		.loc 1 361 0
 337 014a 8000     		lsl	r0, r0, #2
 338 014c 5118     		add	r1, r2, r1
 339 014e 12E0     		b	.L33
ARM GAS  C:\Users\KOZLOV~1\AppData\Local\Temp\ccLKmZOG.s 			page 14


 340              	.LVL23:
 341              	.L35:
 342 0150 CF18     		add	r7, r1, r3
 233:exampleGame.c ****       if(figures[shape][i][j] == 'X')
 343              		.loc 1 233 0
 344 0152 BF5C     		ldrb	r7, [r7, r2]
 345 0154 582F     		cmp	r7, #88
 346 0156 08D1     		bne	.L34
 361:exampleGame.c **** advanceGame(void)
 347              		.loc 1 361 0
 348 0158 039E     		ldr	r6, [sp, #12]
 349 015a 5D4C     		ldr	r4, .L62+4
 350 015c B700     		lsl	r7, r6, #2
 351 015e A446     		mov	ip, r4
 352 0160 BC44     		add	ip, ip, r7
 234:exampleGame.c ****         board[x+i][y+j] = 0;
 353              		.loc 1 234 0
 354 0162 0024     		mov	r4, #0
 361:exampleGame.c **** advanceGame(void)
 355              		.loc 1 361 0
 356 0164 9700     		lsl	r7, r2, #2
 234:exampleGame.c ****         board[x+i][y+j] = 0;
 357              		.loc 1 234 0
 358 0166 6646     		mov	r6, ip
 359 0168 F451     		str	r4, [r6, r7]
 360              	.L34:
 232:exampleGame.c ****     for (j=0; j<FIGURE_SIZE; j++)
 361              		.loc 1 232 0
 362 016a 0132     		add	r2, r2, #1
 363              	.LVL24:
 364 016c 042A     		cmp	r2, #4
 365 016e EFD1     		bne	.L35
 366 0170 0433     		add	r3, r3, #4
 231:exampleGame.c ****   for (i=0; i<FIGURE_SIZE; i++)
 367              		.loc 1 231 0
 368 0172 102B     		cmp	r3, #16
 369 0174 05D0     		beq	.L36
 370              	.LVL25:
 371              	.L33:
 361:exampleGame.c **** advanceGame(void)
 372              		.loc 1 361 0
 373 0176 1E18     		add	r6, r3, r0
 374 0178 B600     		lsl	r6, r6, #2
 375 017a 7619     		add	r6, r6, r5
 376              	.LBE32:
 377              	.LBE34:
 363:exampleGame.c ****   insertFigure(currFigure, currXpos, currYpos);
 378              		.loc 1 363 0
 379 017c 0022     		mov	r2, #0
 380              	.LBB35:
 381              	.LBB33:
 361:exampleGame.c **** advanceGame(void)
 382              		.loc 1 361 0
 383 017e 0396     		str	r6, [sp, #12]
 384 0180 E6E7     		b	.L35
 385              	.LVL26:
 386              	.L36:
ARM GAS  C:\Users\KOZLOV~1\AppData\Local\Temp\ccLKmZOG.s 			page 15


 387              	.LBE33:
 388              	.LBE35:
 389              	.LBB36:
 390              	.LBB37:
 341:exampleGame.c ****   if (score >= 75)
 391              		.loc 1 341 0
 392 0182 524E     		ldr	r6, .L62
 393 0184 337B     		ldrb	r3, [r6, #12]
 394 0186 4A2B     		cmp	r3, #74
 395 0188 01D9     		bls	.L37
 342:exampleGame.c ****     delayTimeMs = 200;
 396              		.loc 1 342 0
 397 018a C823     		mov	r3, #200
 398 018c 0DE0     		b	.L60
 399              	.L37:
 343:exampleGame.c ****   else if (score >= 50)
 400              		.loc 1 343 0
 401 018e 312B     		cmp	r3, #49
 402 0190 01D9     		bls	.L39
 344:exampleGame.c ****     delayTimeMs = 300;
 403              		.loc 1 344 0
 404 0192 9623     		mov	r3, #150
 405 0194 08E0     		b	.L61
 406              	.L39:
 345:exampleGame.c ****   else if (score >= 25)
 407              		.loc 1 345 0
 408 0196 182B     		cmp	r3, #24
 409 0198 01D9     		bls	.L40
 346:exampleGame.c ****     delayTimeMs = 350;
 410              		.loc 1 346 0
 411 019a AF23     		mov	r3, #175
 412 019c 04E0     		b	.L61
 413              	.L40:
 347:exampleGame.c ****   else if (score >= 10)
 414              		.loc 1 347 0
 415 019e 092B     		cmp	r3, #9
 416 01a0 01D9     		bls	.L41
 348:exampleGame.c ****     delayTimeMs = 400;
 417              		.loc 1 348 0
 418 01a2 C823     		mov	r3, #200
 419 01a4 00E0     		b	.L61
 420              	.L41:
 350:exampleGame.c ****     delayTimeMs = 500;
 421              		.loc 1 350 0
 422 01a6 FA23     		mov	r3, #250
 423              	.L61:
 424 01a8 5B00     		lsl	r3, r3, #1
 425              	.L60:
 426 01aa 3361     		str	r3, [r6, #16]
 427              	.LBE37:
 428              	.LBE36:
 366:exampleGame.c **** 
 367:exampleGame.c ****   /*******************************************************
 368:exampleGame.c ****    * Check if time to update figure position
 369:exampleGame.c ****    *******************************************************/
 370:exampleGame.c ****   updateDelayTime();
 371:exampleGame.c ****   if ((ms - lastUpdate) > delayTimeMs)
ARM GAS  C:\Users\KOZLOV~1\AppData\Local\Temp\ccLKmZOG.s 			page 16


 429              		.loc 1 371 0
 430 01ac 4A4B     		ldr	r3, .L62+12
 431 01ae 1868     		ldr	r0, [r3]
 432 01b0 7169     		ldr	r1, [r6, #20]
 433 01b2 3269     		ldr	r2, [r6, #16]
 434              	.LVL27:
 435 01b4 411A     		sub	r1, r0, r1
 436 01b6 9142     		cmp	r1, r2
 437 01b8 00D8     		bhi	.LCB401
 438 01ba 82E0     		b	.L27	@long jump
 439              	.LCB401:
 372:exampleGame.c ****   {
 373:exampleGame.c ****     lastUpdate = ms;
 374:exampleGame.c ****     
 375:exampleGame.c ****     if (isValid(currXpos, currYpos+1, currFigure))
 440              		.loc 1 375 0
 441 01bc 7468     		ldr	r4, [r6, #4]
 442 01be 3168     		ldr	r1, [r6]
 443 01c0 B568     		ldr	r5, [r6, #8]
 373:exampleGame.c ****     lastUpdate = ms;
 444              		.loc 1 373 0
 445 01c2 1B68     		ldr	r3, [r3]
 446              		.loc 1 375 0
 447 01c4 0394     		str	r4, [sp, #12]
 448 01c6 0491     		str	r1, [sp, #16]
 449 01c8 6C1C     		add	r4, r5, #1
 373:exampleGame.c ****     lastUpdate = ms;
 450              		.loc 1 373 0
 451 01ca 7361     		str	r3, [r6, #20]
 452              		.loc 1 375 0
 453 01cc 0398     		ldr	r0, [sp, #12]
 454 01ce 211C     		mov	r1, r4
 455 01d0 049A     		ldr	r2, [sp, #16]
 456 01d2 FFF715FF 		bl	isValid
 457              	.LVL28:
 458 01d6 071E     		sub	r7, r0, #0
 459 01d8 01D0     		beq	.L43
 376:exampleGame.c ****       currYpos++;
 460              		.loc 1 376 0
 461 01da B460     		str	r4, [r6, #8]
 462 01dc 1CE0     		b	.L44
 463              	.L43:
 377:exampleGame.c **** 
 378:exampleGame.c ****     //figure has hit bottom
 379:exampleGame.c ****     //insert new, random figure on the game board
 380:exampleGame.c ****     else
 381:exampleGame.c ****     {
 382:exampleGame.c ****       insertFigure(currFigure, currXpos, currYpos);
 464              		.loc 1 382 0
 465 01de 0399     		ldr	r1, [sp, #12]
 466 01e0 2A1C     		mov	r2, r5
 467 01e2 0498     		ldr	r0, [sp, #16]
 468 01e4 FFF758FF 		bl	insertFigure
 383:exampleGame.c ****       currYpos  = 0;
 384:exampleGame.c ****       currXpos  = 3;
 469              		.loc 1 384 0
 470 01e8 0323     		mov	r3, #3
ARM GAS  C:\Users\KOZLOV~1\AppData\Local\Temp\ccLKmZOG.s 			page 17


 471 01ea 7360     		str	r3, [r6, #4]
 383:exampleGame.c ****       currYpos  = 0;
 472              		.loc 1 383 0
 473 01ec B760     		str	r7, [r6, #8]
 385:exampleGame.c ****       currFigure = rand() % NUM_OF_FIGURE;
 474              		.loc 1 385 0
 475 01ee FFF7FEFF 		bl	rand
 476 01f2 1321     		mov	r1, #19
 477 01f4 FFF7FEFF 		bl	__modsi3
 478 01f8 3060     		str	r0, [r6]
 479              	.LVL29:
 323:exampleGame.c ****   for(i=0; i<NUM_OF_FIGURE; i++)
 480              		.loc 1 323 0
 481 01fa 3C1C     		mov	r4, r7
 482              	.LVL30:
 483              	.L46:
 484              	.LBB38:
 485              	.LBB39:
 324:exampleGame.c ****     if(!isValid(3,0,i))
 486              		.loc 1 324 0
 487 01fc 0320     		mov	r0, #3
 488 01fe 0021     		mov	r1, #0
 489 0200 221C     		mov	r2, r4
 490 0202 FFF7FDFE 		bl	isValid
 491 0206 0028     		cmp	r0, #0
 492 0208 03D0     		beq	.L45
 323:exampleGame.c ****   for(i=0; i<NUM_OF_FIGURE; i++)
 493              		.loc 1 323 0
 494 020a 0134     		add	r4, r4, #1
 495              	.LVL31:
 496 020c 132C     		cmp	r4, #19
 497 020e F5D1     		bne	.L46
 498 0210 02E0     		b	.L44
 499              	.LVL32:
 500              	.L45:
 501              	.LBE39:
 502              	.LBE38:
 386:exampleGame.c **** 
 387:exampleGame.c ****       //check if game is over
 388:exampleGame.c ****       if (gameOver())
 389:exampleGame.c ****         gameStatus = GAME_OVER;
 503              		.loc 1 389 0
 504 0212 2E4B     		ldr	r3, .L62
 505 0214 0222     		mov	r2, #2
 506 0216 1A76     		strb	r2, [r3, #24]
 507              	.L44:
 508              	.LVL33:
 509              	.LBB40:
 510              	.LBB41:
 511              	.LBB42:
 512              	.LBB43:
 361:exampleGame.c **** advanceGame(void)
 513              		.loc 1 361 0
 514 0218 2D4E     		ldr	r6, .L62+4
 515 021a 50E0     		b	.L47
 516              	.LVL34:
 517              	.L49:
ARM GAS  C:\Users\KOZLOV~1\AppData\Local\Temp\ccLKmZOG.s 			page 18


 250:exampleGame.c ****     if(board[i][j] != 1)
 518              		.loc 1 250 0
 519 021c F258     		ldr	r2, [r6, r3]
 520 021e 012A     		cmp	r2, #1
 521 0220 49D1     		bne	.L48
 249:exampleGame.c ****   for(i=0; i<BOARD_WIDTH; i++)
 522              		.loc 1 249 0
 523 0222 A022     		mov	r2, #160
 250:exampleGame.c ****     if(board[i][j] != 1)
 524              		.loc 1 250 0
 525 0224 4033     		add	r3, r3, #64
 249:exampleGame.c ****   for(i=0; i<BOARD_WIDTH; i++)
 526              		.loc 1 249 0
 527 0226 9200     		lsl	r2, r2, #2
 528 0228 9342     		cmp	r3, r2
 529 022a F7D1     		bne	.L49
 530 022c 331C     		mov	r3, r6
 531 022e 0AE0     		b	.L50
 532              	.L53:
 533              	.LBE43:
 534              	.LBE42:
 300:exampleGame.c ****       for(k=j; k>0; k--)
 535              		.loc 1 300 0
 536 0230 0022     		mov	r2, #0
 537              	.L51:
 361:exampleGame.c **** advanceGame(void)
 538              		.loc 1 361 0
 539 0232 9918     		add	r1, r3, r2
 540 0234 0439     		sub	r1, r1, #4
 302:exampleGame.c ****           board[i][k] = board[i][k-1];
 541              		.loc 1 302 0
 542 0236 0968     		ldr	r1, [r1]
 301:exampleGame.c ****         for(i=0; i<BOARD_WIDTH; i++)
 543              		.loc 1 301 0
 544 0238 A024     		mov	r4, #160
 302:exampleGame.c ****           board[i][k] = board[i][k-1];
 545              		.loc 1 302 0
 546 023a 9950     		str	r1, [r3, r2]
 547 023c 4032     		add	r2, r2, #64
 301:exampleGame.c ****         for(i=0; i<BOARD_WIDTH; i++)
 548              		.loc 1 301 0
 549 023e A400     		lsl	r4, r4, #2
 550 0240 A242     		cmp	r2, r4
 551 0242 F6D1     		bne	.L51
 552 0244 043B     		sub	r3, r3, #4
 553              	.LVL35:
 554              	.L50:
 300:exampleGame.c ****       for(k=j; k>0; k--)
 555              		.loc 1 300 0
 556 0246 224C     		ldr	r4, .L62+4
 557 0248 A342     		cmp	r3, r4
 558 024a F1D1     		bne	.L53
 305:exampleGame.c ****       score++;
 559              		.loc 1 305 0
 560 024c 1F4B     		ldr	r3, .L62
 561 024e 1C7B     		ldrb	r4, [r3, #12]
 562 0250 0134     		add	r4, r4, #1
ARM GAS  C:\Users\KOZLOV~1\AppData\Local\Temp\ccLKmZOG.s 			page 19


 563 0252 2406     		lsl	r4, r4, #24
 564 0254 240E     		lsr	r4, r4, #24
 565 0256 1C73     		strb	r4, [r3, #12]
 566              	.LBB44:
 567              	.LBB45:
 268:exampleGame.c ****   str[0] = score/100 + '0';
 568              		.loc 1 268 0
 569 0258 201C     		mov	r0, r4
 570 025a 6421     		mov	r1, #100
 571 025c FFF7FEFF 		bl	__udivsi3
 572 0260 071C     		mov	r7, r0
 573 0262 3037     		add	r7, r7, #48
 574 0264 3F06     		lsl	r7, r7, #24
 575 0266 05AD     		add	r5, sp, #20
 576 0268 3F0E     		lsr	r7, r7, #24
 269:exampleGame.c ****   str[1] = (score/10)%10 + '0';
 577              		.loc 1 269 0
 578 026a 201C     		mov	r0, r4
 579 026c 0A21     		mov	r1, #10
 268:exampleGame.c ****   str[0] = score/100 + '0';
 580              		.loc 1 268 0
 581 026e 2F70     		strb	r7, [r5]
 269:exampleGame.c ****   str[1] = (score/10)%10 + '0';
 582              		.loc 1 269 0
 583 0270 FFF7FEFF 		bl	__udivsi3
 584 0274 0006     		lsl	r0, r0, #24
 585 0276 0A21     		mov	r1, #10
 586 0278 000E     		lsr	r0, r0, #24
 587 027a FFF7FEFF 		bl	__umodsi3
 588 027e 3030     		add	r0, r0, #48
 589 0280 0006     		lsl	r0, r0, #24
 590 0282 010E     		lsr	r1, r0, #24
 591 0284 0391     		str	r1, [sp, #12]
 592 0286 6970     		strb	r1, [r5, #1]
 270:exampleGame.c ****   str[2] = score%10 + '0';
 593              		.loc 1 270 0
 594 0288 201C     		mov	r0, r4
 595 028a 0A21     		mov	r1, #10
 596 028c FFF7FEFF 		bl	__umodsi3
 271:exampleGame.c ****   str[3] = 0;
 597              		.loc 1 271 0
 598 0290 0024     		mov	r4, #0
 270:exampleGame.c ****   str[2] = score%10 + '0';
 599              		.loc 1 270 0
 600 0292 3030     		add	r0, r0, #48
 601 0294 A870     		strb	r0, [r5, #2]
 271:exampleGame.c ****   str[3] = 0;
 602              		.loc 1 271 0
 603 0296 EC70     		strb	r4, [r5, #3]
 272:exampleGame.c ****   if (str[0] == '0')
 604              		.loc 1 272 0
 605 0298 302F     		cmp	r7, #48
 606 029a 05D1     		bne	.L52
 275:exampleGame.c ****     if (str[1] == '0')
 607              		.loc 1 275 0
 608 029c 039C     		ldr	r4, [sp, #12]
 274:exampleGame.c ****     str[0] = ' ';
ARM GAS  C:\Users\KOZLOV~1\AppData\Local\Temp\ccLKmZOG.s 			page 20


 609              		.loc 1 274 0
 610 029e 2023     		mov	r3, #32
 611 02a0 2B70     		strb	r3, [r5]
 275:exampleGame.c ****     if (str[1] == '0')
 612              		.loc 1 275 0
 613 02a2 302C     		cmp	r4, #48
 614 02a4 00D1     		bne	.L52
 276:exampleGame.c ****       str[1] = ' ';
 615              		.loc 1 276 0
 616 02a6 6B70     		strb	r3, [r5, #1]
 617              	.L52:
 278:exampleGame.c ****   lcdGotoxy(80,116);
 618              		.loc 1 278 0
 619 02a8 5020     		mov	r0, #80
 620 02aa 7421     		mov	r1, #116
 621 02ac FFF7FEFF 		bl	lcdGotoxy
 279:exampleGame.c ****   lcdPuts(str);
 622              		.loc 1 279 0
 623 02b0 05A8     		add	r0, sp, #20
 624 02b2 FFF7FEFF 		bl	lcdPuts
 625              	.LVL36:
 626              	.L48:
 627              	.LBE45:
 628              	.LBE44:
 294:exampleGame.c ****   for (j=0; j<BOARD_HEIGHT; j++)
 629              		.loc 1 294 0
 630 02b6 094C     		ldr	r4, .L62+16
 631              	.LBB47:
 632              	.LBB46:
 279:exampleGame.c ****   lcdPuts(str);
 633              		.loc 1 279 0
 634 02b8 0436     		add	r6, r6, #4
 635              	.LBE46:
 636              	.LBE47:
 294:exampleGame.c ****   for (j=0; j<BOARD_HEIGHT; j++)
 637              		.loc 1 294 0
 638 02ba A642     		cmp	r6, r4
 639 02bc 01D0     		beq	.L27
 640              	.L47:
 641              	.LVL37:
 642              	.LBE41:
 643              	.LBE40:
 323:exampleGame.c ****   for(i=0; i<NUM_OF_FIGURE; i++)
 644              		.loc 1 323 0
 645 02be 0023     		mov	r3, #0
 646 02c0 ACE7     		b	.L49
 647              	.LVL38:
 648              	.L27:
 390:exampleGame.c ****     }
 391:exampleGame.c **** 
 392:exampleGame.c ****     //check score, i.e., if any rows are full
 393:exampleGame.c ****     checkScore();
 394:exampleGame.c ****   }
 395:exampleGame.c **** }
 649              		.loc 1 395 0
 650 02c2 06B0     		add	sp, sp, #24
 651              		@ sp needed for prologue
ARM GAS  C:\Users\KOZLOV~1\AppData\Local\Temp\ccLKmZOG.s 			page 21


 652 02c4 F0BC     		pop	{r4, r5, r6, r7}
 653 02c6 01BC     		pop	{r0}
 654 02c8 0047     		bx	r0
 655              	.L63:
 656 02ca C046     		.align	2
 657              	.L62:
 658 02cc 80020000 		.word	.LANCHOR2
 659 02d0 00000000 		.word	.LANCHOR1
 660 02d4 00000000 		.word	.LANCHOR0
 661 02d8 00000000 		.word	ms
 662 02dc 40000000 		.word	.LANCHOR1+64
 663              		.cfi_endproc
 664              	.LFE9:
 665              		.size	advanceGame, .-advanceGame
 666              		.align	1
 667              		.code	16
 668              		.thumb_func
 669              		.type	setupGame, %function
 670              	setupGame:
 671              	.LFB10:
 396:exampleGame.c **** 
 397:exampleGame.c **** 
 398:exampleGame.c **** /*****************************************************************************
 399:exampleGame.c ****  *
 400:exampleGame.c ****  * Description:
 401:exampleGame.c ****  *    Draw game background and game board, initialize all variables
 402:exampleGame.c ****  *
 403:exampleGame.c ****  ****************************************************************************/
 404:exampleGame.c **** static void
 405:exampleGame.c **** setupGame (tBool drawBoard)
 406:exampleGame.c **** {
 672              		.loc 1 406 0
 673              		.cfi_startproc
 674 02e0 31B5     		push	{r0, r4, r5, lr}
 675              	.LCFI4:
 676              		.cfi_def_cfa_offset 16
 677              		.cfi_offset 0, -16
 678              		.cfi_offset 4, -12
 679              		.cfi_offset 5, -8
 680              		.cfi_offset 14, -4
 681              	.LVL39:
 407:exampleGame.c ****   tS32 i,j;
 408:exampleGame.c **** 
 409:exampleGame.c ****   //initialize random generator and reset score
 410:exampleGame.c ****   srand(ms);
 682              		.loc 1 410 0
 683 02e2 244B     		ldr	r3, .L70
 406:exampleGame.c **** {
 684              		.loc 1 406 0
 685 02e4 0406     		lsl	r4, r0, #24
 686              		.loc 1 410 0
 687 02e6 1868     		ldr	r0, [r3]
 688              	.LVL40:
 689 02e8 FFF7FEFF 		bl	srand
 411:exampleGame.c ****   score = 0;
 690              		.loc 1 411 0
 691 02ec 224B     		ldr	r3, .L70+4
ARM GAS  C:\Users\KOZLOV~1\AppData\Local\Temp\ccLKmZOG.s 			page 22


 692 02ee 0025     		mov	r5, #0
 406:exampleGame.c **** {
 693              		.loc 1 406 0
 694 02f0 240E     		lsr	r4, r4, #24
 695              		.loc 1 411 0
 696 02f2 1D73     		strb	r5, [r3, #12]
 412:exampleGame.c **** 
 413:exampleGame.c **** #ifdef INCLUDE_EXAMPLE_GAME_BACKGROUND
 414:exampleGame.c ****   //draw background picture
 415:exampleGame.c ****   lcdIcon(0, 0, 130, 130, _brickWall_130x130c[2], _brickWall_130x130c[3], &_brickWall_130x130c[4]);
 416:exampleGame.c **** #endif
 417:exampleGame.c **** 
 418:exampleGame.c ****   //draw game board
 419:exampleGame.c ****   if (drawBoard == TRUE)
 697              		.loc 1 419 0
 698 02f4 012C     		cmp	r4, #1
 699 02f6 19D1     		bne	.L65
 420:exampleGame.c ****   {
 421:exampleGame.c ****     lcdColor(1, 0xe0);
 700              		.loc 1 421 0
 701 02f8 201C     		mov	r0, r4
 702 02fa E021     		mov	r1, #224
 703 02fc FFF7FEFF 		bl	lcdColor
 422:exampleGame.c ****     lcdGotoxy(16, 116);
 704              		.loc 1 422 0
 705 0300 7421     		mov	r1, #116
 706 0302 1020     		mov	r0, #16
 707 0304 FFF7FEFF 		bl	lcdGotoxy
 423:exampleGame.c ****     lcdPuts(" Score:   0 ");
 708              		.loc 1 423 0
 709 0308 1C48     		ldr	r0, .L70+8
 710 030a FFF7FEFF 		bl	lcdPuts
 424:exampleGame.c **** 
 425:exampleGame.c ****     lcdRect(34, 14, 64, 100, 3);
 711              		.loc 1 425 0
 712 030e 0323     		mov	r3, #3
 713 0310 0093     		str	r3, [sp]
 714 0312 2220     		mov	r0, #34
 715 0314 0E21     		mov	r1, #14
 716 0316 4022     		mov	r2, #64
 717 0318 6423     		mov	r3, #100
 718 031a FFF7FEFF 		bl	lcdRect
 426:exampleGame.c ****     lcdRect(36, 16, 60, 96, 0);
 719              		.loc 1 426 0
 720 031e 2420     		mov	r0, #36
 721 0320 1021     		mov	r1, #16
 722 0322 3C22     		mov	r2, #60
 723 0324 6023     		mov	r3, #96
 724 0326 0095     		str	r5, [sp]
 725 0328 FFF7FEFF 		bl	lcdRect
 726              	.L65:
 727              	.LVL41:
 728              		.loc 1 426 0 is_stmt 0 discriminator 1
 729 032c 144B     		ldr	r3, .L70+12
 405:exampleGame.c **** setupGame (tBool drawBoard)
 730              		.loc 1 405 0 is_stmt 1 discriminator 1
 731 032e A022     		mov	r2, #160
ARM GAS  C:\Users\KOZLOV~1\AppData\Local\Temp\ccLKmZOG.s 			page 23


 732 0330 9200     		lsl	r2, r2, #2
 733 0332 9818     		add	r0, r3, r2
 406:exampleGame.c **** {
 734              		.loc 1 406 0 discriminator 1
 735 0334 0021     		mov	r1, #0
 736 0336 07E0     		b	.L66
 737              	.LVL42:
 738              	.L67:
 427:exampleGame.c ****   }
 428:exampleGame.c **** 
 429:exampleGame.c ****   //initialise game board
 430:exampleGame.c ****   for (i=0; i<BOARD_WIDTH; i++)
 431:exampleGame.c ****     for (j=0; j<BOARD_HEIGHT; j++)
 432:exampleGame.c ****       board[i][j] = 0;
 739              		.loc 1 432 0 discriminator 2
 740 0338 9950     		str	r1, [r3, r2]
 741 033a 0432     		add	r2, r2, #4
 742 033c 0025     		mov	r5, #0
 431:exampleGame.c ****     for (j=0; j<BOARD_HEIGHT; j++)
 743              		.loc 1 431 0 discriminator 2
 744 033e 402A     		cmp	r2, #64
 745 0340 FAD1     		bne	.L67
 431:exampleGame.c ****     for (j=0; j<BOARD_HEIGHT; j++)
 746              		.loc 1 431 0 is_stmt 0
 747 0342 4033     		add	r3, r3, #64
 430:exampleGame.c ****   for (i=0; i<BOARD_WIDTH; i++)
 748              		.loc 1 430 0 is_stmt 1
 749 0344 8342     		cmp	r3, r0
 750 0346 01D0     		beq	.L68
 751              	.LVL43:
 752              	.L66:
 406:exampleGame.c **** {
 753              		.loc 1 406 0 discriminator 1
 754 0348 0022     		mov	r2, #0
 755 034a F5E7     		b	.L67
 756              	.LVL44:
 757              	.L68:
 433:exampleGame.c **** 
 434:exampleGame.c ****   currFigure = rand() % NUM_OF_FIGURE;
 758              		.loc 1 434 0
 759 034c FFF7FEFF 		bl	rand
 760 0350 1321     		mov	r1, #19
 761 0352 FFF7FEFF 		bl	__modsi3
 762 0356 084C     		ldr	r4, .L70+4
 435:exampleGame.c ****   currXpos  = 3;
 763              		.loc 1 435 0
 764 0358 0321     		mov	r1, #3
 436:exampleGame.c ****   currYpos  = 0;
 765              		.loc 1 436 0
 766 035a A560     		str	r5, [r4, #8]
 437:exampleGame.c ****   insertFigure(currFigure, currXpos, currYpos);
 767              		.loc 1 437 0
 768 035c 2A1C     		mov	r2, r5
 434:exampleGame.c ****   currFigure = rand() % NUM_OF_FIGURE;
 769              		.loc 1 434 0
 770 035e 2060     		str	r0, [r4]
 435:exampleGame.c ****   currXpos  = 3;
ARM GAS  C:\Users\KOZLOV~1\AppData\Local\Temp\ccLKmZOG.s 			page 24


 771              		.loc 1 435 0
 772 0360 6160     		str	r1, [r4, #4]
 773              		.loc 1 437 0
 774 0362 FFF799FE 		bl	insertFigure
 438:exampleGame.c **** 
 439:exampleGame.c ****   lastUpdate = ms;
 775              		.loc 1 439 0
 776 0366 034B     		ldr	r3, .L70
 777 0368 1B68     		ldr	r3, [r3]
 440:exampleGame.c **** }
 778              		.loc 1 440 0
 779              		@ sp needed for prologue
 439:exampleGame.c ****   lastUpdate = ms;
 780              		.loc 1 439 0
 781 036a 6361     		str	r3, [r4, #20]
 782              		.loc 1 440 0
 783 036c 31BC     		pop	{r0, r4, r5}
 784 036e 01BC     		pop	{r0}
 785 0370 0047     		bx	r0
 786              	.L71:
 787 0372 C046     		.align	2
 788              	.L70:
 789 0374 00000000 		.word	ms
 790 0378 80020000 		.word	.LANCHOR2
 791 037c 00000000 		.word	.LC17
 792 0380 00000000 		.word	.LANCHOR1
 793              		.cfi_endproc
 794              	.LFE10:
 795              		.size	setupGame, .-setupGame
 796              		.align	1
 797              		.global	playExample
 798              		.code	16
 799              		.thumb_func
 800              		.type	playExample, %function
 801              	playExample:
 802              	.LFB11:
 441:exampleGame.c **** 
 442:exampleGame.c **** 
 443:exampleGame.c **** /*****************************************************************************
 444:exampleGame.c ****  *
 445:exampleGame.c ****  * Description:
 446:exampleGame.c ****  *    Implements example game
 447:exampleGame.c ****  *    
 448:exampleGame.c ****  ****************************************************************************/
 449:exampleGame.c **** void
 450:exampleGame.c **** playExample(void)
 451:exampleGame.c **** {
 803              		.loc 1 451 0
 804              		.cfi_startproc
 805 0384 F0B5     		push	{r4, r5, r6, r7, lr}
 806              	.LCFI5:
 807              		.cfi_def_cfa_offset 20
 808              		.cfi_offset 4, -20
 809              		.cfi_offset 5, -16
 810              		.cfi_offset 6, -12
 811              		.cfi_offset 7, -8
 812              		.cfi_offset 14, -4
ARM GAS  C:\Users\KOZLOV~1\AppData\Local\Temp\ccLKmZOG.s 			page 25


 452:exampleGame.c ****   gameStatus = GAME_NOT_STARTED;
 813              		.loc 1 452 0
 814 0386 524C     		ldr	r4, .L98
 815 0388 0025     		mov	r5, #0
 451:exampleGame.c **** {
 816              		.loc 1 451 0
 817 038a 94B0     		sub	sp, sp, #80
 818              	.LCFI6:
 819              		.cfi_def_cfa_offset 100
 453:exampleGame.c **** 
 454:exampleGame.c ****   setupGame(FALSE);
 820              		.loc 1 454 0
 821 038c 281C     		mov	r0, r5
 452:exampleGame.c ****   gameStatus = GAME_NOT_STARTED;
 822              		.loc 1 452 0
 823 038e 2576     		strb	r5, [r4, #24]
 824              		.loc 1 454 0
 825 0390 FFF7A6FF 		bl	setupGame
 455:exampleGame.c ****   lcdGotoxy(5,40);
 826              		.loc 1 455 0
 827 0394 0520     		mov	r0, #5
 828 0396 2821     		mov	r1, #40
 829 0398 FFF7FEFF 		bl	lcdGotoxy
 456:exampleGame.c ****   lcdColor(0,0xe0);
 830              		.loc 1 456 0
 831 039c 281C     		mov	r0, r5
 832 039e E021     		mov	r1, #224
 833 03a0 FFF7FEFF 		bl	lcdColor
 457:exampleGame.c ****   lcdPuts("Press to start");
 834              		.loc 1 457 0
 835 03a4 4B48     		ldr	r0, .L98+4
 836 03a6 FFF7FEFF 		bl	lcdPuts
 458:exampleGame.c **** 
 459:exampleGame.c ****   while(gameStatus != GAME_END)
 837              		.loc 1 459 0
 838 03aa 251C     		mov	r5, r4
 839 03ac 87E0     		b	.L90
 840              	.L87:
 841              	.LBB48:
 460:exampleGame.c ****   {
 461:exampleGame.c ****     tU8 anyKey;
 462:exampleGame.c **** 
 463:exampleGame.c ****     anyKey = checkKey();
 842              		.loc 1 463 0
 843 03ae FFF7FEFF 		bl	checkKey
 844              	.LVL45:
 464:exampleGame.c ****     switch(gameStatus)
 845              		.loc 1 464 0
 846 03b2 2A7E     		ldrb	r2, [r5, #24]
 847 03b4 141C     		mov	r4, r2
 848 03b6 012A     		cmp	r2, #1
 849 03b8 09D0     		beq	.L76
 850 03ba 002A     		cmp	r2, #0
 851 03bc 02D0     		beq	.L75
 852 03be 022A     		cmp	r2, #2
 853 03c0 7BD1     		bne	.L91
 854 03c2 42E0     		b	.L97
ARM GAS  C:\Users\KOZLOV~1\AppData\Local\Temp\ccLKmZOG.s 			page 26


 855              	.L75:
 465:exampleGame.c ****     {
 466:exampleGame.c ****       case GAME_NOT_STARTED:
 467:exampleGame.c ****         if (anyKey != KEY_NOTHING)
 856              		.loc 1 467 0
 857 03c4 0028     		cmp	r0, #0
 858 03c6 7AD0     		beq	.L90
 468:exampleGame.c ****         {
 469:exampleGame.c ****           gameStatus = GAME_RUNNING;
 859              		.loc 1 469 0
 860 03c8 0123     		mov	r3, #1
 861 03ca 2B76     		strb	r3, [r5, #24]
 862 03cc 71E0     		b	.L93
 863              	.L76:
 470:exampleGame.c ****           setupGame(TRUE);
 471:exampleGame.c ****         }
 472:exampleGame.c ****         break;
 473:exampleGame.c ****         
 474:exampleGame.c ****       case GAME_RUNNING:
 475:exampleGame.c ****         if (anyKey != KEY_NOTHING)
 864              		.loc 1 475 0
 865 03ce 0028     		cmp	r0, #0
 866 03d0 35D0     		beq	.L79
 476:exampleGame.c ****         {
 477:exampleGame.c ****           if (anyKey == KEY_UP)
 867              		.loc 1 477 0
 868 03d2 0128     		cmp	r0, #1
 869 03d4 0CD1     		bne	.L80
 478:exampleGame.c ****           {
 479:exampleGame.c ****             if(isValid(currXpos, currYpos, shift[currFigure]))
 870              		.loc 1 479 0
 871 03d6 2A68     		ldr	r2, [r5]
 872 03d8 3F4B     		ldr	r3, .L98+8
 873 03da 9200     		lsl	r2, r2, #2
 874 03dc D458     		ldr	r4, [r2, r3]
 875 03de 6868     		ldr	r0, [r5, #4]
 876              	.LVL46:
 877 03e0 A968     		ldr	r1, [r5, #8]
 878 03e2 221C     		mov	r2, r4
 879 03e4 FFF70CFE 		bl	isValid
 880 03e8 0028     		cmp	r0, #0
 881 03ea 24D0     		beq	.L81
 480:exampleGame.c ****               currFigure = shift[currFigure];
 882              		.loc 1 480 0
 883 03ec 2C60     		str	r4, [r5]
 884 03ee 22E0     		b	.L81
 885              	.LVL47:
 886              	.L80:
 481:exampleGame.c ****           }
 482:exampleGame.c ****           else if (anyKey == KEY_DOWN)
 887              		.loc 1 482 0
 888 03f0 0428     		cmp	r0, #4
 889 03f2 0AD1     		bne	.L82
 483:exampleGame.c ****           {
 484:exampleGame.c ****             if(isValid(currXpos, currYpos+1, currFigure))
 890              		.loc 1 484 0
 891 03f4 AC68     		ldr	r4, [r5, #8]
ARM GAS  C:\Users\KOZLOV~1\AppData\Local\Temp\ccLKmZOG.s 			page 27


 892 03f6 0134     		add	r4, r4, #1
 893 03f8 6868     		ldr	r0, [r5, #4]
 894              	.LVL48:
 895 03fa 2A68     		ldr	r2, [r5]
 896 03fc 211C     		mov	r1, r4
 897 03fe FFF7FFFD 		bl	isValid
 898 0402 0028     		cmp	r0, #0
 899 0404 17D0     		beq	.L81
 485:exampleGame.c ****               currYpos++;
 900              		.loc 1 485 0
 901 0406 AC60     		str	r4, [r5, #8]
 902 0408 15E0     		b	.L81
 903              	.LVL49:
 904              	.L82:
 486:exampleGame.c ****           }
 487:exampleGame.c ****           else if (anyKey == KEY_RIGHT)
 905              		.loc 1 487 0
 906 040a 0228     		cmp	r0, #2
 907 040c 02D1     		bne	.L83
 488:exampleGame.c ****           {
 489:exampleGame.c ****             if(isValid(currXpos+1, currYpos, currFigure))
 908              		.loc 1 489 0
 909 040e 6C68     		ldr	r4, [r5, #4]
 910 0410 0134     		add	r4, r4, #1
 911 0412 03E0     		b	.L96
 912              	.L83:
 490:exampleGame.c ****               currXpos++;
 491:exampleGame.c ****           }
 492:exampleGame.c ****           else if (anyKey == KEY_LEFT)
 913              		.loc 1 492 0
 914 0414 0828     		cmp	r0, #8
 915 0416 0AD1     		bne	.L84
 493:exampleGame.c ****           {
 494:exampleGame.c ****             if(isValid(currXpos-1, currYpos, currFigure))
 916              		.loc 1 494 0
 917 0418 6C68     		ldr	r4, [r5, #4]
 918 041a 013C     		sub	r4, r4, #1
 919              	.L96:
 920 041c A968     		ldr	r1, [r5, #8]
 921 041e 2A68     		ldr	r2, [r5]
 922 0420 201C     		mov	r0, r4
 923              	.LVL50:
 924 0422 FFF7EDFD 		bl	isValid
 925 0426 0028     		cmp	r0, #0
 926 0428 05D0     		beq	.L81
 495:exampleGame.c ****               currXpos--;
 927              		.loc 1 495 0
 928 042a 6C60     		str	r4, [r5, #4]
 929 042c 03E0     		b	.L81
 930              	.LVL51:
 931              	.L84:
 496:exampleGame.c ****           }
 497:exampleGame.c ****           else if (anyKey == KEY_CENTER)
 932              		.loc 1 497 0
 933 042e 1028     		cmp	r0, #16
 934 0430 01D1     		bne	.L81
 498:exampleGame.c ****             gameStatus = GAME_OVER;
ARM GAS  C:\Users\KOZLOV~1\AppData\Local\Temp\ccLKmZOG.s 			page 28


 935              		.loc 1 498 0
 936 0432 0223     		mov	r3, #2
 937 0434 2B76     		strb	r3, [r5, #24]
 938              	.LVL52:
 939              	.L81:
 499:exampleGame.c **** 
 500:exampleGame.c ****           advanceGame();
 940              		.loc 1 500 0
 941 0436 FFF755FE 		bl	advanceGame
 501:exampleGame.c ****           osSleep(1);
 942              		.loc 1 501 0
 943 043a 0120     		mov	r0, #1
 944 043c 02E0     		b	.L94
 945              	.LVL53:
 946              	.L79:
 502:exampleGame.c ****         }
 503:exampleGame.c ****         else
 504:exampleGame.c ****         {
 505:exampleGame.c ****           advanceGame();
 947              		.loc 1 505 0
 948 043e FFF751FE 		bl	advanceGame
 949              	.LVL54:
 506:exampleGame.c ****           osSleep(1);
 950              		.loc 1 506 0
 951 0442 201C     		mov	r0, r4
 952              	.L94:
 953 0444 FFF7FEFF 		bl	osSleep
 954 0448 39E0     		b	.L90
 955              	.LVL55:
 956              	.L97:
 957              	.LBB49:
 507:exampleGame.c ****         }
 508:exampleGame.c ****         break;
 509:exampleGame.c ****         
 510:exampleGame.c ****       case GAME_OVER:
 511:exampleGame.c ****       {
 512:exampleGame.c ****         tMenu menu;
 513:exampleGame.c ****         
 514:exampleGame.c ****         menu.xPos = 10;
 958              		.loc 1 514 0
 959 044a 08AB     		add	r3, sp, #32
 515:exampleGame.c ****         menu.yPos = 40;
 516:exampleGame.c ****         menu.xLen = 6+(12*8);
 517:exampleGame.c ****         menu.yLen = 4*14;
 518:exampleGame.c ****         menu.noOfChoices = 2;
 519:exampleGame.c ****         menu.initialChoice = 0;
 520:exampleGame.c ****         menu.pHeaderText = "Game over!";
 521:exampleGame.c ****         menu.headerTextXpos = 20;
 960              		.loc 1 521 0
 961 044c 1420     		mov	r0, #20
 962              	.LVL56:
 963 044e 1873     		strb	r0, [r3, #12]
 514:exampleGame.c ****         menu.xPos = 10;
 964              		.loc 1 514 0
 965 0450 0A21     		mov	r1, #10
 522:exampleGame.c ****         menu.pChoice[0] = "Restart game";
 966              		.loc 1 522 0
ARM GAS  C:\Users\KOZLOV~1\AppData\Local\Temp\ccLKmZOG.s 			page 29


 967 0452 2248     		ldr	r0, .L98+12
 514:exampleGame.c ****         menu.xPos = 10;
 968              		.loc 1 514 0
 969 0454 1970     		strb	r1, [r3]
 515:exampleGame.c ****         menu.yPos = 40;
 970              		.loc 1 515 0
 971 0456 2821     		mov	r1, #40
 972 0458 5970     		strb	r1, [r3, #1]
 973              		.loc 1 522 0
 974 045a 0C90     		str	r0, [sp, #48]
 516:exampleGame.c ****         menu.xLen = 6+(12*8);
 975              		.loc 1 516 0
 976 045c 6621     		mov	r1, #102
 523:exampleGame.c ****         menu.pChoice[1] = "End game";
 977              		.loc 1 523 0
 978 045e 2048     		ldr	r0, .L98+16
 516:exampleGame.c ****         menu.xLen = 6+(12*8);
 979              		.loc 1 516 0
 980 0460 9970     		strb	r1, [r3, #2]
 517:exampleGame.c ****         menu.yLen = 4*14;
 981              		.loc 1 517 0
 982 0462 3821     		mov	r1, #56
 983 0464 D970     		strb	r1, [r3, #3]
 984              		.loc 1 523 0
 985 0466 0D90     		str	r0, [sp, #52]
 519:exampleGame.c ****         menu.initialChoice = 0;
 986              		.loc 1 519 0
 987 0468 0021     		mov	r1, #0
 524:exampleGame.c ****         menu.bgColor       = 0;
 988              		.loc 1 524 0
 989 046a 12A8     		add	r0, sp, #72
 519:exampleGame.c ****         menu.initialChoice = 0;
 990              		.loc 1 519 0
 991 046c 5971     		strb	r1, [r3, #5]
 992              		.loc 1 524 0
 993 046e 0170     		strb	r1, [r0]
 525:exampleGame.c ****         menu.borderColor   = 0x6d;
 526:exampleGame.c ****         menu.headerColor   = 0;
 994              		.loc 1 526 0
 995 0470 8170     		strb	r1, [r0, #2]
 525:exampleGame.c ****         menu.borderColor   = 0x6d;
 996              		.loc 1 525 0
 997 0472 6D24     		mov	r4, #109
 527:exampleGame.c ****         menu.choicesColor  = 0xfd;
 998              		.loc 1 527 0
 999 0474 6946     		mov	r1, sp
 518:exampleGame.c ****         menu.noOfChoices = 2;
 1000              		.loc 1 518 0
 1001 0476 1A71     		strb	r2, [r3, #4]
 525:exampleGame.c ****         menu.borderColor   = 0x6d;
 1002              		.loc 1 525 0
 1003 0478 4470     		strb	r4, [r0, #1]
 1004              		.loc 1 527 0
 1005 047a 4B31     		add	r1, r1, #75
 1006 047c FD20     		mov	r0, #253
 520:exampleGame.c ****         menu.pHeaderText = "Game over!";
 1007              		.loc 1 520 0
ARM GAS  C:\Users\KOZLOV~1\AppData\Local\Temp\ccLKmZOG.s 			page 30


 1008 047e 194A     		ldr	r2, .L98+20
 1009              		.loc 1 527 0
 1010 0480 0870     		strb	r0, [r1]
 528:exampleGame.c ****         menu.selectedColor = 0xe0;
 1011              		.loc 1 528 0
 1012 0482 E020     		mov	r0, #224
 1013 0484 13A9     		add	r1, sp, #76
 1014 0486 0870     		strb	r0, [r1]
 520:exampleGame.c ****         menu.pHeaderText = "Game over!";
 1015              		.loc 1 520 0
 1016 0488 0A92     		str	r2, [sp, #40]
 529:exampleGame.c ****         
 530:exampleGame.c ****         switch(drawMenu(menu))
 1017              		.loc 1 530 0
 1018 048a 0CA9     		add	r1, sp, #48
 1019 048c 6846     		mov	r0, sp
 1020 048e D0C9     		ldmia	r1!, {r4, r6, r7}
 1021 0490 D0C0     		stmia	r0!, {r4, r6, r7}
 1022 0492 D0C9     		ldmia	r1!, {r4, r6, r7}
 1023 0494 D0C0     		stmia	r0!, {r4, r6, r7}
 1024 0496 50C9     		ldmia	r1!, {r4, r6}
 1025 0498 50C0     		stmia	r0!, {r4, r6}
 1026 049a 0898     		ldr	r0, [sp, #32]
 1027 049c 0999     		ldr	r1, [sp, #36]
 1028 049e 0B9B     		ldr	r3, [sp, #44]
 1029 04a0 FFF7FEFF 		bl	drawMenu
 1030 04a4 0028     		cmp	r0, #0
 1031 04a6 02D0     		beq	.L85
 1032 04a8 0128     		cmp	r0, #1
 1033 04aa 08D1     		bne	.L90
 1034 04ac 05E0     		b	.L91
 1035              	.L85:
 531:exampleGame.c ****         {
 532:exampleGame.c ****           case 0: gameStatus = GAME_RUNNING; setupGame(TRUE); break;  //Restart game
 1036              		.loc 1 532 0
 1037 04ae 0127     		mov	r7, #1
 1038 04b0 2F76     		strb	r7, [r5, #24]
 1039              	.L93:
 1040 04b2 0120     		mov	r0, #1
 1041 04b4 FFF714FF 		bl	setupGame
 1042 04b8 01E0     		b	.L90
 1043              	.L91:
 1044              	.LBE49:
 533:exampleGame.c ****           case 1: gameStatus = GAME_END; break;                       //End game
 534:exampleGame.c ****           default: break;
 535:exampleGame.c ****         }
 536:exampleGame.c ****       }
 537:exampleGame.c ****         break;
 538:exampleGame.c ****         
 539:exampleGame.c ****       default:
 540:exampleGame.c ****         gameStatus = GAME_END;
 1045              		.loc 1 540 0
 1046 04ba 0323     		mov	r3, #3
 1047 04bc 2B76     		strb	r3, [r5, #24]
 1048              	.L90:
 1049              	.LBE48:
 459:exampleGame.c ****   while(gameStatus != GAME_END)
ARM GAS  C:\Users\KOZLOV~1\AppData\Local\Temp\ccLKmZOG.s 			page 31


 1050              		.loc 1 459 0 discriminator 1
 1051 04be 2B7E     		ldrb	r3, [r5, #24]
 1052 04c0 032B     		cmp	r3, #3
 1053 04c2 00D0     		beq	.LCB916
 1054 04c4 73E7     		b	.L87	@long jump
 1055              	.LCB916:
 541:exampleGame.c ****         break;
 542:exampleGame.c ****     }
 543:exampleGame.c ****   }
 544:exampleGame.c **** }
 1056              		.loc 1 544 0
 1057 04c6 14B0     		add	sp, sp, #80
 1058              		@ sp needed for prologue
 1059 04c8 F0BC     		pop	{r4, r5, r6, r7}
 1060 04ca 01BC     		pop	{r0}
 1061 04cc 0047     		bx	r0
 1062              	.L99:
 1063 04ce C046     		.align	2
 1064              	.L98:
 1065 04d0 80020000 		.word	.LANCHOR2
 1066 04d4 0D000000 		.word	.LC22
 1067 04d8 00000000 		.word	.LANCHOR3
 1068 04dc 27000000 		.word	.LC27
 1069 04e0 34000000 		.word	.LC29
 1070 04e4 1C000000 		.word	.LC25
 1071              		.cfi_endproc
 1072              	.LFE11:
 1073              		.size	playExample, .-playExample
 1074              		.global	figures
 1075              		.section	.rodata
 1076              		.align	2
 1077              		.set	.LANCHOR3,. + 0
 1078              		.type	shift, %object
 1079              		.size	shift, 76
 1080              	shift:
 1081 0000 01000000 		.word	1
 1082 0004 00000000 		.word	0
 1083 0008 03000000 		.word	3
 1084 000c 04000000 		.word	4
 1085 0010 05000000 		.word	5
 1086 0014 02000000 		.word	2
 1087 0018 07000000 		.word	7
 1088 001c 08000000 		.word	8
 1089 0020 09000000 		.word	9
 1090 0024 06000000 		.word	6
 1091 0028 0B000000 		.word	11
 1092 002c 0C000000 		.word	12
 1093 0030 0D000000 		.word	13
 1094 0034 0A000000 		.word	10
 1095 0038 0F000000 		.word	15
 1096 003c 0E000000 		.word	14
 1097 0040 11000000 		.word	17
 1098 0044 10000000 		.word	16
 1099 0048 12000000 		.word	18
 1100              		.section	.rodata.str1.1,"aMS",%progbits,1
 1101              	.LC17:
 1102 0000 2053636F 		.ascii	" Score:   0 \000"
ARM GAS  C:\Users\KOZLOV~1\AppData\Local\Temp\ccLKmZOG.s 			page 32


 1102      72653A20 
 1102      20203020 
 1102      00
 1103              	.LC22:
 1104 000d 50726573 		.ascii	"Press to start\000"
 1104      7320746F 
 1104      20737461 
 1104      727400
 1105              	.LC25:
 1106 001c 47616D65 		.ascii	"Game over!\000"
 1106      206F7665 
 1106      722100
 1107              	.LC27:
 1108 0027 52657374 		.ascii	"Restart game\000"
 1108      61727420 
 1108      67616D65 
 1108      00
 1109              	.LC29:
 1110 0034 456E6420 		.ascii	"End game\000"
 1110      67616D65 
 1110      00
 1111              		.data
 1112              		.set	.LANCHOR0,. + 0
 1113              		.type	figures, %object
 1114              		.size	figures, 304
 1115              	figures:
 1116 0000 2E582E2E 		.ascii	".X.."
 1117 0004 2E582E2E 		.ascii	".X.."
 1118 0008 2E582E2E 		.ascii	".X.."
 1119 000c 2E582E2E 		.ascii	".X.."
 1120 0010 2E2E2E2E 		.ascii	"...."
 1121 0014 58585858 		.ascii	"XXXX"
 1122 0018 2E2E2E2E 		.ascii	"...."
 1123 001c 2E2E2E2E 		.ascii	"...."
 1124 0020 5858582E 		.ascii	"XXX."
 1125 0024 582E2E2E 		.ascii	"X..."
 1126 0028 2E2E2E2E 		.ascii	"...."
 1127 002c 2E2E2E2E 		.ascii	"...."
 1128 0030 2E58582E 		.ascii	".XX."
 1129 0034 2E2E582E 		.ascii	"..X."
 1130 0038 2E2E582E 		.ascii	"..X."
 1131 003c 2E2E2E2E 		.ascii	"...."
 1132 0040 2E2E582E 		.ascii	"..X."
 1133 0044 5858582E 		.ascii	"XXX."
 1134 0048 2E2E2E2E 		.ascii	"...."
 1135 004c 2E2E2E2E 		.ascii	"...."
 1136 0050 2E582E2E 		.ascii	".X.."
 1137 0054 2E582E2E 		.ascii	".X.."
 1138 0058 2E58582E 		.ascii	".XX."
 1139 005c 2E2E2E2E 		.ascii	"...."
 1140 0060 5858582E 		.ascii	"XXX."
 1141 0064 2E2E582E 		.ascii	"..X."
 1142 0068 2E2E2E2E 		.ascii	"...."
 1143 006c 2E2E2E2E 		.ascii	"...."
 1144 0070 2E2E582E 		.ascii	"..X."
 1145 0074 2E2E582E 		.ascii	"..X."
 1146 0078 2E58582E 		.ascii	".XX."
ARM GAS  C:\Users\KOZLOV~1\AppData\Local\Temp\ccLKmZOG.s 			page 33


 1147 007c 2E2E2E2E 		.ascii	"...."
 1148 0080 582E2E2E 		.ascii	"X..."
 1149 0084 5858582E 		.ascii	"XXX."
 1150 0088 2E2E2E2E 		.ascii	"...."
 1151 008c 2E2E2E2E 		.ascii	"...."
 1152 0090 2E58582E 		.ascii	".XX."
 1153 0094 2E582E2E 		.ascii	".X.."
 1154 0098 2E582E2E 		.ascii	".X.."
 1155 009c 2E2E2E2E 		.ascii	"...."
 1156 00a0 2E582E2E 		.ascii	".X.."
 1157 00a4 5858582E 		.ascii	"XXX."
 1158 00a8 2E2E2E2E 		.ascii	"...."
 1159 00ac 2E2E2E2E 		.ascii	"...."
 1160 00b0 2E582E2E 		.ascii	".X.."
 1161 00b4 2E58582E 		.ascii	".XX."
 1162 00b8 2E582E2E 		.ascii	".X.."
 1163 00bc 2E2E2E2E 		.ascii	"...."
 1164 00c0 5858582E 		.ascii	"XXX."
 1165 00c4 2E582E2E 		.ascii	".X.."
 1166 00c8 2E2E2E2E 		.ascii	"...."
 1167 00cc 2E2E2E2E 		.ascii	"...."
 1168 00d0 2E582E2E 		.ascii	".X.."
 1169 00d4 58582E2E 		.ascii	"XX.."
 1170 00d8 2E582E2E 		.ascii	".X.."
 1171 00dc 2E2E2E2E 		.ascii	"...."
 1172 00e0 582E2E2E 		.ascii	"X..."
 1173 00e4 58582E2E 		.ascii	"XX.."
 1174 00e8 2E582E2E 		.ascii	".X.."
 1175 00ec 2E2E2E2E 		.ascii	"...."
 1176 00f0 2E58582E 		.ascii	".XX."
 1177 00f4 58582E2E 		.ascii	"XX.."
 1178 00f8 2E2E2E2E 		.ascii	"...."
 1179 00fc 2E2E2E2E 		.ascii	"...."
 1180 0100 2E582E2E 		.ascii	".X.."
 1181 0104 58582E2E 		.ascii	"XX.."
 1182 0108 582E2E2E 		.ascii	"X..."
 1183 010c 2E2E2E2E 		.ascii	"...."
 1184 0110 58582E2E 		.ascii	"XX.."
 1185 0114 2E58582E 		.ascii	".XX."
 1186 0118 2E2E2E2E 		.ascii	"...."
 1187 011c 2E2E2E2E 		.ascii	"...."
 1188 0120 58582E2E 		.ascii	"XX.."
 1189 0124 58582E2E 		.ascii	"XX.."
 1190 0128 2E2E2E2E 		.ascii	"...."
 1191 012c 2E2E2E2E 		.ascii	"...."
 1192              		.bss
 1193              		.align	2
 1194              		.set	.LANCHOR1,. + 0
 1195              		.set	.LANCHOR2,. + 640
 1196              		.type	board, %object
 1197              		.size	board, 640
 1198              	board:
 1199 0000 00000000 		.space	640
 1199      00000000 
 1199      00000000 
 1199      00000000 
 1199      00000000 
ARM GAS  C:\Users\KOZLOV~1\AppData\Local\Temp\ccLKmZOG.s 			page 34


 1200              		.type	currFigure, %object
 1201              		.size	currFigure, 4
 1202              	currFigure:
 1203 0280 00000000 		.space	4
 1204              		.type	currXpos, %object
 1205              		.size	currXpos, 4
 1206              	currXpos:
 1207 0284 00000000 		.space	4
 1208              		.type	currYpos, %object
 1209              		.size	currYpos, 4
 1210              	currYpos:
 1211 0288 00000000 		.space	4
 1212              		.type	score, %object
 1213              		.size	score, 1
 1214              	score:
 1215 028c 00       		.space	1
 1216 028d 000000   		.space	3
 1217              		.type	delayTimeMs, %object
 1218              		.size	delayTimeMs, 4
 1219              	delayTimeMs:
 1220 0290 00000000 		.space	4
 1221              		.type	lastUpdate, %object
 1222              		.size	lastUpdate, 4
 1223              	lastUpdate:
 1224 0294 00000000 		.space	4
 1225              		.type	gameStatus, %object
 1226              		.size	gameStatus, 1
 1227              	gameStatus:
 1228 0298 00       		.space	1
 1229 0299 000000   		.text
 1230              	.Letext0:
 1231              		.file 2 "./startup/../pre_emptive_os/api/../api/general.h"
 1232              		.file 3 "select.h"