ARM GAS  C:\Users\KOZLOV~1\AppData\Local\Temp\cc6vxhng.s 			page 1


   1              		.code	16
   2              		.file	"i2c.c"
   3              		.text
   4              	.Ltext0:
   5              		.cfi_sections	.debug_frame
   6              		.align	1
   7              		.global	getI2cLock
   8              		.code	16
   9              		.thumb_func
  10              		.type	getI2cLock, %function
  11              	getI2cLock:
  12              	.LFB0:
  13              		.file 1 "i2c.c"
   1:i2c.c         **** /******************************************************************************
   2:i2c.c         ****  *
   3:i2c.c         ****  * Copyright:
   4:i2c.c         ****  *    (C) 2006 Embedded Artists AB
   5:i2c.c         ****  *
   6:i2c.c         ****  * File:
   7:i2c.c         ****  *    i2c.c
   8:i2c.c         ****  *
   9:i2c.c         ****  * Description:
  10:i2c.c         ****  *    Implements low-level routines for the I2C bus
  11:i2c.c         ****  *
  12:i2c.c         ****  *****************************************************************************/
  13:i2c.c         **** 
  14:i2c.c         **** /******************************************************************************
  15:i2c.c         ****  * Includes
  16:i2c.c         ****  *****************************************************************************/
  17:i2c.c         **** #include "../pre_emptive_os/api/osapi.h"
  18:i2c.c         **** #include "../pre_emptive_os/api/general.h"
  19:i2c.c         **** #include "i2c.h"
  20:i2c.c         **** #include <lpc2xxx.h>
  21:i2c.c         **** 
  22:i2c.c         **** 
  23:i2c.c         **** /*****************************************************************************
  24:i2c.c         ****  * Local variables
  25:i2c.c         ****  ****************************************************************************/
  26:i2c.c         **** static tCntSem i2cSem;
  27:i2c.c         **** 
  28:i2c.c         **** 
  29:i2c.c         **** /******************************************************************************
  30:i2c.c         ****  * Defines and typedefs
  31:i2c.c         ****  *****************************************************************************/
  32:i2c.c         **** #define I2C_CONSET (*((volatile unsigned char *) 0xE001C000))
  33:i2c.c         **** #define I2C_STAT   (*((volatile unsigned char *) 0xE001C004))
  34:i2c.c         **** #define I2C_DATA   (*((volatile unsigned char *) 0xE001C008))
  35:i2c.c         **** #define I2C_ADDR   (*((volatile unsigned char *) 0xE001C00C))
  36:i2c.c         **** #define I2C_SCLH   (*((volatile unsigned short*) 0xE001C010))
  37:i2c.c         **** #define I2C_SCLL   (*((volatile unsigned short*) 0xE001C014))
  38:i2c.c         **** #define I2C_CONCLR (*((volatile unsigned char *) 0xE001C018))
  39:i2c.c         **** 
  40:i2c.c         **** 
  41:i2c.c         **** #define I2C_REG_CONSET      0x00000040 /* Control Set Register         */
  42:i2c.c         **** #define I2C_REG_CONSET_MASK 0x0000007C /* Used bits                    */
  43:i2c.c         **** #define I2C_REG_DATA        0x00000000 /* Data register                */
  44:i2c.c         **** #define I2C_REG_DATA_MASK   0x000000FF /* Used bits                    */
ARM GAS  C:\Users\KOZLOV~1\AppData\Local\Temp\cc6vxhng.s 			page 2


  45:i2c.c         **** #define I2C_REG_ADDR        0x00000000 /* Slave address register       */
  46:i2c.c         **** #define I2C_REG_ADDR_MASK   0x000000FF /* Used bits                    */
  47:i2c.c         **** #define I2C_REG_SCLH        25         /* SCL Duty Cycle high register */
  48:i2c.c         **** #define I2C_REG_SCLH_MASK   0x0000FFFF /* Used bits                    */
  49:i2c.c         **** #define I2C_REG_SCLL        25         /* SCL Duty Cycle low register  */
  50:i2c.c         **** #define I2C_REG_SCLL_MASK   0x0000FFFF /* Used bits                    */
  51:i2c.c         **** 
  52:i2c.c         **** 
  53:i2c.c         **** void
  54:i2c.c         **** getI2cLock(void)
  55:i2c.c         **** {
  14              		.loc 1 55 0
  15              		.cfi_startproc
  16 0000 01B5     		push	{r0, lr}
  17              	.LCFI0:
  18              		.cfi_def_cfa_offset 8
  19              		.cfi_offset 0, -8
  20              		.cfi_offset 14, -4
  56:i2c.c         ****   tU8 error;
  57:i2c.c         ****   osSemTake(&i2cSem, 0, &error);
  21              		.loc 1 57 0
  22 0002 6A46     		mov	r2, sp
  23 0004 0021     		mov	r1, #0
  24 0006 0332     		add	r2, r2, #3
  25 0008 0248     		ldr	r0, .L2
  26 000a FFF7FEFF 		bl	osSemTake
  58:i2c.c         **** }
  27              		.loc 1 58 0
  28 000e 01B0     		add	sp, sp, #4
  29              		@ sp needed for prologue
  30 0010 01BC     		pop	{r0}
  31 0012 0047     		bx	r0
  32              	.L3:
  33              		.align	2
  34              	.L2:
  35 0014 00000000 		.word	.LANCHOR0
  36              		.cfi_endproc
  37              	.LFE0:
  38              		.size	getI2cLock, .-getI2cLock
  39              		.align	1
  40              		.global	releaseI2cLock
  41              		.code	16
  42              		.thumb_func
  43              		.type	releaseI2cLock, %function
  44              	releaseI2cLock:
  45              	.LFB1:
  59:i2c.c         **** 
  60:i2c.c         **** void
  61:i2c.c         **** releaseI2cLock(void)
  62:i2c.c         **** {
  46              		.loc 1 62 0
  47              		.cfi_startproc
  48 0018 01B5     		push	{r0, lr}
  49              	.LCFI1:
  50              		.cfi_def_cfa_offset 8
  51              		.cfi_offset 0, -8
  52              		.cfi_offset 14, -4
ARM GAS  C:\Users\KOZLOV~1\AppData\Local\Temp\cc6vxhng.s 			page 3


  63:i2c.c         ****   tU8 error;
  64:i2c.c         ****   osSemGive(&i2cSem, &error);
  53              		.loc 1 64 0
  54 001a 6946     		mov	r1, sp
  55 001c 0348     		ldr	r0, .L5
  56 001e 0331     		add	r1, r1, #3
  57 0020 FFF7FEFF 		bl	osSemGive
  65:i2c.c         **** }
  58              		.loc 1 65 0
  59 0024 01B0     		add	sp, sp, #4
  60              		@ sp needed for prologue
  61 0026 01BC     		pop	{r0}
  62 0028 0047     		bx	r0
  63              	.L6:
  64 002a C046     		.align	2
  65              	.L5:
  66 002c 00000000 		.word	.LANCHOR0
  67              		.cfi_endproc
  68              	.LFE1:
  69              		.size	releaseI2cLock, .-releaseI2cLock
  70              		.align	1
  71              		.global	i2cCheckStatus
  72              		.code	16
  73              		.thumb_func
  74              		.type	i2cCheckStatus, %function
  75              	i2cCheckStatus:
  76              	.LFB2:
  66:i2c.c         **** 
  67:i2c.c         **** /******************************************************************************
  68:i2c.c         ****  *
  69:i2c.c         ****  * Description:
  70:i2c.c         ****  *    Checks the I2C status.
  71:i2c.c         ****  *
  72:i2c.c         ****  *
  73:i2c.c         ****  *  Returns:
  74:i2c.c         ****  *      00h Bus error
  75:i2c.c         ****  *      08h START condition transmitted
  76:i2c.c         ****  *      10h Repeated START condition transmitted
  77:i2c.c         ****  *      18h SLA + W transmitted, ACK received
  78:i2c.c         ****  *      20h SLA + W transmitted, ACK not received
  79:i2c.c         ****  *      28h Data byte transmitted, ACK received
  80:i2c.c         ****  *      30h Data byte transmitted, ACK not received
  81:i2c.c         ****  *      38h Arbitration lost
  82:i2c.c         ****  *      40h SLA + R transmitted, ACK received
  83:i2c.c         ****  *      48h SLA + R transmitted, ACK not received
  84:i2c.c         ****  *      50h Data byte received in master mode, ACK transmitted
  85:i2c.c         ****  *      58h Data byte received in master mode, ACK not transmitted
  86:i2c.c         ****  *      60h SLA + W received, ACK transmitted
  87:i2c.c         ****  *      68h Arbitration lost, SLA + W received, ACK transmitted
  88:i2c.c         ****  *      70h General call address received, ACK transmitted
  89:i2c.c         ****  *      78h Arbitration lost, general call addr received, ACK transmitted
  90:i2c.c         ****  *      80h Data byte received with own SLA, ACK transmitted
  91:i2c.c         ****  *      88h Data byte received with own SLA, ACK not transmitted
  92:i2c.c         ****  *      90h Data byte received after general call, ACK transmitted
  93:i2c.c         ****  *      98h Data byte received after general call, ACK not transmitted
  94:i2c.c         ****  *      A0h STOP or repeated START condition received in slave mode
  95:i2c.c         ****  *      A8h SLA + R received, ACK transmitted
ARM GAS  C:\Users\KOZLOV~1\AppData\Local\Temp\cc6vxhng.s 			page 4


  96:i2c.c         ****  *      B0h Arbitration lost, SLA + R received, ACK transmitted
  97:i2c.c         ****  *      B8h Data byte transmitted in slave mode, ACK received
  98:i2c.c         ****  *      C0h Data byte transmitted in slave mode, ACK not received
  99:i2c.c         ****  *      C8h Last byte transmitted in slave mode, ACK received
 100:i2c.c         ****  *      F8h No relevant status information, SI=0
 101:i2c.c         ****  *      FFh Channel error
 102:i2c.c         ****  *
 103:i2c.c         ****  *****************************************************************************/
 104:i2c.c         **** tU8
 105:i2c.c         **** i2cCheckStatus(void)
 106:i2c.c         **** {
  77              		.loc 1 106 0
  78              		.cfi_startproc
  79              	.LVL0:
 107:i2c.c         ****   tU8 status = 0;
 108:i2c.c         **** 
 109:i2c.c         ****   /* wait for I2C Status changed */
 110:i2c.c         ****   while( (I2C_CONSET & 0x08)  == 0)   /* while SI == 0 */
  80              		.loc 1 110 0
  81 0030 034A     		ldr	r2, .L10
  82 0032 0823     		mov	r3, #8
  83              	.L8:
  84              		.loc 1 110 0 is_stmt 0 discriminator 1
  85 0034 1178     		ldrb	r1, [r2]
  86 0036 1942     		tst	r1, r3
  87 0038 FCD0     		beq	.L8
 111:i2c.c         ****   {
 112:i2c.c         ****     ;
 113:i2c.c         ****   }
 114:i2c.c         **** 
 115:i2c.c         ****   /* Read I2C State */
 116:i2c.c         ****   status = I2C_STAT;
  88              		.loc 1 116 0 is_stmt 1
  89 003a 024B     		ldr	r3, .L10+4
 117:i2c.c         **** 
 118:i2c.c         ****   /* NOTE! SI flag is not cleared here */
 119:i2c.c         **** 
 120:i2c.c         ****   return status;
 121:i2c.c         **** }
  90              		.loc 1 121 0
  91              		@ sp needed for prologue
 116:i2c.c         ****   status = I2C_STAT;
  92              		.loc 1 116 0
  93 003c 1878     		ldrb	r0, [r3]
  94              	.LVL1:
  95              		.loc 1 121 0
  96 003e 7047     		bx	lr
  97              	.L11:
  98              		.align	2
  99              	.L10:
 100 0040 00C001E0 		.word	-536756224
 101 0044 04C001E0 		.word	-536756220
 102              		.cfi_endproc
 103              	.LFE2:
 104              		.size	i2cCheckStatus, .-i2cCheckStatus
 105              		.align	1
 106              		.global	i2cInit
ARM GAS  C:\Users\KOZLOV~1\AppData\Local\Temp\cc6vxhng.s 			page 5


 107              		.code	16
 108              		.thumb_func
 109              		.type	i2cInit, %function
 110              	i2cInit:
 111              	.LFB3:
 122:i2c.c         **** 
 123:i2c.c         **** /******************************************************************************
 124:i2c.c         ****  *
 125:i2c.c         ****  * Description:
 126:i2c.c         ****  *    Reset the I2C module.
 127:i2c.c         ****  *
 128:i2c.c         ****  *****************************************************************************/
 129:i2c.c         **** void
 130:i2c.c         **** i2cInit(void)
 131:i2c.c         **** {
 112              		.loc 1 131 0
 113              		.cfi_startproc
 114 0048 00B5     		push	{lr}
 115              	.LCFI2:
 116              		.cfi_def_cfa_offset 4
 117              		.cfi_offset 14, -4
 132:i2c.c         ****   PINSEL0  |= 0x50;
 118              		.loc 1 132 0
 119 004a 104B     		ldr	r3, .L13
 120 004c 1A68     		ldr	r2, [r3]
 121 004e 5021     		mov	r1, #80
 122 0050 0A43     		orr	r2, r1
 123 0052 1A60     		str	r2, [r3]
 133:i2c.c         **** 
 134:i2c.c         ****   /* clear flags */
 135:i2c.c         ****   I2C_CONCLR = 0x6c;    
 124              		.loc 1 135 0
 125 0054 0E4B     		ldr	r3, .L13+4
 126 0056 6C22     		mov	r2, #108
 127 0058 1A70     		strb	r2, [r3]
 136:i2c.c         **** 
 137:i2c.c         ****   /* reset registers */
 138:i2c.c         ****   I2C_SCLL   = ( I2C_SCLL   & ~I2C_REG_SCLL_MASK )   | I2C_REG_SCLL;
 128              		.loc 1 138 0
 129 005a 0E4B     		ldr	r3, .L13+8
 130 005c 1A88     		ldrh	r2, [r3]
 131 005e 1922     		mov	r2, #25
 132 0060 1A80     		strh	r2, [r3]
 139:i2c.c         ****   I2C_SCLH   = ( I2C_SCLH   & ~I2C_REG_SCLH_MASK )   | I2C_REG_SCLH;
 133              		.loc 1 139 0
 134 0062 0D4B     		ldr	r3, .L13+12
 135 0064 1988     		ldrh	r1, [r3]
 136 0066 1A80     		strh	r2, [r3]
 140:i2c.c         ****   I2C_ADDR   = ( I2C_ADDR   & ~I2C_REG_ADDR_MASK )   | I2C_REG_ADDR;
 137              		.loc 1 140 0
 138 0068 0C4B     		ldr	r3, .L13+16
 139 006a 1A78     		ldrb	r2, [r3]
 140 006c 0022     		mov	r2, #0
 141 006e 1A70     		strb	r2, [r3]
 141:i2c.c         ****   I2C_CONSET = ( I2C_CONSET & ~I2C_REG_CONSET_MASK ) | I2C_REG_CONSET;
 142              		.loc 1 141 0
 143 0070 0B4B     		ldr	r3, .L13+20
ARM GAS  C:\Users\KOZLOV~1\AppData\Local\Temp\cc6vxhng.s 			page 6


 144 0072 1A78     		ldrb	r2, [r3]
 145 0074 7C21     		mov	r1, #124
 146 0076 8A43     		bic	r2, r1
 147 0078 4021     		mov	r1, #64
 148 007a 0A43     		orr	r2, r1
 149 007c 1A70     		strb	r2, [r3]
 142:i2c.c         ****   
 143:i2c.c         ****   //Init semaphore
 144:i2c.c         ****   osSemInit(&i2cSem, 1);
 150              		.loc 1 144 0
 151 007e 0948     		ldr	r0, .L13+24
 152 0080 0121     		mov	r1, #1
 153 0082 FFF7FEFF 		bl	osSemInit
 145:i2c.c         **** }
 154              		.loc 1 145 0
 155              		@ sp needed for prologue
 156 0086 01BC     		pop	{r0}
 157 0088 0047     		bx	r0
 158              	.L14:
 159 008a C046     		.align	2
 160              	.L13:
 161 008c 00C002E0 		.word	-536690688
 162 0090 18C001E0 		.word	-536756200
 163 0094 14C001E0 		.word	-536756204
 164 0098 10C001E0 		.word	-536756208
 165 009c 0CC001E0 		.word	-536756212
 166 00a0 00C001E0 		.word	-536756224
 167 00a4 00000000 		.word	.LANCHOR0
 168              		.cfi_endproc
 169              	.LFE3:
 170              		.size	i2cInit, .-i2cInit
 171              		.align	1
 172              		.global	i2cStart
 173              		.code	16
 174              		.thumb_func
 175              		.type	i2cStart, %function
 176              	i2cStart:
 177              	.LFB4:
 146:i2c.c         **** 
 147:i2c.c         **** /******************************************************************************
 148:i2c.c         ****  *
 149:i2c.c         ****  * Description:
 150:i2c.c         ****  *    Generates a start condition on I2C when bus is free.
 151:i2c.c         ****  *    Master mode will also automatically be entered.
 152:i2c.c         ****  *
 153:i2c.c         ****  *    Note: After a stop condition, you may need a bus free time before you 
 154:i2c.c         ****  *          can generate a new start condition.
 155:i2c.c         ****  *
 156:i2c.c         ****  * Returns:
 157:i2c.c         ****  *    I2C_CODE_OK or I2C status code
 158:i2c.c         ****  *
 159:i2c.c         ****  *****************************************************************************/
 160:i2c.c         **** tS8
 161:i2c.c         **** i2cStart(void)
 162:i2c.c         **** {
 178              		.loc 1 162 0
 179              		.cfi_startproc
ARM GAS  C:\Users\KOZLOV~1\AppData\Local\Temp\cc6vxhng.s 			page 7


 180 00a8 30B5     		push	{r4, r5, lr}
 181              	.LCFI3:
 182              		.cfi_def_cfa_offset 12
 183              		.cfi_offset 4, -12
 184              		.cfi_offset 5, -8
 185              		.cfi_offset 14, -4
 186              	.LVL2:
 163:i2c.c         ****   tU8   status  = 0;
 164:i2c.c         ****   tS8   retCode = 0;
 165:i2c.c         **** 
 166:i2c.c         ****   /* issue a start condition */
 167:i2c.c         ****   I2C_CONSET |= 0x20; /* STA = 1, set start flag */
 187              		.loc 1 167 0
 188 00aa 0E4B     		ldr	r3, .L20
 189 00ac 1A78     		ldrb	r2, [r3]
 190 00ae 2021     		mov	r1, #32
 191 00b0 0A43     		orr	r2, r1
 192 00b2 1A70     		strb	r2, [r3]
 193 00b4 0C4C     		ldr	r4, .L20+4
 168:i2c.c         **** 
 169:i2c.c         ****   /* wait until START transmitted */
 170:i2c.c         ****   while(1)
 171:i2c.c         ****   {
 172:i2c.c         ****     status = i2cCheckStatus();
 173:i2c.c         **** 
 174:i2c.c         ****     /* start transmitted */
 175:i2c.c         ****     if((status == 0x08) || (status == 0x10))
 176:i2c.c         ****     {
 177:i2c.c         ****       retCode = I2C_CODE_OK;
 178:i2c.c         ****       break;
 179:i2c.c         ****     }
 180:i2c.c         **** 
 181:i2c.c         ****     /* error */
 182:i2c.c         ****     else if(status != 0xf8)
 183:i2c.c         ****     {
 184:i2c.c         ****       retCode = (tS8) status;
 185:i2c.c         ****       break;
 186:i2c.c         ****     }
 187:i2c.c         **** 
 188:i2c.c         ****     else
 189:i2c.c         ****     {
 190:i2c.c         ****       /* clear SI flag */
 191:i2c.c         ****       I2C_CONCLR = 0x08;
 194              		.loc 1 191 0
 195 00b6 0825     		mov	r5, #8
 196              	.LVL3:
 197              	.L18:
 172:i2c.c         ****     status = i2cCheckStatus();
 198              		.loc 1 172 0
 199 00b8 FFF7FEFF 		bl	i2cCheckStatus
 200              	.LVL4:
 175:i2c.c         ****     if((status == 0x08) || (status == 0x10))
 201              		.loc 1 175 0
 202 00bc 1028     		cmp	r0, #16
 203 00be 08D0     		beq	.L19
 204 00c0 0828     		cmp	r0, #8
 205 00c2 06D0     		beq	.L19
ARM GAS  C:\Users\KOZLOV~1\AppData\Local\Temp\cc6vxhng.s 			page 8


 182:i2c.c         ****     else if(status != 0xf8)
 206              		.loc 1 182 0
 207 00c4 F828     		cmp	r0, #248
 208 00c6 02D0     		beq	.L17
 184:i2c.c         ****       retCode = (tS8) status;
 209              		.loc 1 184 0
 210 00c8 0006     		lsl	r0, r0, #24
 211              	.LVL5:
 212 00ca 000E     		lsr	r0, r0, #24
 213              	.LVL6:
 185:i2c.c         ****       break;
 214              		.loc 1 185 0
 215 00cc 02E0     		b	.L16
 216              	.LVL7:
 217              	.L17:
 218              		.loc 1 191 0
 219 00ce 2570     		strb	r5, [r4]
 192:i2c.c         ****     }    
 193:i2c.c         ****   }
 220              		.loc 1 193 0
 221 00d0 F2E7     		b	.L18
 222              	.L19:
 177:i2c.c         ****       retCode = I2C_CODE_OK;
 223              		.loc 1 177 0
 224 00d2 0120     		mov	r0, #1
 225              	.LVL8:
 226              	.L16:
 194:i2c.c         **** 
 195:i2c.c         ****   /* clear start flag */
 196:i2c.c         ****   I2C_CONCLR = 0x20;
 227              		.loc 1 196 0
 228 00d4 044B     		ldr	r3, .L20+4
 229 00d6 2022     		mov	r2, #32
 197:i2c.c         **** 
 198:i2c.c         ****   return retCode;
 230              		.loc 1 198 0
 231 00d8 0006     		lsl	r0, r0, #24
 232              	.LVL9:
 233 00da 0016     		asr	r0, r0, #24
 196:i2c.c         ****   I2C_CONCLR = 0x20;
 234              		.loc 1 196 0
 235 00dc 1A70     		strb	r2, [r3]
 199:i2c.c         **** }
 236              		.loc 1 199 0
 237              		@ sp needed for prologue
 238 00de 30BC     		pop	{r4, r5}
 239 00e0 02BC     		pop	{r1}
 240 00e2 0847     		bx	r1
 241              	.L21:
 242              		.align	2
 243              	.L20:
 244 00e4 00C001E0 		.word	-536756224
 245 00e8 18C001E0 		.word	-536756200
 246              		.cfi_endproc
 247              	.LFE4:
 248              		.size	i2cStart, .-i2cStart
 249              		.align	1
ARM GAS  C:\Users\KOZLOV~1\AppData\Local\Temp\cc6vxhng.s 			page 9


 250              		.global	i2cRepeatStart
 251              		.code	16
 252              		.thumb_func
 253              		.type	i2cRepeatStart, %function
 254              	i2cRepeatStart:
 255              	.LFB5:
 200:i2c.c         **** 
 201:i2c.c         **** /******************************************************************************
 202:i2c.c         ****  *
 203:i2c.c         ****  * Description:
 204:i2c.c         ****  *    Generates a start condition on I2C when bus is free.
 205:i2c.c         ****  *    Master mode will also automatically be entered.
 206:i2c.c         ****  *
 207:i2c.c         ****  *    Note: After a stop condition, you may need a bus free time before you 
 208:i2c.c         ****  *          can generate a new start condition.
 209:i2c.c         ****  *
 210:i2c.c         ****  * Returns:
 211:i2c.c         ****  *    I2C_CODE_OK or I2C status code
 212:i2c.c         ****  *
 213:i2c.c         ****  *****************************************************************************/
 214:i2c.c         **** tS8
 215:i2c.c         **** i2cRepeatStart(void)
 216:i2c.c         **** {
 256              		.loc 1 216 0
 257              		.cfi_startproc
 258 00ec 30B5     		push	{r4, r5, lr}
 259              	.LCFI4:
 260              		.cfi_def_cfa_offset 12
 261              		.cfi_offset 4, -12
 262              		.cfi_offset 5, -8
 263              		.cfi_offset 14, -4
 264              	.LVL10:
 217:i2c.c         ****   tU8   status  = 0;
 218:i2c.c         ****   tS8   retCode = 0;
 219:i2c.c         **** 
 220:i2c.c         ****   /* issue a start condition */
 221:i2c.c         ****   I2C_CONSET |= 0x20; /* STA = 1, set start flag */
 265              		.loc 1 221 0
 266 00ee 0D4B     		ldr	r3, .L28
 267 00f0 1A78     		ldrb	r2, [r3]
 268 00f2 2021     		mov	r1, #32
 269 00f4 0A43     		orr	r2, r1
 270 00f6 1A70     		strb	r2, [r3]
 222:i2c.c         ****   I2C_CONCLR = 0x08;  /* clear SI flag           */
 271              		.loc 1 222 0
 272 00f8 0B4C     		ldr	r4, .L28+4
 273 00fa 0825     		mov	r5, #8
 274              	.LVL11:
 275              	.L27:
 276 00fc 2570     		strb	r5, [r4]
 223:i2c.c         **** 
 224:i2c.c         ****   /* wait until START transmitted */
 225:i2c.c         ****   while(1)
 226:i2c.c         ****   {
 227:i2c.c         ****     status = i2cCheckStatus();
 277              		.loc 1 227 0
 278 00fe FFF7FEFF 		bl	i2cCheckStatus
ARM GAS  C:\Users\KOZLOV~1\AppData\Local\Temp\cc6vxhng.s 			page 10


 279              	.LVL12:
 228:i2c.c         **** 
 229:i2c.c         ****     /* start transmitted */
 230:i2c.c         ****     if((status == 0x08) || (status == 0x10))
 280              		.loc 1 230 0
 281 0102 1028     		cmp	r0, #16
 282 0104 06D0     		beq	.L26
 283 0106 0828     		cmp	r0, #8
 284 0108 04D0     		beq	.L26
 231:i2c.c         ****     {
 232:i2c.c         ****       retCode = I2C_CODE_OK;
 233:i2c.c         ****       break;
 234:i2c.c         ****     }
 235:i2c.c         **** 
 236:i2c.c         ****     /* error */
 237:i2c.c         ****     else if(status != 0xf8)
 285              		.loc 1 237 0
 286 010a F828     		cmp	r0, #248
 287 010c F6D0     		beq	.L27
 238:i2c.c         ****     {
 239:i2c.c         ****       retCode = (tS8) status;
 288              		.loc 1 239 0
 289 010e 0006     		lsl	r0, r0, #24
 290              	.LVL13:
 291 0110 000E     		lsr	r0, r0, #24
 292              	.LVL14:
 240:i2c.c         ****       break;
 293              		.loc 1 240 0
 294 0112 00E0     		b	.L23
 295              	.LVL15:
 296              	.L26:
 232:i2c.c         ****       retCode = I2C_CODE_OK;
 297              		.loc 1 232 0
 298 0114 0120     		mov	r0, #1
 299              	.LVL16:
 300              	.L23:
 241:i2c.c         ****     }
 242:i2c.c         **** 
 243:i2c.c         ****     else
 244:i2c.c         ****     {
 245:i2c.c         ****       /* clear SI flag */
 246:i2c.c         ****       I2C_CONCLR = 0x08;
 247:i2c.c         ****     }    
 248:i2c.c         ****   }
 249:i2c.c         **** 
 250:i2c.c         ****   /* clear start flag */
 251:i2c.c         ****   I2C_CONCLR = 0x20;
 301              		.loc 1 251 0
 302 0116 2023     		mov	r3, #32
 252:i2c.c         **** 
 253:i2c.c         ****   return retCode;
 303              		.loc 1 253 0
 304 0118 0006     		lsl	r0, r0, #24
 305              	.LVL17:
 306 011a 0016     		asr	r0, r0, #24
 251:i2c.c         ****   I2C_CONCLR = 0x20;
 307              		.loc 1 251 0
ARM GAS  C:\Users\KOZLOV~1\AppData\Local\Temp\cc6vxhng.s 			page 11


 308 011c 2370     		strb	r3, [r4]
 254:i2c.c         **** }
 309              		.loc 1 254 0
 310              		@ sp needed for prologue
 311 011e 30BC     		pop	{r4, r5}
 312 0120 02BC     		pop	{r1}
 313 0122 0847     		bx	r1
 314              	.L29:
 315              		.align	2
 316              	.L28:
 317 0124 00C001E0 		.word	-536756224
 318 0128 18C001E0 		.word	-536756200
 319              		.cfi_endproc
 320              	.LFE5:
 321              		.size	i2cRepeatStart, .-i2cRepeatStart
 322              		.align	1
 323              		.global	i2cStop
 324              		.code	16
 325              		.thumb_func
 326              		.type	i2cStop, %function
 327              	i2cStop:
 328              	.LFB6:
 255:i2c.c         **** 
 256:i2c.c         **** /******************************************************************************
 257:i2c.c         ****  *
 258:i2c.c         ****  * Description:
 259:i2c.c         ****  *    Generates a stop condition in master mode or recovers from an error
 260:i2c.c         ****  *    condition in slave mode.
 261:i2c.c         ****  *
 262:i2c.c         ****  *    Note: After this function is run, you may need a bus free time before
 263:i2c.c         ****  *          you can generate a new start condition.
 264:i2c.c         ****  *
 265:i2c.c         ****  * Returns:
 266:i2c.c         ****  *    I2C_CODE_OK
 267:i2c.c         ****  *
 268:i2c.c         ****  *****************************************************************************/
 269:i2c.c         **** tS8
 270:i2c.c         **** i2cStop(void)
 271:i2c.c         **** {
 329              		.loc 1 271 0
 330              		.cfi_startproc
 272:i2c.c         ****   I2C_CONSET |= 0x10; /* STO = 1, set stop flag */ 
 331              		.loc 1 272 0
 332 012c 064B     		ldr	r3, .L33
 333 012e 1978     		ldrb	r1, [r3]
 334 0130 1022     		mov	r2, #16
 335 0132 1143     		orr	r1, r2
 336 0134 1970     		strb	r1, [r3]
 273:i2c.c         ****   I2C_CONCLR = 0x08;  /* clear SI flag          */ 
 337              		.loc 1 273 0
 338 0136 0549     		ldr	r1, .L33+4
 339 0138 0820     		mov	r0, #8
 340 013a 0870     		strb	r0, [r1]
 341              	.L31:
 274:i2c.c         **** 
 275:i2c.c         ****   /* wait for STOP detected (while STO = 1) */
 276:i2c.c         ****   while((I2C_CONSET & 0x10) == 0x10 )
ARM GAS  C:\Users\KOZLOV~1\AppData\Local\Temp\cc6vxhng.s 			page 12


 342              		.loc 1 276 0 discriminator 1
 343 013c 1978     		ldrb	r1, [r3]
 344 013e 1142     		tst	r1, r2
 345 0140 FCD1     		bne	.L31
 277:i2c.c         ****   {
 278:i2c.c         ****     /* do nothing */
 279:i2c.c         ****     ;
 280:i2c.c         ****   }
 281:i2c.c         **** 
 282:i2c.c         ****   return I2C_CODE_OK;
 283:i2c.c         **** }
 346              		.loc 1 283 0
 347 0142 0120     		mov	r0, #1
 348              		@ sp needed for prologue
 349 0144 7047     		bx	lr
 350              	.L34:
 351 0146 C046     		.align	2
 352              	.L33:
 353 0148 00C001E0 		.word	-536756224
 354 014c 18C001E0 		.word	-536756200
 355              		.cfi_endproc
 356              	.LFE6:
 357              		.size	i2cStop, .-i2cStop
 358              		.align	1
 359              		.global	i2cPutChar
 360              		.code	16
 361              		.thumb_func
 362              		.type	i2cPutChar, %function
 363              	i2cPutChar:
 364              	.LFB7:
 284:i2c.c         **** 
 285:i2c.c         **** /******************************************************************************
 286:i2c.c         ****  *
 287:i2c.c         ****  * Description:
 288:i2c.c         ****  *    Sends a character on the I2C network
 289:i2c.c         ****  *
 290:i2c.c         ****  * Params:
 291:i2c.c         ****  *    [in] data - the character to send
 292:i2c.c         ****  *
 293:i2c.c         ****  * Returns:
 294:i2c.c         ****  *    I2C_CODE_OK   - successful
 295:i2c.c         ****  *    I2C_CODE_BUSY - data register is not ready -> byte was not sent
 296:i2c.c         ****  *
 297:i2c.c         ****  *****************************************************************************/
 298:i2c.c         **** tS8
 299:i2c.c         **** i2cPutChar(tU8 data)
 300:i2c.c         **** {
 365              		.loc 1 300 0
 366              		.cfi_startproc
 367              	.LVL18:
 301:i2c.c         ****   tS8 retCode = 0;
 302:i2c.c         **** 
 303:i2c.c         ****   /* check if I2C Data register can be accessed */
 304:i2c.c         ****   if((I2C_CONSET & 0x08) != 0)  /* if SI = 1 */
 368              		.loc 1 304 0
 369 0150 074B     		ldr	r3, .L38
 370 0152 1978     		ldrb	r1, [r3]
ARM GAS  C:\Users\KOZLOV~1\AppData\Local\Temp\cc6vxhng.s 			page 13


 300:i2c.c         **** {
 371              		.loc 1 300 0
 372 0154 0006     		lsl	r0, r0, #24
 373              	.LVL19:
 374              		.loc 1 304 0
 375 0156 0822     		mov	r2, #8
 300:i2c.c         **** {
 376              		.loc 1 300 0
 377 0158 000E     		lsr	r0, r0, #24
 305:i2c.c         ****   {
 306:i2c.c         ****     /* send data */
 307:i2c.c         ****     I2C_DATA   = data;
 308:i2c.c         ****     I2C_CONCLR = 0x08; /* clear SI flag */ 
 309:i2c.c         ****     retCode    = I2C_CODE_OK;
 310:i2c.c         ****   }
 311:i2c.c         ****   else
 312:i2c.c         ****   {
 313:i2c.c         ****     /* data register not ready */
 314:i2c.c         ****     retCode = I2C_CODE_BUSY;
 378              		.loc 1 314 0
 379 015a FC23     		mov	r3, #252
 304:i2c.c         ****   if((I2C_CONSET & 0x08) != 0)  /* if SI = 1 */
 380              		.loc 1 304 0
 381 015c 1142     		tst	r1, r2
 382 015e 04D0     		beq	.L36
 307:i2c.c         ****     I2C_DATA   = data;
 383              		.loc 1 307 0
 384 0160 044B     		ldr	r3, .L38+4
 385 0162 1870     		strb	r0, [r3]
 308:i2c.c         ****     I2C_CONCLR = 0x08; /* clear SI flag */ 
 386              		.loc 1 308 0
 387 0164 044B     		ldr	r3, .L38+8
 388 0166 1A70     		strb	r2, [r3]
 389              	.LVL20:
 309:i2c.c         ****     retCode    = I2C_CODE_OK;
 390              		.loc 1 309 0
 391 0168 0123     		mov	r3, #1
 392              	.LVL21:
 393              	.L36:
 315:i2c.c         ****   }
 316:i2c.c         **** 
 317:i2c.c         ****   return retCode;
 394              		.loc 1 317 0
 395 016a 1B06     		lsl	r3, r3, #24
 396              	.LVL22:
 397 016c 1816     		asr	r0, r3, #24
 318:i2c.c         **** }
 398              		.loc 1 318 0
 399              		@ sp needed for prologue
 400 016e 7047     		bx	lr
 401              	.L39:
 402              		.align	2
 403              	.L38:
 404 0170 00C001E0 		.word	-536756224
 405 0174 08C001E0 		.word	-536756216
 406 0178 18C001E0 		.word	-536756200
 407              		.cfi_endproc
ARM GAS  C:\Users\KOZLOV~1\AppData\Local\Temp\cc6vxhng.s 			page 14


 408              	.LFE7:
 409              		.size	i2cPutChar, .-i2cPutChar
 410              		.align	1
 411              		.global	i2cGetChar
 412              		.code	16
 413              		.thumb_func
 414              		.type	i2cGetChar, %function
 415              	i2cGetChar:
 416              	.LFB8:
 319:i2c.c         **** 
 320:i2c.c         **** /******************************************************************************
 321:i2c.c         ****  *
 322:i2c.c         ****  * Description:
 323:i2c.c         ****  *    Read a character. I2C master mode is used.
 324:i2c.c         ****  *    This function is also used to prepare if the master shall generate
 325:i2c.c         ****  *    acknowledge or not acknowledge.
 326:i2c.c         ****  *
 327:i2c.c         ****  * Params:
 328:i2c.c         ****  *    [in]  mode  - I2C_MODE_ACK0 Set ACK=0. Slave sends next byte
 329:i2c.c         ****  *                  I2C_MODE_ACK1 Set ACK=1. Slave sends last byte
 330:i2c.c         ****  *                  I2C_MODE_READ Read data from data register
 331:i2c.c         ****  *    [out] pData - a pointer to where the data shall be saved.
 332:i2c.c         ****  *
 333:i2c.c         ****  * Returns:
 334:i2c.c         ****  *    I2C_CODE_OK    - successful
 335:i2c.c         ****  *    I2C_CODE_EMPTY - no data is available
 336:i2c.c         ****  *
 337:i2c.c         ****  *****************************************************************************/
 338:i2c.c         **** tS8
 339:i2c.c         **** i2cGetChar(tU8  mode,
 340:i2c.c         ****            tU8* pData)
 341:i2c.c         **** {
 417              		.loc 1 341 0
 418              		.cfi_startproc
 419              	.LVL23:
 420              		.loc 1 341 0
 421 017c 0006     		lsl	r0, r0, #24
 422              	.LVL24:
 423 017e 000E     		lsr	r0, r0, #24
 342:i2c.c         ****   tS8 retCode = I2C_CODE_OK;
 343:i2c.c         **** 
 344:i2c.c         ****   if(mode == I2C_MODE_ACK0)
 424              		.loc 1 344 0
 425 0180 08D1     		bne	.L41
 345:i2c.c         ****   {
 346:i2c.c         ****     /* the operation mode is changed from master transmit to master receive */
 347:i2c.c         **** 
 348:i2c.c         ****     /* set ACK=0 (informs slave to send next byte) */
 349:i2c.c         **** 
 350:i2c.c         ****     I2C_CONSET |= 0x04; /* AA=1          */
 426              		.loc 1 350 0
 427 0182 104B     		ldr	r3, .L48
 428 0184 1A78     		ldrb	r2, [r3]
 429 0186 0421     		mov	r1, #4
 430              	.LVL25:
 431 0188 0A43     		orr	r2, r1
 432 018a 1A70     		strb	r2, [r3]
ARM GAS  C:\Users\KOZLOV~1\AppData\Local\Temp\cc6vxhng.s 			page 15


 351:i2c.c         ****     I2C_CONCLR = 0x08;  /* clear SI flag */   
 433              		.loc 1 351 0
 434 018c 0E4B     		ldr	r3, .L48+4
 435 018e 0822     		mov	r2, #8
 436 0190 1A70     		strb	r2, [r3]
 437 0192 13E0     		b	.L47
 438              	.LVL26:
 439              	.L41:
 352:i2c.c         ****   }
 353:i2c.c         ****   else if(mode == I2C_MODE_ACK1)
 440              		.loc 1 353 0
 441 0194 0128     		cmp	r0, #1
 442 0196 06D1     		bne	.L43
 354:i2c.c         ****   {
 355:i2c.c         ****     /* set ACK=1 (informs slave to send last byte) */
 356:i2c.c         ****     I2C_CONCLR = 0x04;     
 443              		.loc 1 356 0
 444 0198 0B4B     		ldr	r3, .L48+4
 445 019a 0422     		mov	r2, #4
 446 019c 1A70     		strb	r2, [r3]
 357:i2c.c         ****     I2C_CONCLR = 0x08; /* clear SI flag */ 
 447              		.loc 1 357 0
 448 019e 0822     		mov	r2, #8
 449 01a0 1A70     		strb	r2, [r3]
 342:i2c.c         ****   tS8 retCode = I2C_CODE_OK;
 450              		.loc 1 342 0
 451 01a2 031C     		mov	r3, r0
 452 01a4 0BE0     		b	.L42
 453              	.L43:
 454 01a6 0123     		mov	r3, #1
 358:i2c.c         ****   }
 359:i2c.c         ****   else if(mode == I2C_MODE_READ)
 455              		.loc 1 359 0
 456 01a8 0228     		cmp	r0, #2
 457 01aa 08D1     		bne	.L42
 458              	.LVL27:
 459              	.LBB4:
 460              	.LBB5:
 360:i2c.c         ****   {
 361:i2c.c         ****     /* check if I2C Data register can be accessed */
 362:i2c.c         ****     if((I2C_CONSET & 0x08) != 0)  /* SI = 1 */
 461              		.loc 1 362 0
 462 01ac 054B     		ldr	r3, .L48
 463 01ae 1A78     		ldrb	r2, [r3]
 363:i2c.c         ****     {
 364:i2c.c         ****       /* read data  */
 365:i2c.c         ****       *pData = (tU8) I2C_DATA;
 366:i2c.c         ****     }
 367:i2c.c         ****     else
 368:i2c.c         ****     {
 369:i2c.c         ****       /* No data available */
 370:i2c.c         ****       retCode = I2C_CODE_EMPTY;
 464              		.loc 1 370 0
 465 01b0 FD23     		mov	r3, #253
 362:i2c.c         ****     if((I2C_CONSET & 0x08) != 0)  /* SI = 1 */
 466              		.loc 1 362 0
 467 01b2 1007     		lsl	r0, r2, #28
ARM GAS  C:\Users\KOZLOV~1\AppData\Local\Temp\cc6vxhng.s 			page 16


 468 01b4 03D5     		bpl	.L42
 469              	.LVL28:
 365:i2c.c         ****       *pData = (tU8) I2C_DATA;
 470              		.loc 1 365 0
 471 01b6 054B     		ldr	r3, .L48+8
 472 01b8 1B78     		ldrb	r3, [r3]
 473 01ba 0B70     		strb	r3, [r1]
 474              	.LVL29:
 475              	.L47:
 342:i2c.c         ****   tS8 retCode = I2C_CODE_OK;
 476              		.loc 1 342 0
 477 01bc 0123     		mov	r3, #1
 478              	.L42:
 479              	.LVL30:
 480              	.LBE5:
 481              	.LBE4:
 371:i2c.c         ****     }
 372:i2c.c         ****   }
 373:i2c.c         **** 
 374:i2c.c         ****   return retCode;
 482              		.loc 1 374 0
 483 01be 1B06     		lsl	r3, r3, #24
 484              	.LVL31:
 485 01c0 1816     		asr	r0, r3, #24
 375:i2c.c         **** }
 486              		.loc 1 375 0
 487              		@ sp needed for prologue
 488 01c2 7047     		bx	lr
 489              	.L49:
 490              		.align	2
 491              	.L48:
 492 01c4 00C001E0 		.word	-536756224
 493 01c8 18C001E0 		.word	-536756200
 494 01cc 08C001E0 		.word	-536756216
 495              		.cfi_endproc
 496              	.LFE8:
 497              		.size	i2cGetChar, .-i2cGetChar
 498              		.align	1
 499              		.global	i2cWrite
 500              		.code	16
 501              		.thumb_func
 502              		.type	i2cWrite, %function
 503              	i2cWrite:
 504              	.LFB9:
 376:i2c.c         **** 
 377:i2c.c         **** /******************************************************************************
 378:i2c.c         ****  *
 379:i2c.c         ****  * Description:
 380:i2c.c         ****  *    Sends data on the I2C network
 381:i2c.c         ****  *
 382:i2c.c         ****  *    Note: After this function is run, you may need a bus free time before a 
 383:i2c.c         ****  *          new data transfer can be initiated.
 384:i2c.c         ****  *
 385:i2c.c         ****  * Params:
 386:i2c.c         ****  *    [in] addr  - address
 387:i2c.c         ****  *    [in] pData - data to transmit
 388:i2c.c         ****  *    [in] len   - number of bytes to transmit
ARM GAS  C:\Users\KOZLOV~1\AppData\Local\Temp\cc6vxhng.s 			page 17


 389:i2c.c         ****  *
 390:i2c.c         ****  * Returns:
 391:i2c.c         ****  *    I2C_CODE_OK    - successful
 392:i2c.c         ****  *    I2C_CODE_ERROR - an error occured
 393:i2c.c         ****  *
 394:i2c.c         ****  *****************************************************************************/
 395:i2c.c         **** tS8
 396:i2c.c         **** i2cWrite(tU8  addr,
 397:i2c.c         ****          tU8* pData,
 398:i2c.c         ****          tU16 len)
 399:i2c.c         **** {
 505              		.loc 1 399 0
 506              		.cfi_startproc
 507 01d0 F1B5     		push	{r0, r4, r5, r6, r7, lr}
 508              	.LCFI5:
 509              		.cfi_def_cfa_offset 24
 510              		.cfi_offset 0, -24
 511              		.cfi_offset 4, -20
 512              		.cfi_offset 5, -16
 513              		.cfi_offset 6, -12
 514              		.cfi_offset 7, -8
 515              		.cfi_offset 14, -4
 516              	.LVL32:
 517              		.loc 1 399 0
 518 01d2 0506     		lsl	r5, r0, #24
 519 01d4 1704     		lsl	r7, r2, #16
 520 01d6 0E1C     		mov	r6, r1
 400:i2c.c         ****   tS8 retCode = 0;
 401:i2c.c         ****   tU8 status  = 0;
 402:i2c.c         ****   tU8 i       = 0;
 403:i2c.c         **** 
 404:i2c.c         ****   /* generate Start condition */
 405:i2c.c         ****   retCode = i2cStart();
 521              		.loc 1 405 0
 522 01d8 FFF7FEFF 		bl	i2cStart
 523              	.LVL33:
 399:i2c.c         **** {
 524              		.loc 1 399 0
 525 01dc 2D0E     		lsr	r5, r5, #24
 526 01de 3F0C     		lsr	r7, r7, #16
 527              		.loc 1 405 0
 528 01e0 041C     		mov	r4, r0
 529              	.LVL34:
 406:i2c.c         **** 
 407:i2c.c         ****   /* Transmit address */
 408:i2c.c         ****   if(retCode == I2C_CODE_OK)
 530              		.loc 1 408 0
 531 01e2 0128     		cmp	r0, #1
 532 01e4 27D1     		bne	.L65
 533              	.LVL35:
 534              	.L53:
 409:i2c.c         ****   {
 410:i2c.c         ****     /* write SLA+W */
 411:i2c.c         ****     retCode = i2cPutChar(addr);
 412:i2c.c         ****     while(retCode == I2C_CODE_BUSY)
 413:i2c.c         ****     {
 414:i2c.c         ****       retCode = i2cPutChar(addr);
ARM GAS  C:\Users\KOZLOV~1\AppData\Local\Temp\cc6vxhng.s 			page 18


 535              		.loc 1 414 0
 536 01e6 281C     		mov	r0, r5
 537 01e8 FFF7FEFF 		bl	i2cPutChar
 412:i2c.c         ****     while(retCode == I2C_CODE_BUSY)
 538              		.loc 1 412 0
 539 01ec 0306     		lsl	r3, r0, #24
 540 01ee 1B16     		asr	r3, r3, #24
 541              		.loc 1 414 0
 542 01f0 041C     		mov	r4, r0
 543              	.LVL36:
 412:i2c.c         ****     while(retCode == I2C_CODE_BUSY)
 544              		.loc 1 412 0
 545 01f2 1A1D     		add	r2, r3, #4
 546 01f4 F7D0     		beq	.L53
 415:i2c.c         ****     }
 416:i2c.c         ****   }
 417:i2c.c         **** 
 418:i2c.c         ****   if(retCode == I2C_CODE_OK)
 419:i2c.c         ****   {
 420:i2c.c         ****     /* wait until address transmitted and transmit data */
 421:i2c.c         ****     for(i = 0; i < len; i++)
 422:i2c.c         ****     {
 423:i2c.c         ****       /* wait until data transmitted */
 424:i2c.c         **** 
 425:i2c.c         ****       while(1)
 426:i2c.c         ****       {
 427:i2c.c         ****         /* get new status */
 428:i2c.c         ****         status = i2cCheckStatus();
 429:i2c.c         **** 
 430:i2c.c         ****         /* 
 431:i2c.c         ****          * SLA+W transmitted, ACK received or
 432:i2c.c         ****          * data byte transmitted, ACK received
 433:i2c.c         ****          */
 434:i2c.c         ****         if( (status == 0x18) || (status == 0x28) )
 435:i2c.c         ****         {
 436:i2c.c         ****           /* Data transmitted and ACK received */
 437:i2c.c         **** 
 438:i2c.c         ****           /* write data */
 439:i2c.c         ****           retCode = i2cPutChar(*pData);
 440:i2c.c         ****           while(retCode == I2C_CODE_BUSY)
 441:i2c.c         ****           {
 442:i2c.c         ****             retCode = i2cPutChar(*pData);
 443:i2c.c         ****           }
 444:i2c.c         ****           pData++;
 445:i2c.c         **** 
 446:i2c.c         ****           break;
 447:i2c.c         ****         }
 448:i2c.c         **** 
 449:i2c.c         ****         /* no relevant status information */
 450:i2c.c         ****         else if( status != 0xf8 )
 451:i2c.c         ****         {
 452:i2c.c         ****           /* error */
 453:i2c.c         ****           i = len;
 547              		.loc 1 453 0
 548 01f6 3A06     		lsl	r2, r7, #24
 549 01f8 120E     		lsr	r2, r2, #24
 418:i2c.c         ****   if(retCode == I2C_CODE_OK)
ARM GAS  C:\Users\KOZLOV~1\AppData\Local\Temp\cc6vxhng.s 			page 19


 550              		.loc 1 418 0
 551 01fa 0025     		mov	r5, #0
 552              		.loc 1 453 0
 553 01fc 0092     		str	r2, [sp]
 418:i2c.c         ****   if(retCode == I2C_CODE_OK)
 554              		.loc 1 418 0
 555 01fe 012B     		cmp	r3, #1
 556 0200 16D0     		beq	.L69
 557 0202 18E0     		b	.L65
 558              	.LVL37:
 559              	.L66:
 428:i2c.c         ****         status = i2cCheckStatus();
 560              		.loc 1 428 0
 561 0204 FFF7FEFF 		bl	i2cCheckStatus
 562              	.LVL38:
 434:i2c.c         ****         if( (status == 0x18) || (status == 0x28) )
 563              		.loc 1 434 0
 564 0208 2828     		cmp	r0, #40
 565 020a 01D0     		beq	.L58
 566 020c 1828     		cmp	r0, #24
 567 020e 08D1     		bne	.L55
 568              	.LVL39:
 569              	.L58:
 442:i2c.c         ****             retCode = i2cPutChar(*pData);
 570              		.loc 1 442 0
 571 0210 3078     		ldrb	r0, [r6]
 572 0212 FFF7FEFF 		bl	i2cPutChar
 573              	.LVL40:
 440:i2c.c         ****           while(retCode == I2C_CODE_BUSY)
 574              		.loc 1 440 0
 575 0216 0306     		lsl	r3, r0, #24
 576 0218 1B16     		asr	r3, r3, #24
 577 021a 0433     		add	r3, r3, #4
 578 021c F8D0     		beq	.L58
 444:i2c.c         ****           pData++;
 579              		.loc 1 444 0
 580 021e 0136     		add	r6, r6, #1
 581              	.LVL41:
 446:i2c.c         ****           break;
 582              		.loc 1 446 0
 583 0220 03E0     		b	.L59
 584              	.LVL42:
 585              	.L55:
 450:i2c.c         ****         else if( status != 0xf8 )
 586              		.loc 1 450 0
 587 0222 F828     		cmp	r0, #248
 588 0224 EED0     		beq	.L66
 589              		.loc 1 453 0
 590 0226 009D     		ldr	r5, [sp]
 591              	.LVL43:
 454:i2c.c         ****           retCode = I2C_CODE_ERROR;
 592              		.loc 1 454 0
 593 0228 FF20     		mov	r0, #255
 594              	.LVL44:
 595              	.L59:
 421:i2c.c         ****     for(i = 0; i < len; i++)
 596              		.loc 1 421 0
ARM GAS  C:\Users\KOZLOV~1\AppData\Local\Temp\cc6vxhng.s 			page 20


 597 022a 0135     		add	r5, r5, #1
 598              	.LVL45:
 599 022c 2D06     		lsl	r5, r5, #24
 600              	.LVL46:
 601 022e 2D0E     		lsr	r5, r5, #24
 602              	.LVL47:
 603              	.L69:
 421:i2c.c         ****     for(i = 0; i < len; i++)
 604              		.loc 1 421 0 is_stmt 0 discriminator 1
 605 0230 BD42     		cmp	r5, r7
 606 0232 E7D3     		bcc	.L66
 421:i2c.c         ****     for(i = 0; i < len; i++)
 607              		.loc 1 421 0
 608 0234 041C     		mov	r4, r0
 609              	.LVL48:
 610              	.L65:
 455:i2c.c         ****           break;
 456:i2c.c         ****         }
 457:i2c.c         ****       }
 458:i2c.c         ****     }
 459:i2c.c         ****   }
 460:i2c.c         **** 
 461:i2c.c         ****   /* wait until data transmitted */
 462:i2c.c         ****   while(1)
 463:i2c.c         ****   {
 464:i2c.c         ****     /* get new status */
 465:i2c.c         ****     status = i2cCheckStatus();
 611              		.loc 1 465 0 is_stmt 1
 612 0236 FFF7FEFF 		bl	i2cCheckStatus
 613              	.LVL49:
 466:i2c.c         **** 
 467:i2c.c         ****     /* 
 468:i2c.c         ****      * SLA+W transmitted, ACK received or
 469:i2c.c         ****      * data byte transmitted, ACK received
 470:i2c.c         ****      */
 471:i2c.c         ****     if( (status == 0x18) || (status == 0x28) )
 614              		.loc 1 471 0
 615 023a 2828     		cmp	r0, #40
 616 023c 04D0     		beq	.L61
 617 023e 1828     		cmp	r0, #24
 618 0240 02D0     		beq	.L61
 472:i2c.c         ****     {
 473:i2c.c         ****       /* data transmitted and ACK received */
 474:i2c.c         ****       break;
 475:i2c.c         ****     }
 476:i2c.c         **** 
 477:i2c.c         ****     /* no relevant status information */
 478:i2c.c         ****     else if(status != 0xf8 )
 619              		.loc 1 478 0
 620 0242 F828     		cmp	r0, #248
 621 0244 F7D0     		beq	.L65
 479:i2c.c         ****     {
 480:i2c.c         ****       /* error */
 481:i2c.c         ****       i = len;
 482:i2c.c         ****       retCode = I2C_CODE_ERROR;
 622              		.loc 1 482 0
 623 0246 FF24     		mov	r4, #255
ARM GAS  C:\Users\KOZLOV~1\AppData\Local\Temp\cc6vxhng.s 			page 21


 624              	.LVL50:
 625              	.L61:
 483:i2c.c         ****       break;
 484:i2c.c         ****     }
 485:i2c.c         ****   }
 486:i2c.c         **** 
 487:i2c.c         ****   /* generate Stop condition */
 488:i2c.c         ****   i2cStop();
 489:i2c.c         **** 
 490:i2c.c         ****   return retCode;
 626              		.loc 1 490 0
 627 0248 2406     		lsl	r4, r4, #24
 628              	.LVL51:
 488:i2c.c         ****   i2cStop();
 629              		.loc 1 488 0
 630 024a FFF7FEFF 		bl	i2cStop
 631              	.LVL52:
 491:i2c.c         **** }
 632              		.loc 1 491 0
 633              		@ sp needed for prologue
 490:i2c.c         ****   return retCode;
 634              		.loc 1 490 0
 635 024e 2016     		asr	r0, r4, #24
 636              	.LVL53:
 637              		.loc 1 491 0
 638 0250 F2BC     		pop	{r1, r4, r5, r6, r7}
 639 0252 02BC     		pop	{r1}
 640 0254 0847     		bx	r1
 641              		.cfi_endproc
 642              	.LFE9:
 643              		.size	i2cWrite, .-i2cWrite
 644              		.align	1
 645              		.global	i2cWaitTransmit
 646              		.code	16
 647              		.thumb_func
 648              		.type	i2cWaitTransmit, %function
 649              	i2cWaitTransmit:
 650              	.LFB10:
 492:i2c.c         **** 
 493:i2c.c         **** tS8
 494:i2c.c         **** i2cWaitTransmit(void)
 495:i2c.c         **** {
 651              		.loc 1 495 0
 652              		.cfi_startproc
 653 0256 00B5     		push	{lr}
 654              	.LCFI6:
 655              		.cfi_def_cfa_offset 4
 656              		.cfi_offset 14, -4
 657              	.L72:
 496:i2c.c         ****   tU8 status = 0;
 497:i2c.c         **** 
 498:i2c.c         ****   /* wait until data transmitted */
 499:i2c.c         ****   while(1)
 500:i2c.c         ****   {
 501:i2c.c         ****     /* get new status */
 502:i2c.c         ****     status = i2cCheckStatus();
 658              		.loc 1 502 0
ARM GAS  C:\Users\KOZLOV~1\AppData\Local\Temp\cc6vxhng.s 			page 22


 659 0258 FFF7FEFF 		bl	i2cCheckStatus
 660              	.LVL54:
 503:i2c.c         **** 
 504:i2c.c         ****     /* 
 505:i2c.c         ****      * SLA+W transmitted, ACK received or
 506:i2c.c         ****      * data byte transmitted, ACK received
 507:i2c.c         ****      */
 508:i2c.c         ****     if( (status == 0x18) || (status == 0x28) )
 661              		.loc 1 508 0
 662 025c 2828     		cmp	r0, #40
 663 025e 05D0     		beq	.L73
 664 0260 1828     		cmp	r0, #24
 665 0262 03D0     		beq	.L73
 509:i2c.c         ****     {
 510:i2c.c         ****       /* data transmitted and ACK received */
 511:i2c.c         ****       return I2C_CODE_OK;
 512:i2c.c         ****     }
 513:i2c.c         **** 
 514:i2c.c         ****     /* no relevant status information */
 515:i2c.c         ****     else if(status != 0xf8 )
 666              		.loc 1 515 0
 667 0264 F828     		cmp	r0, #248
 668 0266 F7D0     		beq	.L72
 516:i2c.c         ****     {
 517:i2c.c         ****       /* error */
 518:i2c.c         **** 
 519:i2c.c         ****       return I2C_CODE_ERROR;
 669              		.loc 1 519 0
 670 0268 FF20     		mov	r0, #255
 671              	.LVL55:
 672 026a 00E0     		b	.L71
 673              	.LVL56:
 674              	.L73:
 511:i2c.c         ****       return I2C_CODE_OK;
 675              		.loc 1 511 0
 676 026c 0120     		mov	r0, #1
 677              	.LVL57:
 678              	.L71:
 515:i2c.c         ****     else if(status != 0xf8 )
 679              		.loc 1 515 0
 680 026e 0006     		lsl	r0, r0, #24
 681 0270 0016     		asr	r0, r0, #24
 520:i2c.c         ****     }
 521:i2c.c         ****   }
 522:i2c.c         **** }
 682              		.loc 1 522 0
 683              		@ sp needed for prologue
 684 0272 02BC     		pop	{r1}
 685 0274 0847     		bx	r1
 686              		.cfi_endproc
 687              	.LFE10:
 688              		.size	i2cWaitTransmit, .-i2cWaitTransmit
 689              		.align	1
 690              		.global	i2cWriteWithWait
 691              		.code	16
 692              		.thumb_func
 693              		.type	i2cWriteWithWait, %function
ARM GAS  C:\Users\KOZLOV~1\AppData\Local\Temp\cc6vxhng.s 			page 23


 694              	i2cWriteWithWait:
 695              	.LFB11:
 523:i2c.c         **** 
 524:i2c.c         **** tS8
 525:i2c.c         **** i2cWriteWithWait(tU8 data)
 526:i2c.c         **** {
 696              		.loc 1 526 0
 697              		.cfi_startproc
 698 0276 10B5     		push	{r4, lr}
 699              	.LCFI7:
 700              		.cfi_def_cfa_offset 8
 701              		.cfi_offset 4, -8
 702              		.cfi_offset 14, -4
 703              	.LVL58:
 704 0278 0406     		lsl	r4, r0, #24
 705 027a 240E     		lsr	r4, r4, #24
 706              	.LVL59:
 707              	.L77:
 527:i2c.c         ****   tS8 retCode = 0;
 528:i2c.c         ****   
 529:i2c.c         ****   retCode = i2cPutChar(data);
 530:i2c.c         ****   while(retCode == I2C_CODE_BUSY)
 531:i2c.c         ****   {
 532:i2c.c         ****     retCode = i2cPutChar(data);
 708              		.loc 1 532 0
 709 027c 201C     		mov	r0, r4
 710 027e FFF7FEFF 		bl	i2cPutChar
 711              	.LVL60:
 530:i2c.c         ****   while(retCode == I2C_CODE_BUSY)
 712              		.loc 1 530 0
 713 0282 0306     		lsl	r3, r0, #24
 714 0284 1B16     		asr	r3, r3, #24
 715 0286 1A1D     		add	r2, r3, #4
 716 0288 F8D0     		beq	.L77
 533:i2c.c         ****   }
 534:i2c.c         **** 
 535:i2c.c         ****   if(retCode == I2C_CODE_OK)
 717              		.loc 1 535 0
 718 028a 012B     		cmp	r3, #1
 719 028c 01D1     		bne	.L78
 536:i2c.c         ****     retCode = i2cWaitTransmit();
 720              		.loc 1 536 0
 721 028e FFF7FEFF 		bl	i2cWaitTransmit
 722              	.LVL61:
 723              	.L78:
 537:i2c.c         **** 
 538:i2c.c         ****   return retCode;
 724              		.loc 1 538 0
 725 0292 0006     		lsl	r0, r0, #24
 726              	.LVL62:
 727 0294 0016     		asr	r0, r0, #24
 539:i2c.c         **** }
 728              		.loc 1 539 0
 729              		@ sp needed for prologue
 730 0296 10BC     		pop	{r4}
 731 0298 02BC     		pop	{r1}
 732 029a 0847     		bx	r1
ARM GAS  C:\Users\KOZLOV~1\AppData\Local\Temp\cc6vxhng.s 			page 24


 733              		.cfi_endproc
 734              	.LFE11:
 735              		.size	i2cWriteWithWait, .-i2cWriteWithWait
 736              		.align	1
 737              		.global	i2cMyWrite
 738              		.code	16
 739              		.thumb_func
 740              		.type	i2cMyWrite, %function
 741              	i2cMyWrite:
 742              	.LFB12:
 540:i2c.c         **** 
 541:i2c.c         **** tS8
 542:i2c.c         **** i2cMyWrite(tU8  addr,
 543:i2c.c         ****            tU8* pData,
 544:i2c.c         ****            tU16 len)
 545:i2c.c         **** {
 743              		.loc 1 545 0
 744              		.cfi_startproc
 745 029c F0B5     		push	{r4, r5, r6, r7, lr}
 746              	.LCFI8:
 747              		.cfi_def_cfa_offset 20
 748              		.cfi_offset 4, -20
 749              		.cfi_offset 5, -16
 750              		.cfi_offset 6, -12
 751              		.cfi_offset 7, -8
 752              		.cfi_offset 14, -4
 753              	.LVL63:
 754              		.loc 1 545 0
 755 029e 0506     		lsl	r5, r0, #24
 756 02a0 1604     		lsl	r6, r2, #16
 757 02a2 0F1C     		mov	r7, r1
 546:i2c.c         ****   tS8 retCode = 0;
 547:i2c.c         ****   tU8 i       = 0;
 548:i2c.c         **** 
 549:i2c.c         ****   do
 550:i2c.c         ****   {
 551:i2c.c         ****     /* generate Start condition */
 552:i2c.c         ****     retCode = i2cStart();
 758              		.loc 1 552 0
 759 02a4 FFF7FEFF 		bl	i2cStart
 760              	.LVL64:
 545:i2c.c         **** {
 761              		.loc 1 545 0
 762 02a8 2D0E     		lsr	r5, r5, #24
 763 02aa 360C     		lsr	r6, r6, #16
 764              		.loc 1 552 0
 765 02ac 041C     		mov	r4, r0
 766              	.LVL65:
 553:i2c.c         ****     if(retCode != I2C_CODE_OK)
 767              		.loc 1 553 0
 768 02ae 0128     		cmp	r0, #1
 769 02b0 13D1     		bne	.L80
 554:i2c.c         ****       break;
 555:i2c.c         **** 
 556:i2c.c         ****     /* write address */
 557:i2c.c         ****     retCode = i2cWriteWithWait(addr);
 770              		.loc 1 557 0
ARM GAS  C:\Users\KOZLOV~1\AppData\Local\Temp\cc6vxhng.s 			page 25


 771 02b2 281C     		mov	r0, r5
 772              	.LVL66:
 773 02b4 FFF7FEFF 		bl	i2cWriteWithWait
 558:i2c.c         ****     if(retCode != I2C_CODE_OK)
 774              		.loc 1 558 0
 775 02b8 0025     		mov	r5, #0
 557:i2c.c         ****     retCode = i2cWriteWithWait(addr);
 776              		.loc 1 557 0
 777 02ba 041C     		mov	r4, r0
 778              	.LVL67:
 779              		.loc 1 558 0
 780 02bc 0128     		cmp	r0, #1
 781 02be 0CD1     		bne	.L80
 782 02c0 05E0     		b	.L81
 783              	.LVL68:
 784              	.L82:
 559:i2c.c         ****       break;
 560:i2c.c         **** 
 561:i2c.c         ****     for(i = 0; i <len; i++)
 562:i2c.c         ****     {
 563:i2c.c         ****       retCode = i2cWriteWithWait(*pData);
 785              		.loc 1 563 0
 786 02c2 785D     		ldrb	r0, [r7, r5]
 787 02c4 FFF7FEFF 		bl	i2cWriteWithWait
 788              	.LVL69:
 789 02c8 0135     		add	r5, r5, #1
 790              	.LVL70:
 564:i2c.c         ****       if(retCode != I2C_CODE_OK)
 791              		.loc 1 564 0
 792 02ca 0128     		cmp	r0, #1
 793 02cc 04D1     		bne	.L83
 794              	.LVL71:
 795              	.L81:
 561:i2c.c         ****     for(i = 0; i <len; i++)
 796              		.loc 1 561 0 discriminator 1
 797 02ce 2B06     		lsl	r3, r5, #24
 798 02d0 1B0E     		lsr	r3, r3, #24
 799 02d2 B342     		cmp	r3, r6
 800 02d4 F5D3     		bcc	.L82
 801 02d6 00E0     		b	.L80
 802              	.LVL72:
 803              	.L83:
 563:i2c.c         ****       retCode = i2cWriteWithWait(*pData);
 804              		.loc 1 563 0
 805 02d8 041C     		mov	r4, r0
 806              	.LVL73:
 807              	.L80:
 565:i2c.c         ****         break;
 566:i2c.c         **** 
 567:i2c.c         ****       pData++;
 568:i2c.c         ****     }
 569:i2c.c         **** 
 570:i2c.c         ****   } while(0);
 571:i2c.c         **** 
 572:i2c.c         ****   /* generate Stop condition */
 573:i2c.c         ****   i2cStop();
 574:i2c.c         **** 
ARM GAS  C:\Users\KOZLOV~1\AppData\Local\Temp\cc6vxhng.s 			page 26


 575:i2c.c         **** 
 576:i2c.c         ****   return retCode;
 808              		.loc 1 576 0
 809 02da 2406     		lsl	r4, r4, #24
 810              	.LVL74:
 573:i2c.c         ****   i2cStop();
 811              		.loc 1 573 0
 812 02dc FFF7FEFF 		bl	i2cStop
 577:i2c.c         **** }
 813              		.loc 1 577 0
 814              		@ sp needed for prologue
 576:i2c.c         ****   return retCode;
 815              		.loc 1 576 0
 816 02e0 2016     		asr	r0, r4, #24
 817              		.loc 1 577 0
 818 02e2 F0BC     		pop	{r4, r5, r6, r7}
 819 02e4 02BC     		pop	{r1}
 820 02e6 0847     		bx	r1
 821              		.cfi_endproc
 822              	.LFE12:
 823              		.size	i2cMyWrite, .-i2cMyWrite
 824              		.align	1
 825              		.global	i2cRead
 826              		.code	16
 827              		.thumb_func
 828              		.type	i2cRead, %function
 829              	i2cRead:
 830              	.LFB13:
 578:i2c.c         **** 
 579:i2c.c         **** 
 580:i2c.c         **** /******************************************************************************
 581:i2c.c         ****  *
 582:i2c.c         ****  * Description:
 583:i2c.c         ****  *    Read a specified number of bytes from the I2C network.
 584:i2c.c         ****  *
 585:i2c.c         ****  *    Note: After this function is run, you may need a bus free time before a 
 586:i2c.c         ****  *          new data transfer can be initiated.
 587:i2c.c         ****  *
 588:i2c.c         ****  * Params:
 589:i2c.c         ****  *    [in] addr - address
 590:i2c.c         ****  *    [in] pBuf - receive buffer
 591:i2c.c         ****  *    [in] len  - number of bytes to receive
 592:i2c.c         ****  *
 593:i2c.c         ****  * Returns:
 594:i2c.c         ****  *    I2C_CODE_OK or I2C status code
 595:i2c.c         ****  *
 596:i2c.c         ****  *****************************************************************************/
 597:i2c.c         **** tS8
 598:i2c.c         **** i2cRead(tU8  addr,
 599:i2c.c         ****         tU8* pBuf,
 600:i2c.c         ****         tU16 len)
 601:i2c.c         **** {
 831              		.loc 1 601 0
 832              		.cfi_startproc
 833 02e8 F1B5     		push	{r0, r4, r5, r6, r7, lr}
 834              	.LCFI9:
 835              		.cfi_def_cfa_offset 24
ARM GAS  C:\Users\KOZLOV~1\AppData\Local\Temp\cc6vxhng.s 			page 27


 836              		.cfi_offset 0, -24
 837              		.cfi_offset 4, -20
 838              		.cfi_offset 5, -16
 839              		.cfi_offset 6, -12
 840              		.cfi_offset 7, -8
 841              		.cfi_offset 14, -4
 842              	.LVL75:
 843              		.loc 1 601 0
 844 02ea 0506     		lsl	r5, r0, #24
 845 02ec 1704     		lsl	r7, r2, #16
 846 02ee 0E1C     		mov	r6, r1
 602:i2c.c         ****   tS8 retCode = 0;
 603:i2c.c         ****   tU8 status  = 0;
 604:i2c.c         ****   tU8 i       = 0;
 605:i2c.c         **** 
 606:i2c.c         ****   /* Generate Start condition */
 607:i2c.c         ****   retCode = i2cStart();
 847              		.loc 1 607 0
 848 02f0 FFF7FEFF 		bl	i2cStart
 849              	.LVL76:
 601:i2c.c         **** {
 850              		.loc 1 601 0
 851 02f4 2D0E     		lsr	r5, r5, #24
 852 02f6 3F0C     		lsr	r7, r7, #16
 853              		.loc 1 607 0
 854 02f8 041C     		mov	r4, r0
 855              	.LVL77:
 608:i2c.c         **** 
 609:i2c.c         ****   /* Transmit address */
 610:i2c.c         ****   if(retCode == I2C_CODE_OK )
 856              		.loc 1 610 0
 857 02fa 0128     		cmp	r0, #1
 858 02fc 31D1     		bne	.L85
 859              	.LVL78:
 860              	.L87:
 611:i2c.c         ****   {
 612:i2c.c         ****     /* write SLA+R */
 613:i2c.c         ****     retCode = i2cPutChar(addr);
 614:i2c.c         ****     while(retCode == I2C_CODE_BUSY)
 615:i2c.c         ****     {
 616:i2c.c         ****       retCode = i2cPutChar(addr);
 861              		.loc 1 616 0
 862 02fe 281C     		mov	r0, r5
 863 0300 FFF7FEFF 		bl	i2cPutChar
 614:i2c.c         ****     while(retCode == I2C_CODE_BUSY)
 864              		.loc 1 614 0
 865 0304 0306     		lsl	r3, r0, #24
 866 0306 1B16     		asr	r3, r3, #24
 867              		.loc 1 616 0
 868 0308 041C     		mov	r4, r0
 869              	.LVL79:
 614:i2c.c         ****     while(retCode == I2C_CODE_BUSY)
 870              		.loc 1 614 0
 871 030a 1A1D     		add	r2, r3, #4
 872 030c F7D0     		beq	.L87
 617:i2c.c         ****     }
 618:i2c.c         ****   }
ARM GAS  C:\Users\KOZLOV~1\AppData\Local\Temp\cc6vxhng.s 			page 28


 619:i2c.c         **** 
 620:i2c.c         ****   if(retCode == I2C_CODE_OK )
 873              		.loc 1 620 0
 874 030e 1D1C     		mov	r5, r3
 621:i2c.c         ****   {
 622:i2c.c         ****     /* wait until address transmitted and receive data */
 623:i2c.c         ****     for(i = 1; i <= len; i++ )
 624:i2c.c         ****     {
 625:i2c.c         ****       /* wait until data transmitted */
 626:i2c.c         ****       while(1)
 627:i2c.c         ****       {
 628:i2c.c         ****         /* get new status */
 629:i2c.c         ****         status = i2cCheckStatus();
 630:i2c.c         **** 
 631:i2c.c         ****         /*
 632:i2c.c         ****          * SLA+R transmitted, ACK received or
 633:i2c.c         ****          * SLA+R transmitted, ACK not received
 634:i2c.c         ****          * data byte received in master mode, ACK transmitted
 635:i2c.c         ****          */
 636:i2c.c         ****         if((status == 0x40 ) || (status == 0x48 ) || (status == 0x50 ))
 637:i2c.c         ****         {
 638:i2c.c         ****           /* data received */
 639:i2c.c         **** 
 640:i2c.c         ****           if(i == len)
 641:i2c.c         ****           {
 642:i2c.c         ****             /* Set generate NACK */
 643:i2c.c         ****             retCode = i2cGetChar(I2C_MODE_ACK1, pBuf);
 644:i2c.c         ****           }
 645:i2c.c         ****           else
 646:i2c.c         ****           {
 647:i2c.c         ****             retCode = i2cGetChar(I2C_MODE_ACK0, pBuf);
 648:i2c.c         ****           }
 649:i2c.c         **** 
 650:i2c.c         ****           /* Read data */
 651:i2c.c         ****           retCode = i2cGetChar(I2C_MODE_READ, pBuf);
 652:i2c.c         ****           while(retCode == I2C_CODE_EMPTY)
 653:i2c.c         ****           {
 654:i2c.c         ****             retCode = i2cGetChar(I2C_MODE_READ, pBuf);
 655:i2c.c         ****           }
 656:i2c.c         ****           pBuf++;
 657:i2c.c         **** 
 658:i2c.c         ****           break;
 659:i2c.c         ****         }
 660:i2c.c         **** 
 661:i2c.c         ****         /* no relevant status information */
 662:i2c.c         ****         else if(status != 0xf8 )
 663:i2c.c         ****         {
 664:i2c.c         ****           /* error */
 665:i2c.c         ****           i = len;
 875              		.loc 1 665 0
 876 0310 3B06     		lsl	r3, r7, #24
 877 0312 1B0E     		lsr	r3, r3, #24
 878 0314 0093     		str	r3, [sp]
 620:i2c.c         ****   if(retCode == I2C_CODE_OK )
 879              		.loc 1 620 0
 880 0316 012D     		cmp	r5, #1
 881 0318 21D0     		beq	.L100
ARM GAS  C:\Users\KOZLOV~1\AppData\Local\Temp\cc6vxhng.s 			page 29


 882 031a 22E0     		b	.L85
 883              	.LVL80:
 884              	.L98:
 629:i2c.c         ****         status = i2cCheckStatus();
 885              		.loc 1 629 0
 886 031c FFF7FEFF 		bl	i2cCheckStatus
 887              	.LVL81:
 636:i2c.c         ****         if((status == 0x40 ) || (status == 0x48 ) || (status == 0x50 ))
 888              		.loc 1 636 0
 889 0320 4828     		cmp	r0, #72
 890 0322 03D0     		beq	.L89
 891 0324 4028     		cmp	r0, #64
 892 0326 01D0     		beq	.L89
 636:i2c.c         ****         if((status == 0x40 ) || (status == 0x48 ) || (status == 0x50 ))
 893              		.loc 1 636 0 is_stmt 0 discriminator 1
 894 0328 5028     		cmp	r0, #80
 895 032a 11D1     		bne	.L90
 896              	.L89:
 643:i2c.c         ****             retCode = i2cGetChar(I2C_MODE_ACK1, pBuf);
 897              		.loc 1 643 0 is_stmt 1
 898 032c 0120     		mov	r0, #1
 899              	.LVL82:
 640:i2c.c         ****           if(i == len)
 900              		.loc 1 640 0
 901 032e BD42     		cmp	r5, r7
 902 0330 00D0     		beq	.L101
 647:i2c.c         ****             retCode = i2cGetChar(I2C_MODE_ACK0, pBuf);
 903              		.loc 1 647 0
 904 0332 0020     		mov	r0, #0
 905              	.L101:
 906 0334 311C     		mov	r1, r6
 907 0336 FFF7FEFF 		bl	i2cGetChar
 908              	.LVL83:
 909              	.L94:
 654:i2c.c         ****             retCode = i2cGetChar(I2C_MODE_READ, pBuf);
 910              		.loc 1 654 0
 911 033a 0220     		mov	r0, #2
 912 033c 311C     		mov	r1, r6
 913 033e FFF7FEFF 		bl	i2cGetChar
 652:i2c.c         ****           while(retCode == I2C_CODE_EMPTY)
 914              		.loc 1 652 0
 915 0342 0306     		lsl	r3, r0, #24
 916 0344 1B16     		asr	r3, r3, #24
 654:i2c.c         ****             retCode = i2cGetChar(I2C_MODE_READ, pBuf);
 917              		.loc 1 654 0
 918 0346 041C     		mov	r4, r0
 919              	.LVL84:
 652:i2c.c         ****           while(retCode == I2C_CODE_EMPTY)
 920              		.loc 1 652 0
 921 0348 0333     		add	r3, r3, #3
 922 034a F6D0     		beq	.L94
 656:i2c.c         ****           pBuf++;
 923              		.loc 1 656 0
 924 034c 0136     		add	r6, r6, #1
 925              	.LVL85:
 658:i2c.c         ****           break;
 926              		.loc 1 658 0
ARM GAS  C:\Users\KOZLOV~1\AppData\Local\Temp\cc6vxhng.s 			page 30


 927 034e 03E0     		b	.L95
 928              	.LVL86:
 929              	.L90:
 662:i2c.c         ****         else if(status != 0xf8 )
 930              		.loc 1 662 0
 931 0350 F828     		cmp	r0, #248
 932 0352 E3D0     		beq	.L98
 933              		.loc 1 665 0
 934 0354 009D     		ldr	r5, [sp]
 935              	.LVL87:
 666:i2c.c         ****           retCode = I2C_CODE_ERROR;
 936              		.loc 1 666 0
 937 0356 FF24     		mov	r4, #255
 938              	.LVL88:
 939              	.L95:
 623:i2c.c         ****     for(i = 1; i <= len; i++ )
 940              		.loc 1 623 0
 941 0358 0135     		add	r5, r5, #1
 942              	.LVL89:
 943 035a 2D06     		lsl	r5, r5, #24
 944              	.LVL90:
 945 035c 2D0E     		lsr	r5, r5, #24
 946              	.LVL91:
 947              	.L100:
 623:i2c.c         ****     for(i = 1; i <= len; i++ )
 948              		.loc 1 623 0 is_stmt 0 discriminator 1
 949 035e BD42     		cmp	r5, r7
 950 0360 DCD9     		bls	.L98
 951              	.LVL92:
 952              	.L85:
 667:i2c.c         ****           break;
 668:i2c.c         ****         }
 669:i2c.c         ****       }
 670:i2c.c         ****     }
 671:i2c.c         ****   }
 672:i2c.c         **** 
 673:i2c.c         ****   /*--- Generate Stop condition ---*/
 674:i2c.c         ****   i2cStop();
 675:i2c.c         **** 
 676:i2c.c         ****   return retCode;
 953              		.loc 1 676 0 is_stmt 1
 954 0362 2406     		lsl	r4, r4, #24
 955              	.LVL93:
 674:i2c.c         ****   i2cStop();
 956              		.loc 1 674 0
 957 0364 FFF7FEFF 		bl	i2cStop
 677:i2c.c         **** }
 958              		.loc 1 677 0
 959              		@ sp needed for prologue
 676:i2c.c         ****   return retCode;
 960              		.loc 1 676 0
 961 0368 2016     		asr	r0, r4, #24
 962              	.LVL94:
 963              		.loc 1 677 0
 964 036a F2BC     		pop	{r1, r4, r5, r6, r7}
 965 036c 02BC     		pop	{r1}
 966 036e 0847     		bx	r1
ARM GAS  C:\Users\KOZLOV~1\AppData\Local\Temp\cc6vxhng.s 			page 31


 967              		.cfi_endproc
 968              	.LFE13:
 969              		.size	i2cRead, .-i2cRead
 970              		.bss
 971              		.align	2
 972              		.set	.LANCHOR0,. + 0
 973              		.type	i2cSem, %object
 974              		.size	i2cSem, 28
 975              	i2cSem:
 976 0000 00000000 		.space	28
 976      00000000 
 976      00000000 
 976      00000000 
 976      00000000 
 977              		.text
 978              	.Letext0:
 979              		.file 2 "./startup/../pre_emptive_os/api/../api/general.h"
 980              		.file 3 "./startup/../pre_emptive_os/api/osapi.h"