ARM GAS  C:\Users\KOZLOV~1\AppData\Local\Temp\cc92egIa.s 			page 1


   1              		.code	16
   2              		.file	"key.c"
   3              		.text
   4              	.Ltext0:
   5              		.cfi_sections	.debug_frame
   6              		.align	1
   7              		.global	checkKey
   8              		.code	16
   9              		.thumb_func
  10              		.type	checkKey, %function
  11              	checkKey:
  12              	.LFB0:
  13              		.file 1 "key.c"
   1:key.c         **** /******************************************************************************
   2:key.c         ****  *
   3:key.c         ****  * Copyright:
   4:key.c         ****  *    (C) 2006 Embedded Artists AB
   5:key.c         ****  *
   6:key.c         ****  * File:
   7:key.c         ****  *    key.c
   8:key.c         ****  *
   9:key.c         ****  * Description:
  10:key.c         ****  *    Implements sampling and handling of joystick key.
  11:key.c         ****  *
  12:key.c         ****  *****************************************************************************/
  13:key.c         **** 
  14:key.c         **** /******************************************************************************
  15:key.c         ****  * Includes
  16:key.c         ****  *****************************************************************************/
  17:key.c         **** #include "../pre_emptive_os/api/osapi.h"
  18:key.c         **** #include "../pre_emptive_os/api/general.h"
  19:key.c         **** #include <printf_P.h>
  20:key.c         **** #include "key.h"
  21:key.c         **** #include "hw.h"
  22:key.c         **** 
  23:key.c         **** 
  24:key.c         **** /******************************************************************************
  25:key.c         ****  * Typedefs and defines
  26:key.c         ****  *****************************************************************************/
  27:key.c         **** #define FIRST_REPEAT  4
  28:key.c         **** #define SECOND_REPEAT 3
  29:key.c         **** 
  30:key.c         **** #define KEYPROC_STACK_SIZE 300
  31:key.c         **** 
  32:key.c         **** 
  33:key.c         **** /*****************************************************************************
  34:key.c         ****  * Local variables
  35:key.c         ****  ****************************************************************************/
  36:key.c         **** static tU8 centerReleased = TRUE;
  37:key.c         **** static tU8 keyUpReleased = TRUE;
  38:key.c         **** static tU8 keyDownReleased = TRUE;
  39:key.c         **** static tU8 keyLeftReleased = TRUE;
  40:key.c         **** static tU8 keyRightReleased = TRUE;
  41:key.c         **** static tU8 centerKeyCnt;
  42:key.c         **** static tU8 upKeyCnt;
  43:key.c         **** static tU8 downKeyCnt;
  44:key.c         **** static tU8 leftKeyCnt;
ARM GAS  C:\Users\KOZLOV~1\AppData\Local\Temp\cc92egIa.s 			page 2


  45:key.c         **** static tU8 rightKeyCnt;
  46:key.c         **** 
  47:key.c         **** static volatile tU8 activeKey = KEY_NOTHING;
  48:key.c         **** static volatile tU8 activeKey2 = KEY_NOTHING;
  49:key.c         **** 
  50:key.c         **** static tU8 keyProcStack[KEYPROC_STACK_SIZE];
  51:key.c         **** static tU8 keyProcPid;
  52:key.c         **** 
  53:key.c         **** 
  54:key.c         **** /*****************************************************************************
  55:key.c         ****  *
  56:key.c         ****  * Description:
  57:key.c         ****  *    Function to check if any key press has been detected
  58:key.c         ****  *
  59:key.c         ****  ****************************************************************************/
  60:key.c         **** tU8
  61:key.c         **** checkKey(void)
  62:key.c         **** {
  14              		.loc 1 62 0
  15              		.cfi_startproc
  63:key.c         ****   tU8 retVal = activeKey;
  16              		.loc 1 63 0
  17 0000 024B     		ldr	r3, .L2
  64:key.c         ****   activeKey = KEY_NOTHING;
  18              		.loc 1 64 0
  19 0002 0022     		mov	r2, #0
  63:key.c         ****   tU8 retVal = activeKey;
  20              		.loc 1 63 0
  21 0004 1878     		ldrb	r0, [r3]
  22              	.LVL0:
  23              		.loc 1 64 0
  24 0006 1A70     		strb	r2, [r3]
  65:key.c         ****   return retVal;
  66:key.c         **** }
  25              		.loc 1 66 0
  26              		@ sp needed for prologue
  27 0008 7047     		bx	lr
  28              	.L3:
  29 000a C046     		.align	2
  30              	.L2:
  31 000c 00000000 		.word	.LANCHOR0
  32              		.cfi_endproc
  33              	.LFE0:
  34              		.size	checkKey, .-checkKey
  35              		.align	1
  36              		.global	checkKey2
  37              		.code	16
  38              		.thumb_func
  39              		.type	checkKey2, %function
  40              	checkKey2:
  41              	.LFB1:
  67:key.c         **** 
  68:key.c         **** /*****************************************************************************
  69:key.c         ****  *
  70:key.c         ****  * Description:
  71:key.c         ****  *    Function to check current (instantaneous) key state
  72:key.c         ****  *
ARM GAS  C:\Users\KOZLOV~1\AppData\Local\Temp\cc92egIa.s 			page 3


  73:key.c         ****  ****************************************************************************/
  74:key.c         **** tU8
  75:key.c         **** checkKey2(void)
  76:key.c         **** {
  42              		.loc 1 76 0
  43              		.cfi_startproc
  77:key.c         ****   return activeKey2;
  44              		.loc 1 77 0
  45 0010 014B     		ldr	r3, .L5
  78:key.c         **** }
  46              		.loc 1 78 0
  47              		@ sp needed for prologue
  77:key.c         ****   return activeKey2;
  48              		.loc 1 77 0
  49 0012 5878     		ldrb	r0, [r3, #1]
  50              		.loc 1 78 0
  51 0014 7047     		bx	lr
  52              	.L6:
  53 0016 C046     		.align	2
  54              	.L5:
  55 0018 00000000 		.word	.LANCHOR0
  56              		.cfi_endproc
  57              	.LFE1:
  58              		.size	checkKey2, .-checkKey2
  59              		.align	1
  60              		.global	sampleKey
  61              		.code	16
  62              		.thumb_func
  63              		.type	sampleKey, %function
  64              	sampleKey:
  65              	.LFB2:
  79:key.c         **** 
  80:key.c         **** /*****************************************************************************
  81:key.c         ****  *
  82:key.c         ****  * Description:
  83:key.c         ****  *    Sample key states
  84:key.c         ****  *
  85:key.c         ****  ****************************************************************************/
  86:key.c         **** void
  87:key.c         **** sampleKey(void)
  88:key.c         **** {
  66              		.loc 1 88 0
  67              		.cfi_startproc
  68 001c 30B5     		push	{r4, r5, lr}
  69              	.LCFI0:
  70              		.cfi_def_cfa_offset 12
  71              		.cfi_offset 4, -12
  72              		.cfi_offset 5, -8
  73              		.cfi_offset 14, -4
  74              	.LVL1:
  89:key.c         ****   tBool nothing = TRUE;
  90:key.c         ****   tU8   readKeys;
  91:key.c         ****   
  92:key.c         ****   //get sample
  93:key.c         ****   readKeys = getKeys();
  75              		.loc 1 93 0
  76 001e FFF7FEFF 		bl	getKeys
ARM GAS  C:\Users\KOZLOV~1\AppData\Local\Temp\cc92egIa.s 			page 4


  77              	.LVL2:
  94:key.c         ****   
  95:key.c         **** 
  96:key.c         ****   //check center key
  97:key.c         ****   if (readKeys & KEY_CENTER)
  78              		.loc 1 97 0
  79 0022 1021     		mov	r1, #16
  80 0024 524C     		ldr	r4, .L37
  81 0026 0842     		tst	r0, r1
  82 0028 1AD0     		beq	.L8
  83              	.LVL3:
  98:key.c         ****   {
  99:key.c         ****     nothing = FALSE;
 100:key.c         ****   	if (centerReleased == TRUE)
  84              		.loc 1 100 0
  85 002a 2378     		ldrb	r3, [r4]
  86 002c 514A     		ldr	r2, .L37+4
  87 002e 012B     		cmp	r3, #1
  88 0030 03D1     		bne	.L9
 101:key.c         ****   	{
 102:key.c         ****   		centerReleased = FALSE;
  89              		.loc 1 102 0
  90 0032 0023     		mov	r3, #0
  91 0034 2370     		strb	r3, [r4]
 103:key.c         ****   		centerKeyCnt = 0;
  92              		.loc 1 103 0
  93 0036 9370     		strb	r3, [r2, #2]
  94 0038 0FE0     		b	.L32
  95              	.L9:
 104:key.c         ****   		activeKey = KEY_CENTER;
 105:key.c         ****   		activeKey2 = KEY_CENTER;
 106:key.c         ****   	}
 107:key.c         ****   	else
 108:key.c         ****   	{
 109:key.c         ****   	  centerKeyCnt++;
  96              		.loc 1 109 0
  97 003a 9478     		ldrb	r4, [r2, #2]
  98 003c 0134     		add	r4, r4, #1
  99 003e 2406     		lsl	r4, r4, #24
 100 0040 240E     		lsr	r4, r4, #24
 101 0042 9470     		strb	r4, [r2, #2]
 110:key.c         ****   	  if (centerKeyCnt == FIRST_REPEAT)
 102              		.loc 1 110 0
 103 0044 042C     		cmp	r4, #4
 104 0046 03D1     		bne	.L11
 111:key.c         ****   	  {
 112:key.c         ****   		  activeKey = KEY_CENTER;
 105              		.loc 1 112 0
 106 0048 1170     		strb	r1, [r2]
  99:key.c         ****     nothing = FALSE;
 107              		.loc 1 99 0
 108 004a 0023     		mov	r3, #0
 113:key.c         ****   		  activeKey2 = KEY_CENTER;
 109              		.loc 1 113 0
 110 004c 5170     		strb	r1, [r2, #1]
 111 004e 09E0     		b	.L10
 112              	.L11:
ARM GAS  C:\Users\KOZLOV~1\AppData\Local\Temp\cc92egIa.s 			page 5


  99:key.c         ****     nothing = FALSE;
 113              		.loc 1 99 0
 114 0050 0023     		mov	r3, #0
 114:key.c         ****   	  }
 115:key.c         ****   	  else if (centerKeyCnt >= FIRST_REPEAT + SECOND_REPEAT)
 115              		.loc 1 115 0
 116 0052 062C     		cmp	r4, #6
 117 0054 06D9     		bls	.L10
 116:key.c         ****   	  {
 117:key.c         ****   		  centerKeyCnt = FIRST_REPEAT;
 118              		.loc 1 117 0
 119 0056 0424     		mov	r4, #4
 120 0058 9470     		strb	r4, [r2, #2]
 121              	.L32:
 118:key.c         ****   		  activeKey = KEY_CENTER;
 122              		.loc 1 118 0
 123 005a 1170     		strb	r1, [r2]
 119:key.c         ****   		  activeKey2 = KEY_CENTER;
 124              		.loc 1 119 0
 125 005c 5170     		strb	r1, [r2, #1]
 126 005e 01E0     		b	.L10
 127              	.LVL4:
 128              	.L8:
 120:key.c         ****   	  }
 121:key.c         ****   	}
 122:key.c         ****   }
 123:key.c         ****   else
 124:key.c         ****   	centerReleased = TRUE;
 129              		.loc 1 124 0
 130 0060 0123     		mov	r3, #1
 131 0062 2370     		strb	r3, [r4]
 132              	.LVL5:
 133              	.L10:
 125:key.c         **** 
 126:key.c         ****   //check up key
 127:key.c         ****   if (readKeys & KEY_UP)
 134              		.loc 1 127 0
 135 0064 0121     		mov	r1, #1
 136 0066 424C     		ldr	r4, .L37
 137 0068 0842     		tst	r0, r1
 138 006a 1CD0     		beq	.L12
 139              	.LVL6:
 128:key.c         ****   {
 129:key.c         ****     nothing = FALSE;
 130:key.c         ****   	if (keyUpReleased == TRUE)
 140              		.loc 1 130 0
 141 006c 6578     		ldrb	r5, [r4, #1]
 142 006e 414A     		ldr	r2, .L37+4
 143 0070 8D42     		cmp	r5, r1
 144 0072 05D1     		bne	.L13
 131:key.c         ****   	{
 132:key.c         ****   		keyUpReleased = FALSE;
 145              		.loc 1 132 0
 146 0074 0023     		mov	r3, #0
 133:key.c         ****   		upKeyCnt = 0;
 134:key.c         ****   		activeKey = KEY_UP;
 147              		.loc 1 134 0
ARM GAS  C:\Users\KOZLOV~1\AppData\Local\Temp\cc92egIa.s 			page 6


 148 0076 1570     		strb	r5, [r2]
 132:key.c         ****   		keyUpReleased = FALSE;
 149              		.loc 1 132 0
 150 0078 6370     		strb	r3, [r4, #1]
 133:key.c         ****   		upKeyCnt = 0;
 151              		.loc 1 133 0
 152 007a D370     		strb	r3, [r2, #3]
 135:key.c         ****   		activeKey2 = KEY_UP;
 153              		.loc 1 135 0
 154 007c 5570     		strb	r5, [r2, #1]
 155 007e 13E0     		b	.L14
 156              	.L13:
 136:key.c         ****   	}
 137:key.c         ****   	else
 138:key.c         ****   	{
 139:key.c         ****   	  upKeyCnt++;
 157              		.loc 1 139 0
 158 0080 D478     		ldrb	r4, [r2, #3]
 159 0082 0134     		add	r4, r4, #1
 160 0084 2406     		lsl	r4, r4, #24
 161 0086 240E     		lsr	r4, r4, #24
 162 0088 D470     		strb	r4, [r2, #3]
 140:key.c         ****   	  if (upKeyCnt == FIRST_REPEAT)
 163              		.loc 1 140 0
 164 008a 042C     		cmp	r4, #4
 165 008c 03D1     		bne	.L15
 141:key.c         ****   	  {
 142:key.c         ****   		  activeKey = KEY_UP;
 166              		.loc 1 142 0
 167 008e 1170     		strb	r1, [r2]
 129:key.c         ****     nothing = FALSE;
 168              		.loc 1 129 0
 169 0090 0023     		mov	r3, #0
 143:key.c         ****   		  activeKey2 = KEY_UP;
 170              		.loc 1 143 0
 171 0092 5170     		strb	r1, [r2, #1]
 172 0094 08E0     		b	.L14
 173              	.L15:
 129:key.c         ****     nothing = FALSE;
 174              		.loc 1 129 0
 175 0096 0023     		mov	r3, #0
 144:key.c         ****   	  }
 145:key.c         ****   	  else if (upKeyCnt >= FIRST_REPEAT + SECOND_REPEAT)
 176              		.loc 1 145 0
 177 0098 062C     		cmp	r4, #6
 178 009a 05D9     		bls	.L14
 146:key.c         ****   	  {
 147:key.c         ****   		  upKeyCnt = FIRST_REPEAT;
 179              		.loc 1 147 0
 180 009c 0424     		mov	r4, #4
 148:key.c         ****   		  activeKey = KEY_UP;
 181              		.loc 1 148 0
 182 009e 1170     		strb	r1, [r2]
 147:key.c         ****   		  upKeyCnt = FIRST_REPEAT;
 183              		.loc 1 147 0
 184 00a0 D470     		strb	r4, [r2, #3]
 149:key.c         ****   		  activeKey2 = KEY_UP;
ARM GAS  C:\Users\KOZLOV~1\AppData\Local\Temp\cc92egIa.s 			page 7


 185              		.loc 1 149 0
 186 00a2 5170     		strb	r1, [r2, #1]
 187 00a4 00E0     		b	.L14
 188              	.LVL7:
 189              	.L12:
 150:key.c         ****   	  }
 151:key.c         ****   	}
 152:key.c         ****   }
 153:key.c         ****   else
 154:key.c         ****   	keyUpReleased = TRUE;
 190              		.loc 1 154 0
 191 00a6 6170     		strb	r1, [r4, #1]
 192              	.LVL8:
 193              	.L14:
 155:key.c         **** 
 156:key.c         ****   //check down key
 157:key.c         ****   if (readKeys & KEY_DOWN)
 194              		.loc 1 157 0
 195 00a8 0424     		mov	r4, #4
 196 00aa 3149     		ldr	r1, .L37
 197 00ac 2042     		tst	r0, r4
 198 00ae 19D0     		beq	.L16
 199              	.LVL9:
 158:key.c         ****   {
 159:key.c         ****     nothing = FALSE;
 160:key.c         ****   	if (keyDownReleased == TRUE)
 200              		.loc 1 160 0
 201 00b0 8B78     		ldrb	r3, [r1, #2]
 202 00b2 304A     		ldr	r2, .L37+4
 203 00b4 012B     		cmp	r3, #1
 204 00b6 03D1     		bne	.L17
 161:key.c         ****   	{
 162:key.c         ****   		keyDownReleased = FALSE;
 205              		.loc 1 162 0
 206 00b8 0023     		mov	r3, #0
 207 00ba 8B70     		strb	r3, [r1, #2]
 163:key.c         ****   		downKeyCnt = 0;
 208              		.loc 1 163 0
 209 00bc 1371     		strb	r3, [r2, #4]
 210 00be 0EE0     		b	.L33
 211              	.L17:
 164:key.c         ****   		activeKey = KEY_DOWN;
 165:key.c         ****   		activeKey2 = KEY_DOWN;
 166:key.c         ****   	}
 167:key.c         ****   	else
 168:key.c         ****   	{
 169:key.c         ****   	  downKeyCnt++;
 212              		.loc 1 169 0
 213 00c0 1179     		ldrb	r1, [r2, #4]
 214 00c2 0131     		add	r1, r1, #1
 215 00c4 0906     		lsl	r1, r1, #24
 216 00c6 090E     		lsr	r1, r1, #24
 217 00c8 1171     		strb	r1, [r2, #4]
 170:key.c         ****   	  if (downKeyCnt == FIRST_REPEAT)
 218              		.loc 1 170 0
 219 00ca 0429     		cmp	r1, #4
 220 00cc 03D1     		bne	.L19
ARM GAS  C:\Users\KOZLOV~1\AppData\Local\Temp\cc92egIa.s 			page 8


 171:key.c         ****   	  {
 172:key.c         ****   		  activeKey = KEY_DOWN;
 221              		.loc 1 172 0
 222 00ce 1170     		strb	r1, [r2]
 159:key.c         ****     nothing = FALSE;
 223              		.loc 1 159 0
 224 00d0 0023     		mov	r3, #0
 173:key.c         ****   		  activeKey2 = KEY_DOWN;
 225              		.loc 1 173 0
 226 00d2 5170     		strb	r1, [r2, #1]
 227 00d4 08E0     		b	.L18
 228              	.L19:
 159:key.c         ****     nothing = FALSE;
 229              		.loc 1 159 0
 230 00d6 0023     		mov	r3, #0
 174:key.c         ****   	  }
 175:key.c         ****   	  else if (downKeyCnt >= FIRST_REPEAT + SECOND_REPEAT)
 231              		.loc 1 175 0
 232 00d8 0629     		cmp	r1, #6
 233 00da 05D9     		bls	.L18
 176:key.c         ****   	  {
 177:key.c         ****   		  downKeyCnt = FIRST_REPEAT;
 234              		.loc 1 177 0
 235 00dc 1471     		strb	r4, [r2, #4]
 236              	.L33:
 178:key.c         ****   		  activeKey = KEY_DOWN;
 237              		.loc 1 178 0
 238 00de 1470     		strb	r4, [r2]
 179:key.c         ****   		  activeKey2 = KEY_DOWN;
 239              		.loc 1 179 0
 240 00e0 5470     		strb	r4, [r2, #1]
 241 00e2 01E0     		b	.L18
 242              	.LVL10:
 243              	.L16:
 180:key.c         ****   	  }
 181:key.c         ****   	}
 182:key.c         ****   }
 183:key.c         ****   else
 184:key.c         ****   	keyDownReleased = TRUE;
 244              		.loc 1 184 0
 245 00e4 0122     		mov	r2, #1
 246 00e6 8A70     		strb	r2, [r1, #2]
 247              	.LVL11:
 248              	.L18:
 185:key.c         **** 
 186:key.c         ****   //check left key
 187:key.c         ****   if (readKeys & KEY_LEFT)
 249              		.loc 1 187 0
 250 00e8 0821     		mov	r1, #8
 251 00ea 214C     		ldr	r4, .L37
 252 00ec 0842     		tst	r0, r1
 253 00ee 1AD0     		beq	.L20
 254              	.LVL12:
 188:key.c         ****   {
 189:key.c         ****     nothing = FALSE;
 190:key.c         ****   	if (keyLeftReleased == TRUE)
 255              		.loc 1 190 0
ARM GAS  C:\Users\KOZLOV~1\AppData\Local\Temp\cc92egIa.s 			page 9


 256 00f0 E378     		ldrb	r3, [r4, #3]
 257 00f2 204A     		ldr	r2, .L37+4
 258 00f4 012B     		cmp	r3, #1
 259 00f6 03D1     		bne	.L21
 191:key.c         ****   	{
 192:key.c         ****   		keyLeftReleased = FALSE;
 260              		.loc 1 192 0
 261 00f8 0023     		mov	r3, #0
 262 00fa E370     		strb	r3, [r4, #3]
 193:key.c         ****   		leftKeyCnt = 0;
 263              		.loc 1 193 0
 264 00fc 5371     		strb	r3, [r2, #5]
 265 00fe 0FE0     		b	.L34
 266              	.L21:
 194:key.c         ****   		activeKey = KEY_LEFT;
 195:key.c         ****   		activeKey2 = KEY_LEFT;
 196:key.c         ****   	}
 197:key.c         ****   	else
 198:key.c         ****   	{
 199:key.c         ****   	  leftKeyCnt++;
 267              		.loc 1 199 0
 268 0100 5479     		ldrb	r4, [r2, #5]
 269 0102 0134     		add	r4, r4, #1
 270 0104 2406     		lsl	r4, r4, #24
 271 0106 240E     		lsr	r4, r4, #24
 272 0108 5471     		strb	r4, [r2, #5]
 200:key.c         ****   	  if (leftKeyCnt == FIRST_REPEAT)
 273              		.loc 1 200 0
 274 010a 042C     		cmp	r4, #4
 275 010c 03D1     		bne	.L23
 201:key.c         ****   	  {
 202:key.c         ****   		  activeKey = KEY_LEFT;
 276              		.loc 1 202 0
 277 010e 1170     		strb	r1, [r2]
 189:key.c         ****     nothing = FALSE;
 278              		.loc 1 189 0
 279 0110 0023     		mov	r3, #0
 203:key.c         ****   		  activeKey2 = KEY_LEFT;
 280              		.loc 1 203 0
 281 0112 5170     		strb	r1, [r2, #1]
 282 0114 09E0     		b	.L22
 283              	.L23:
 189:key.c         ****     nothing = FALSE;
 284              		.loc 1 189 0
 285 0116 0023     		mov	r3, #0
 204:key.c         ****   	  }
 205:key.c         ****   	  else if (leftKeyCnt >= FIRST_REPEAT + SECOND_REPEAT)
 286              		.loc 1 205 0
 287 0118 062C     		cmp	r4, #6
 288 011a 06D9     		bls	.L22
 206:key.c         ****   	  {
 207:key.c         ****   		  leftKeyCnt = FIRST_REPEAT;
 289              		.loc 1 207 0
 290 011c 0424     		mov	r4, #4
 291 011e 5471     		strb	r4, [r2, #5]
 292              	.L34:
 208:key.c         ****   		  activeKey = KEY_LEFT;
ARM GAS  C:\Users\KOZLOV~1\AppData\Local\Temp\cc92egIa.s 			page 10


 293              		.loc 1 208 0
 294 0120 1170     		strb	r1, [r2]
 209:key.c         ****   		  activeKey2 = KEY_LEFT;
 295              		.loc 1 209 0
 296 0122 5170     		strb	r1, [r2, #1]
 297 0124 01E0     		b	.L22
 298              	.LVL13:
 299              	.L20:
 210:key.c         ****   	  }
 211:key.c         ****   	}
 212:key.c         ****   }
 213:key.c         ****   else
 214:key.c         ****   	keyLeftReleased = TRUE;
 300              		.loc 1 214 0
 301 0126 0122     		mov	r2, #1
 302 0128 E270     		strb	r2, [r4, #3]
 303              	.LVL14:
 304              	.L22:
 215:key.c         **** 
 216:key.c         ****   //check right key
 217:key.c         ****   if (readKeys & KEY_RIGHT)
 305              		.loc 1 217 0
 306 012a 0222     		mov	r2, #2
 307 012c 1040     		and	r0, r2
 308              	.LVL15:
 309 012e 1049     		ldr	r1, .L37
 310 0130 15D0     		beq	.L24
 311              	.LVL16:
 218:key.c         ****   {
 219:key.c         ****     nothing = FALSE;
 220:key.c         ****   	if (keyRightReleased == TRUE)
 312              		.loc 1 220 0
 313 0132 0879     		ldrb	r0, [r1, #4]
 314 0134 0F4B     		ldr	r3, .L37+4
 315 0136 0128     		cmp	r0, #1
 316 0138 03D1     		bne	.L25
 221:key.c         ****   	{
 222:key.c         ****   		keyRightReleased = FALSE;
 317              		.loc 1 222 0
 318 013a 0020     		mov	r0, #0
 319 013c 0871     		strb	r0, [r1, #4]
 223:key.c         ****   		rightKeyCnt = 0;
 320              		.loc 1 223 0
 321 013e 9871     		strb	r0, [r3, #6]
 322 0140 0AE0     		b	.L36
 323              	.L25:
 224:key.c         ****   		activeKey = KEY_RIGHT;
 225:key.c         ****   		activeKey2 = KEY_RIGHT;
 226:key.c         ****   	}
 227:key.c         ****   	else
 228:key.c         ****   	{
 229:key.c         ****   	  rightKeyCnt++;
 324              		.loc 1 229 0
 325 0142 9979     		ldrb	r1, [r3, #6]
 326 0144 0131     		add	r1, r1, #1
 327 0146 0906     		lsl	r1, r1, #24
 328 0148 090E     		lsr	r1, r1, #24
ARM GAS  C:\Users\KOZLOV~1\AppData\Local\Temp\cc92egIa.s 			page 11


 329 014a 9971     		strb	r1, [r3, #6]
 230:key.c         ****   	  if (rightKeyCnt == FIRST_REPEAT)
 330              		.loc 1 230 0
 331 014c 0429     		cmp	r1, #4
 332 014e 03D0     		beq	.L36
 333              	.L27:
 231:key.c         ****   	  {
 232:key.c         ****   		  activeKey = KEY_RIGHT;
 233:key.c         ****   		  activeKey2 = KEY_RIGHT;
 234:key.c         ****   	  }
 235:key.c         ****   	  else if (rightKeyCnt >= FIRST_REPEAT + SECOND_REPEAT)
 334              		.loc 1 235 0
 335 0150 0629     		cmp	r1, #6
 336 0152 0AD9     		bls	.L7
 236:key.c         ****   	  {
 237:key.c         ****   		  rightKeyCnt = FIRST_REPEAT;
 337              		.loc 1 237 0
 338 0154 0421     		mov	r1, #4
 339 0156 9971     		strb	r1, [r3, #6]
 340              	.L36:
 238:key.c         ****   		  activeKey = KEY_RIGHT;
 341              		.loc 1 238 0
 342 0158 1A70     		strb	r2, [r3]
 239:key.c         ****   		  activeKey2 = KEY_RIGHT;
 343              		.loc 1 239 0
 344 015a 5A70     		strb	r2, [r3, #1]
 345 015c 05E0     		b	.L7
 346              	.LVL17:
 347              	.L24:
 240:key.c         ****   	  }
 241:key.c         ****   	}
 242:key.c         ****   }
 243:key.c         ****   else
 244:key.c         ****   	keyRightReleased = TRUE;
 348              		.loc 1 244 0
 349 015e 0122     		mov	r2, #1
 350 0160 0A71     		strb	r2, [r1, #4]
 245:key.c         ****   
 246:key.c         ****   if (nothing == TRUE)
 351              		.loc 1 246 0
 352 0162 9342     		cmp	r3, r2
 353 0164 01D1     		bne	.L7
 247:key.c         ****     activeKey2 = KEY_NOTHING;
 354              		.loc 1 247 0
 355 0166 034B     		ldr	r3, .L37+4
 356              	.LVL18:
 357 0168 5870     		strb	r0, [r3, #1]
 358              	.L7:
 248:key.c         **** }
 359              		.loc 1 248 0
 360              		@ sp needed for prologue
 361 016a 30BC     		pop	{r4, r5}
 362 016c 01BC     		pop	{r0}
 363 016e 0047     		bx	r0
 364              	.L38:
 365              		.align	2
 366              	.L37:
ARM GAS  C:\Users\KOZLOV~1\AppData\Local\Temp\cc92egIa.s 			page 12


 367 0170 00000000 		.word	.LANCHOR1
 368 0174 00000000 		.word	.LANCHOR0
 369              		.cfi_endproc
 370              	.LFE2:
 371              		.size	sampleKey, .-sampleKey
 372              		.align	1
 373              		.code	16
 374              		.thumb_func
 375              		.type	procKey, %function
 376              	procKey:
 377              	.LFB3:
 249:key.c         **** 
 250:key.c         **** 
 251:key.c         **** /*****************************************************************************
 252:key.c         ****  *
 253:key.c         ****  * Description:
 254:key.c         ****  *    A process entry function 
 255:key.c         ****  *
 256:key.c         ****  * Params:
 257:key.c         ****  *    [in] arg - This parameter is not used in this application. 
 258:key.c         ****  *
 259:key.c         ****  ****************************************************************************/
 260:key.c         **** static void
 261:key.c         **** procKey(void* arg)
 262:key.c         **** {
 378              		.loc 1 262 0
 379              		.cfi_startproc
 380 0178 00B5     		push	{lr}
 381              	.LCFI1:
 382              		.cfi_def_cfa_offset 4
 383              		.cfi_offset 14, -4
 384              	.L40:
 263:key.c         ****   //sample keys each 50 ms, i.e., 20 times per second
 264:key.c         ****   while(1)
 265:key.c         ****   {
 266:key.c         ****     sampleKey();
 385              		.loc 1 266 0 discriminator 1
 386 017a FFF7FEFF 		bl	sampleKey
 267:key.c         ****     osSleep(5);
 387              		.loc 1 267 0 discriminator 1
 388 017e 0520     		mov	r0, #5
 389 0180 FFF7FEFF 		bl	osSleep
 390 0184 F9E7     		b	.L40
 391              		.cfi_endproc
 392              	.LFE3:
 393              		.size	procKey, .-procKey
 394              		.align	1
 395              		.global	initKeyProc
 396              		.code	16
 397              		.thumb_func
 398              		.type	initKeyProc, %function
 399              	initKeyProc:
 400              	.LFB4:
 268:key.c         ****   }
 269:key.c         **** }
 270:key.c         **** 
 271:key.c         **** /*****************************************************************************
ARM GAS  C:\Users\KOZLOV~1\AppData\Local\Temp\cc92egIa.s 			page 13


 272:key.c         ****  *
 273:key.c         ****  * Description:
 274:key.c         ****  *    Creates and starts the key sampling process. 
 275:key.c         ****  *
 276:key.c         ****  ****************************************************************************/
 277:key.c         **** void
 278:key.c         **** initKeyProc(void)
 279:key.c         **** {
 401              		.loc 1 279 0
 402              		.cfi_startproc
 403 0186 3FB5     		push	{r0, r1, r2, r3, r4, r5, lr}
 404              	.LCFI2:
 405              		.cfi_def_cfa_offset 28
 406              		.cfi_offset 0, -28
 407              		.cfi_offset 1, -24
 408              		.cfi_offset 2, -20
 409              		.cfi_offset 3, -16
 410              		.cfi_offset 4, -12
 411              		.cfi_offset 5, -8
 412              		.cfi_offset 14, -4
 280:key.c         ****   tU8 error;
 281:key.c         **** 
 282:key.c         ****   osCreateProcess(procKey, keyProcStack, KEYPROC_STACK_SIZE, &keyProcPid, 3, NULL, &error);
 413              		.loc 1 282 0
 414 0188 0B4C     		ldr	r4, .L42
 415 018a 0323     		mov	r3, #3
 416 018c 0B49     		ldr	r1, .L42+4
 417 018e 3334     		add	r4, r4, #51
 418 0190 0093     		str	r3, [sp]
 419 0192 6D46     		mov	r5, sp
 420 0194 0023     		mov	r3, #0
 421 0196 9622     		mov	r2, #150
 422 0198 0F35     		add	r5, r5, #15
 423 019a 0193     		str	r3, [sp, #4]
 424 019c 5200     		lsl	r2, r2, #1
 425 019e 231C     		mov	r3, r4
 426 01a0 0748     		ldr	r0, .L42+8
 427 01a2 0731     		add	r1, r1, #7
 428 01a4 0295     		str	r5, [sp, #8]
 429 01a6 FFF7FEFF 		bl	osCreateProcess
 283:key.c         ****   osStartProcess(keyProcPid, &error);
 430              		.loc 1 283 0
 431 01aa 291C     		mov	r1, r5
 432 01ac 2078     		ldrb	r0, [r4]
 433 01ae FFF7FEFF 		bl	osStartProcess
 284:key.c         **** }
 434              		.loc 1 284 0
 435              		@ sp needed for prologue
 436 01b2 3FBC     		pop	{r0, r1, r2, r3, r4, r5}
 437 01b4 01BC     		pop	{r0}
 438 01b6 0047     		bx	r0
 439              	.L43:
 440              		.align	2
 441              	.L42:
 442 01b8 00010000 		.word	.LANCHOR2
 443 01bc 00000000 		.word	.LANCHOR0
 444 01c0 00000000 		.word	procKey
ARM GAS  C:\Users\KOZLOV~1\AppData\Local\Temp\cc92egIa.s 			page 14


 445              		.cfi_endproc
 446              	.LFE4:
 447              		.size	initKeyProc, .-initKeyProc
 448              		.data
 449              		.set	.LANCHOR1,. + 0
 450              		.type	centerReleased, %object
 451              		.size	centerReleased, 1
 452              	centerReleased:
 453 0000 01       		.byte	1
 454              		.type	keyUpReleased, %object
 455              		.size	keyUpReleased, 1
 456              	keyUpReleased:
 457 0001 01       		.byte	1
 458              		.type	keyDownReleased, %object
 459              		.size	keyDownReleased, 1
 460              	keyDownReleased:
 461 0002 01       		.byte	1
 462              		.type	keyLeftReleased, %object
 463              		.size	keyLeftReleased, 1
 464              	keyLeftReleased:
 465 0003 01       		.byte	1
 466              		.type	keyRightReleased, %object
 467              		.size	keyRightReleased, 1
 468              	keyRightReleased:
 469 0004 01       		.byte	1
 470              		.bss
 471              		.set	.LANCHOR0,. + 0
 472              		.set	.LANCHOR2,. + 256
 473              		.type	activeKey, %object
 474              		.size	activeKey, 1
 475              	activeKey:
 476 0000 00       		.space	1
 477              		.type	activeKey2, %object
 478              		.size	activeKey2, 1
 479              	activeKey2:
 480 0001 00       		.space	1
 481              		.type	centerKeyCnt, %object
 482              		.size	centerKeyCnt, 1
 483              	centerKeyCnt:
 484 0002 00       		.space	1
 485              		.type	upKeyCnt, %object
 486              		.size	upKeyCnt, 1
 487              	upKeyCnt:
 488 0003 00       		.space	1
 489              		.type	downKeyCnt, %object
 490              		.size	downKeyCnt, 1
 491              	downKeyCnt:
 492 0004 00       		.space	1
 493              		.type	leftKeyCnt, %object
 494              		.size	leftKeyCnt, 1
 495              	leftKeyCnt:
 496 0005 00       		.space	1
 497              		.type	rightKeyCnt, %object
 498              		.size	rightKeyCnt, 1
 499              	rightKeyCnt:
 500 0006 00       		.space	1
 501              		.type	keyProcStack, %object
ARM GAS  C:\Users\KOZLOV~1\AppData\Local\Temp\cc92egIa.s 			page 15


 502              		.size	keyProcStack, 300
 503              	keyProcStack:
 504 0007 00000000 		.space	300
 504      00000000 
 504      00000000 
 504      00000000 
 504      00000000 
 505              		.type	keyProcPid, %object
 506              		.size	keyProcPid, 1
 507              	keyProcPid:
 508 0133 00       		.space	1
 509              		.text
 510              	.Letext0:
 511              		.file 2 "./startup/../pre_emptive_os/api/../api/general.h"