ARM GAS  C:\Users\KOZLOV~1\AppData\Local\Temp\cctyslCN.s 			page 1


   1              		.code	16
   2              		.file	"lcd.c"
   3              		.text
   4              	.Ltext0:
   5              		.cfi_sections	.debug_frame
   6              		.align	1
   7              		.global	lcdColor
   8              		.code	16
   9              		.thumb_func
  10              		.type	lcdColor, %function
  11              	lcdColor:
  12              	.LFB3:
  13              		.file 1 "lcd.c"
   1:lcd.c         **** /******************************************************************************
   2:lcd.c         ****  *
   3:lcd.c         ****  * Copyright:
   4:lcd.c         ****  *    (C) 2006 Embedded Artists AB
   5:lcd.c         ****  *
   6:lcd.c         ****  * File:
   7:lcd.c         ****  *    lcd.c
   8:lcd.c         ****  *
   9:lcd.c         ****  * Description:
  10:lcd.c         ****  *    Implements routines for the LCD.
  11:lcd.c         ****  *
  12:lcd.c         ****  *****************************************************************************/
  13:lcd.c         **** 
  14:lcd.c         **** /******************************************************************************
  15:lcd.c         ****  * Includes
  16:lcd.c         ****  *****************************************************************************/
  17:lcd.c         **** #include "../pre_emptive_os/api/general.h"
  18:lcd.c         **** #include "../pre_emptive_os/api/osapi.h"
  19:lcd.c         **** #include "lcd.h"
  20:lcd.c         **** #include "ascii.h"
  21:lcd.c         **** #include "hw.h"
  22:lcd.c         **** 
  23:lcd.c         **** 
  24:lcd.c         **** /******************************************************************************
  25:lcd.c         ****  * Typedefs and defines
  26:lcd.c         ****  *****************************************************************************/
  27:lcd.c         **** #define LCD_CMD_SWRESET   0x01
  28:lcd.c         **** #define LCD_CMD_BSTRON    0x03
  29:lcd.c         **** #define LCD_CMD_SLEEPIN   0x10
  30:lcd.c         **** #define LCD_CMD_SLEEPOUT  0x11
  31:lcd.c         **** #define LCD_CMD_INVON     0x21
  32:lcd.c         **** #define LCD_CMD_SETCON    0x25
  33:lcd.c         **** #define LCD_CMD_DISPON    0x29
  34:lcd.c         **** #define LCD_CMD_CASET     0x2A
  35:lcd.c         **** #define LCD_CMD_PASET     0x2B
  36:lcd.c         **** #define LCD_CMD_RAMWR     0x2C
  37:lcd.c         **** #define LCD_CMD_RGBSET    0x2D
  38:lcd.c         **** #define LCD_CMD_MADCTL    0x36
  39:lcd.c         **** #define LCD_CMD_COLMOD    0x3A
  40:lcd.c         **** 
  41:lcd.c         **** #define MADCTL_HORIZ      0x48
  42:lcd.c         **** #define MADCTL_VERT       0x68
  43:lcd.c         **** 
  44:lcd.c         **** 
ARM GAS  C:\Users\KOZLOV~1\AppData\Local\Temp\cctyslCN.s 			page 2


  45:lcd.c         **** /*****************************************************************************
  46:lcd.c         ****  * Local variables
  47:lcd.c         ****  ****************************************************************************/
  48:lcd.c         **** static tU8 lcd_x;
  49:lcd.c         **** static tU8 lcd_y;
  50:lcd.c         **** static tU8 bkgColor;
  51:lcd.c         **** static tU8 textColor;
  52:lcd.c         **** static tU8 setcolmark;
  53:lcd.c         **** 
  54:lcd.c         **** /*****************************************************************************
  55:lcd.c         ****  * Local prototypes
  56:lcd.c         ****  ****************************************************************************/
  57:lcd.c         **** static void lcdWindow1(tU8 xp, tU8 yp, tU8 xe, tU8 ye);
  58:lcd.c         **** 
  59:lcd.c         **** 
  60:lcd.c         **** /*****************************************************************************
  61:lcd.c         ****  *
  62:lcd.c         ****  * Description:
  63:lcd.c         ****  *    Initialize the LCD controller and SPI interface
  64:lcd.c         ****  *    (0,0) is top left and (129,129) is bottom right
  65:lcd.c         ****  *    8 bits Color mode uses RRRGGGBB layout
  66:lcd.c         ****  *
  67:lcd.c         ****  ****************************************************************************/
  68:lcd.c         **** void
  69:lcd.c         **** lcdInit(void)
  70:lcd.c         **** {
  71:lcd.c         ****   bkgColor  = 0;
  72:lcd.c         ****   textColor = 0;
  73:lcd.c         ****   
  74:lcd.c         ****   //init SPI interface
  75:lcd.c         ****   initSpiForLcd();
  76:lcd.c         ****   
  77:lcd.c         ****   //select controller
  78:lcd.c         ****   selectLCD(TRUE);
  79:lcd.c         **** 
  80:lcd.c         **** 	lcdWrcmd(LCD_CMD_SWRESET);
  81:lcd.c         **** 
  82:lcd.c         **** 	osSleep(1);
  83:lcd.c         **** 	lcdWrcmd(LCD_CMD_SLEEPOUT);
  84:lcd.c         **** 	lcdWrcmd(LCD_CMD_DISPON);
  85:lcd.c         **** 	lcdWrcmd(LCD_CMD_BSTRON);
  86:lcd.c         **** 	osSleep(1);
  87:lcd.c         **** 		
  88:lcd.c         **** 	lcdWrcmd(LCD_CMD_MADCTL);   //Memory data acces control
  89:lcd.c         **** 	lcdWrdata(MADCTL_HORIZ);    //X Mirror and BGR format
  90:lcd.c         **** 	lcdWrcmd(LCD_CMD_COLMOD);   //Colour mode
  91:lcd.c         **** 	lcdWrdata(0x02);            //256 colour mode select
  92:lcd.c         **** 	lcdWrcmd(LCD_CMD_INVON);    //Non Invert mode
  93:lcd.c         **** 
  94:lcd.c         **** 	lcdWrcmd(LCD_CMD_RGBSET);   //LUT write
  95:lcd.c         ****   lcdWrdata(0);               //Red
  96:lcd.c         ****   lcdWrdata(2);
  97:lcd.c         ****   lcdWrdata(4);
  98:lcd.c         ****   lcdWrdata(6);
  99:lcd.c         ****   lcdWrdata(9);
 100:lcd.c         ****   lcdWrdata(11);
 101:lcd.c         ****   lcdWrdata(13);
ARM GAS  C:\Users\KOZLOV~1\AppData\Local\Temp\cctyslCN.s 			page 3


 102:lcd.c         ****   lcdWrdata(15);
 103:lcd.c         ****   lcdWrdata(0);               //Green
 104:lcd.c         ****   lcdWrdata(2);
 105:lcd.c         ****   lcdWrdata(4);
 106:lcd.c         ****   lcdWrdata(6);
 107:lcd.c         ****   lcdWrdata(9);
 108:lcd.c         ****   lcdWrdata(11);
 109:lcd.c         ****   lcdWrdata(13);
 110:lcd.c         ****   lcdWrdata(15);
 111:lcd.c         ****   lcdWrdata(0);               //Blue
 112:lcd.c         ****   lcdWrdata(6);
 113:lcd.c         **** 	lcdWrdata(10);
 114:lcd.c         **** 	lcdWrdata(15);
 115:lcd.c         **** 
 116:lcd.c         ****   //deselect controller
 117:lcd.c         ****   selectLCD(FALSE);
 118:lcd.c         **** 
 119:lcd.c         **** 	lcdContrast(56);
 120:lcd.c         **** 
 121:lcd.c         **** 	lcdClrscr();
 122:lcd.c         **** }
 123:lcd.c         **** 
 124:lcd.c         **** 
 125:lcd.c         **** /*****************************************************************************
 126:lcd.c         ****  *
 127:lcd.c         ****  * Description:
 128:lcd.c         ****  *    Clear screen (with current background color)
 129:lcd.c         ****  *
 130:lcd.c         ****  ****************************************************************************/
 131:lcd.c         **** void
 132:lcd.c         **** lcdClrscr(void)
 133:lcd.c         **** {
 134:lcd.c         ****   tU32 i;
 135:lcd.c         **** 
 136:lcd.c         **** 	lcd_x = 0;
 137:lcd.c         ****   lcd_y = 0;
 138:lcd.c         **** 
 139:lcd.c         ****   //select controller
 140:lcd.c         ****   selectLCD(TRUE);   
 141:lcd.c         **** 
 142:lcd.c         ****   lcdWindow1(255,255,128,128);
 143:lcd.c         ****   
 144:lcd.c         ****   lcdWrcmd(LCD_CMD_RAMWR);    //write memory
 145:lcd.c         ****   
 146:lcd.c         ****   for(i=0; i<16900; i++)
 147:lcd.c         ****     lcdWrdata(bkgColor);
 148:lcd.c         **** 
 149:lcd.c         ****   //deselect controller
 150:lcd.c         ****   selectLCD(FALSE);
 151:lcd.c         **** }
 152:lcd.c         **** 
 153:lcd.c         **** 
 154:lcd.c         **** /*****************************************************************************
 155:lcd.c         ****  *
 156:lcd.c         ****  * Description:
 157:lcd.c         ****  *    Shut down the LCD controller
 158:lcd.c         ****  *
ARM GAS  C:\Users\KOZLOV~1\AppData\Local\Temp\cctyslCN.s 			page 4


 159:lcd.c         ****  ****************************************************************************/
 160:lcd.c         **** void
 161:lcd.c         **** lcdOff(void)
 162:lcd.c         **** {
 163:lcd.c         ****   lcdClrscr();
 164:lcd.c         **** 
 165:lcd.c         ****   //select controller
 166:lcd.c         ****   selectLCD(TRUE);   
 167:lcd.c         **** 
 168:lcd.c         ****   lcdWrcmd(LCD_CMD_SLEEPIN);
 169:lcd.c         **** 
 170:lcd.c         ****   //deselect controller
 171:lcd.c         ****   selectLCD(FALSE);
 172:lcd.c         **** }
 173:lcd.c         **** 
 174:lcd.c         **** 
 175:lcd.c         **** /*****************************************************************************
 176:lcd.c         ****  *
 177:lcd.c         ****  * Description:
 178:lcd.c         ****  *    Set current foreground and background color
 179:lcd.c         ****  *
 180:lcd.c         ****  ****************************************************************************/
 181:lcd.c         **** void
 182:lcd.c         **** lcdColor(tU8 bkg, tU8 text)
 183:lcd.c         **** {
  14              		.loc 1 183 0
  15              		.cfi_startproc
  16              	.LVL0:
 184:lcd.c         ****   bkgColor  = bkg;
  17              		.loc 1 184 0
  18 0000 014B     		ldr	r3, .L2
 185:lcd.c         ****   textColor = text;
 186:lcd.c         **** }
  19              		.loc 1 186 0
  20              		@ sp needed for prologue
 184:lcd.c         ****   bkgColor  = bkg;
  21              		.loc 1 184 0
  22 0002 1870     		strb	r0, [r3]
 185:lcd.c         ****   textColor = text;
  23              		.loc 1 185 0
  24 0004 5970     		strb	r1, [r3, #1]
  25              		.loc 1 186 0
  26 0006 7047     		bx	lr
  27              	.L3:
  28              		.align	2
  29              	.L2:
  30 0008 00000000 		.word	.LANCHOR0
  31              		.cfi_endproc
  32              	.LFE3:
  33              		.size	lcdColor, .-lcdColor
  34              		.align	1
  35              		.global	lcdWrcmd
  36              		.code	16
  37              		.thumb_func
  38              		.type	lcdWrcmd, %function
  39              	lcdWrcmd:
  40              	.LFB16:
ARM GAS  C:\Users\KOZLOV~1\AppData\Local\Temp\cctyslCN.s 			page 5


 187:lcd.c         **** 
 188:lcd.c         **** 
 189:lcd.c         **** /*****************************************************************************
 190:lcd.c         ****  *
 191:lcd.c         ****  * Description:
 192:lcd.c         ****  *    Set display contrast
 193:lcd.c         ****  *
 194:lcd.c         ****  ****************************************************************************/
 195:lcd.c         **** void
 196:lcd.c         **** lcdContrast(tU8 cont) //vary between 0 - 127
 197:lcd.c         **** {
 198:lcd.c         ****   //select controller
 199:lcd.c         ****   selectLCD(TRUE);
 200:lcd.c         **** 
 201:lcd.c         ****   //set contrast cmd.
 202:lcd.c         ****   lcdWrcmd(LCD_CMD_SETCON);
 203:lcd.c         **** 	lcdWrdata(cont);
 204:lcd.c         **** 
 205:lcd.c         ****   //deselect controller
 206:lcd.c         ****   selectLCD(FALSE);
 207:lcd.c         **** }
 208:lcd.c         **** 
 209:lcd.c         **** /*****************************************************************************
 210:lcd.c         ****  *
 211:lcd.c         ****  * Description:
 212:lcd.c         ****  *    Draw a line with specified color. 
 213:lcd.c         ****  *
 214:lcd.c         ****  ****************************************************************************/
 215:lcd.c         **** void
 216:lcd.c         **** lcdLine(tU8 x, tU8 y, tU8 len, tU8 color, tBool vertical)
 217:lcd.c         **** {
 218:lcd.c         ****   tU32 i;
 219:lcd.c         **** 
 220:lcd.c         ****   //select controller
 221:lcd.c         ****   selectLCD(TRUE);   
 222:lcd.c         **** 
 223:lcd.c         ****   if (vertical)
 224:lcd.c         ****   {
 225:lcd.c         ****     lcdWindow1(x,y,x,y+len-1);
 226:lcd.c         ****     
 227:lcd.c         ****     lcdWrcmd(LCD_CMD_RAMWR);    //write memory
 228:lcd.c         ****     
 229:lcd.c         ****     for(i=0; i<len; i++)
 230:lcd.c         ****       lcdWrdata(color);
 231:lcd.c         ****   }
 232:lcd.c         ****   else
 233:lcd.c         ****   {
 234:lcd.c         ****     lcdWindow1(x,y,x+len-1,y);
 235:lcd.c         ****     
 236:lcd.c         ****     lcdWrcmd(LCD_CMD_RAMWR);    //write memory
 237:lcd.c         ****     
 238:lcd.c         ****     for(i=0; i<len; i++)
 239:lcd.c         ****       lcdWrdata(color);
 240:lcd.c         ****   }
 241:lcd.c         **** 
 242:lcd.c         ****   //deselect controller
 243:lcd.c         ****   selectLCD(FALSE);
ARM GAS  C:\Users\KOZLOV~1\AppData\Local\Temp\cctyslCN.s 			page 6


 244:lcd.c         **** }
 245:lcd.c         **** 
 246:lcd.c         **** /*****************************************************************************
 247:lcd.c         ****  *
 248:lcd.c         ****  * Description:
 249:lcd.c         ****  *    Draw a rectangular area with specified color.
 250:lcd.c         ****  *
 251:lcd.c         ****  ****************************************************************************/
 252:lcd.c         **** void
 253:lcd.c         **** lcdRect(tU8 x, tU8 y, tU8 xLen, tU8 yLen, tU8 color)
 254:lcd.c         **** {
 255:lcd.c         ****   tU32 i;
 256:lcd.c         ****   tU32 len;
 257:lcd.c         **** 
 258:lcd.c         ****   //select controller
 259:lcd.c         ****   selectLCD(TRUE);   
 260:lcd.c         **** 
 261:lcd.c         ****   lcdWindow1(x,y,x+xLen-1,y+yLen-1);
 262:lcd.c         ****   
 263:lcd.c         ****   lcdWrcmd(LCD_CMD_RAMWR);    //write memory
 264:lcd.c         ****   
 265:lcd.c         ****   len = xLen*yLen;
 266:lcd.c         ****   for(i=0; i<len; i++)
 267:lcd.c         ****     lcdWrdata(color);
 268:lcd.c         **** 
 269:lcd.c         ****   //deselect controller
 270:lcd.c         ****   selectLCD(FALSE);
 271:lcd.c         **** }
 272:lcd.c         **** 
 273:lcd.c         **** 
 274:lcd.c         **** /*****************************************************************************
 275:lcd.c         ****  *
 276:lcd.c         ****  * Description:
 277:lcd.c         ****  *    Draw rectangular area with different boardser colors. Currently used
 278:lcd.c         ****  *    by example game.
 279:lcd.c         ****  *
 280:lcd.c         ****  ****************************************************************************/
 281:lcd.c         **** void
 282:lcd.c         **** lcdRectBrd(tU8 x, tU8 y, tU8 xLen, tU8 yLen, tU8 color1, tU8 color2, tU8 color3)
 283:lcd.c         **** {
 284:lcd.c         ****   tU32 i,j;
 285:lcd.c         **** 
 286:lcd.c         ****   //select controller
 287:lcd.c         ****   selectLCD(TRUE);   
 288:lcd.c         **** 
 289:lcd.c         ****   lcdWindow1(x,y,x+xLen-1,y+yLen-1);
 290:lcd.c         ****   
 291:lcd.c         ****   lcdWrcmd(LCD_CMD_RAMWR);    //write memory
 292:lcd.c         ****   
 293:lcd.c         ****   for(i=0; i<xLen; i++)
 294:lcd.c         ****     lcdWrdata(color2);
 295:lcd.c         ****   for(j=1; j<(yLen-2); j++)
 296:lcd.c         ****   {
 297:lcd.c         ****     lcdWrdata(color2);
 298:lcd.c         ****     for(i=0; i<(xLen-2); i++)
 299:lcd.c         ****       lcdWrdata(color1);
 300:lcd.c         ****     lcdWrdata(color3);
ARM GAS  C:\Users\KOZLOV~1\AppData\Local\Temp\cctyslCN.s 			page 7


 301:lcd.c         ****   }
 302:lcd.c         ****   for(i=0; i<xLen; i++)
 303:lcd.c         ****     lcdWrdata(color3);
 304:lcd.c         **** 
 305:lcd.c         ****   //deselect controller
 306:lcd.c         ****   selectLCD(FALSE);
 307:lcd.c         **** }
 308:lcd.c         **** 
 309:lcd.c         **** 
 310:lcd.c         **** /*****************************************************************************
 311:lcd.c         ****  *
 312:lcd.c         ****  * Description:
 313:lcd.c         ****  *    Draw rectangular area from bitmap. Specify xy-position and xy-length.
 314:lcd.c         ****  *    Compressed format is supported.
 315:lcd.c         ****  *
 316:lcd.c         ****  *    In uncompressed color mode, pData points to an area of xLen * yLen
 317:lcd.c         ****  *    bytes with the icon.
 318:lcd.c         ****  *    In compressed mode the escapeChar is used to denote that the next
 319:lcd.c         ****  *    two bytes contain a length and a color (run length encoding)
 320:lcd.c         ****  *    Note that is is still possible to specify the color value that
 321:lcd.c         ****  *    equals the escape value in a compressed string.
 322:lcd.c         ****  *
 323:lcd.c         ****  ****************************************************************************/
 324:lcd.c         **** void
 325:lcd.c         **** lcdIcon(tU8 x, tU8 y, tU8 xLen, tU8 yLen, tU8 compressionOn, tU8 escapeChar, const tU8* pData)
 326:lcd.c         **** {
 327:lcd.c         ****   tU32 i,j;
 328:lcd.c         ****   tS32 len;
 329:lcd.c         **** 
 330:lcd.c         ****   //select controller
 331:lcd.c         ****   selectLCD(TRUE);   
 332:lcd.c         **** 
 333:lcd.c         ****   lcdWindow1(x,y,x+xLen-1,y+yLen-1);
 334:lcd.c         ****   
 335:lcd.c         ****   lcdWrcmd(LCD_CMD_RAMWR);    //write memory
 336:lcd.c         ****   
 337:lcd.c         ****   len = xLen*yLen;
 338:lcd.c         ****   if (compressionOn == FALSE)
 339:lcd.c         ****   {
 340:lcd.c         ****     for(i=0; i<len; i++)
 341:lcd.c         ****       lcdWrdata(*pData++);
 342:lcd.c         ****   }
 343:lcd.c         ****   else
 344:lcd.c         ****     while(len > 0)
 345:lcd.c         ****     {
 346:lcd.c         ****       if(*pData == escapeChar)
 347:lcd.c         ****       {
 348:lcd.c         ****         pData++;
 349:lcd.c         ****         j = *pData++;
 350:lcd.c         ****         for(i=0;i<j;i++)
 351:lcd.c         ****           lcdWrdata(*pData);
 352:lcd.c         ****         pData++;
 353:lcd.c         ****         len -= j;
 354:lcd.c         ****       }
 355:lcd.c         ****       else
 356:lcd.c         ****       {
 357:lcd.c         ****         lcdWrdata(*pData++);
ARM GAS  C:\Users\KOZLOV~1\AppData\Local\Temp\cctyslCN.s 			page 8


 358:lcd.c         ****         len--;
 359:lcd.c         ****       }
 360:lcd.c         ****     }
 361:lcd.c         **** 
 362:lcd.c         ****   //deselect controller
 363:lcd.c         ****   selectLCD(FALSE);
 364:lcd.c         **** }
 365:lcd.c         **** 
 366:lcd.c         **** 
 367:lcd.c         **** /*****************************************************************************
 368:lcd.c         ****  *
 369:lcd.c         ****  * Description:
 370:lcd.c         ****  *    Update xy-position (by also creating a window).
 371:lcd.c         ****  *
 372:lcd.c         ****  ****************************************************************************/
 373:lcd.c         **** void
 374:lcd.c         **** lcdGotoxy(tU8 x, tU8 y)
 375:lcd.c         **** {
 376:lcd.c         ****   lcd_x = x;
 377:lcd.c         ****   lcd_y = y;
 378:lcd.c         ****   lcdWindow(x, y, 129, 129);
 379:lcd.c         **** }
 380:lcd.c         **** 
 381:lcd.c         **** 
 382:lcd.c         **** /*****************************************************************************
 383:lcd.c         ****  *
 384:lcd.c         ****  * Description:
 385:lcd.c         ****  *    Initialize LCD controller for a window (to write in).
 386:lcd.c         ****  *    Set start xy-position and xy-length.
 387:lcd.c         ****  *    Selects/deselects LCD controller.
 388:lcd.c         ****  *
 389:lcd.c         ****  ****************************************************************************/
 390:lcd.c         **** void
 391:lcd.c         **** lcdWindow(tU8 xp, tU8 yp, tU8 xe, tU8 ye)
 392:lcd.c         **** {
 393:lcd.c         ****   //select controller
 394:lcd.c         ****   selectLCD(TRUE);
 395:lcd.c         ****   
 396:lcd.c         ****   lcdWindow1(xp, yp, xe, ye);
 397:lcd.c         ****   
 398:lcd.c         ****   //deselect controller
 399:lcd.c         ****   selectLCD(FALSE);
 400:lcd.c         **** }
 401:lcd.c         **** 
 402:lcd.c         **** 
 403:lcd.c         **** /*****************************************************************************
 404:lcd.c         ****  *
 405:lcd.c         ****  * Description:
 406:lcd.c         ****  *    Initialize LCD controller for a window (to write in).
 407:lcd.c         ****  *    Set start xy-position and xy-length
 408:lcd.c         ****  *    No select/deselect of LCD controller.
 409:lcd.c         ****  *
 410:lcd.c         ****  ****************************************************************************/
 411:lcd.c         **** static void
 412:lcd.c         **** lcdWindow1(tU8 xp, tU8 yp, tU8 xe, tU8 ye)
 413:lcd.c         **** {
 414:lcd.c         ****   lcdWrcmd(LCD_CMD_CASET);    //set X
ARM GAS  C:\Users\KOZLOV~1\AppData\Local\Temp\cctyslCN.s 			page 9


 415:lcd.c         ****   lcdWrdata(xp+2);
 416:lcd.c         ****   lcdWrdata(xe+2);
 417:lcd.c         ****   
 418:lcd.c         ****   lcdWrcmd(LCD_CMD_PASET);    //set Y
 419:lcd.c         ****   lcdWrdata(yp+2);
 420:lcd.c         ****   lcdWrdata(ye+2);
 421:lcd.c         **** }
 422:lcd.c         **** 
 423:lcd.c         **** 
 424:lcd.c         **** /*****************************************************************************
 425:lcd.c         ****  *
 426:lcd.c         ****  * Description:
 427:lcd.c         ****  *    Update xy-position for newline situation.
 428:lcd.c         ****  *
 429:lcd.c         ****  ****************************************************************************/
 430:lcd.c         **** static void
 431:lcd.c         **** lcdNewline(void)
 432:lcd.c         **** {
 433:lcd.c         ****   lcd_x  = 0;
 434:lcd.c         ****   lcd_y	+= 14;
 435:lcd.c         ****   if (lcd_y >= 126)
 436:lcd.c         ****     lcd_y = 126;
 437:lcd.c         **** }
 438:lcd.c         **** 
 439:lcd.c         **** 
 440:lcd.c         **** /*****************************************************************************
 441:lcd.c         ****  *
 442:lcd.c         ****  * Description:
 443:lcd.c         ****  *    Draw one character withc current foreground and background color
 444:lcd.c         ****  *    at current xy position on display. Update x-position (+8).
 445:lcd.c         ****  *
 446:lcd.c         ****  ****************************************************************************/
 447:lcd.c         **** void
 448:lcd.c         **** lcdData(tU8 data)
 449:lcd.c         **** {
 450:lcd.c         ****   //select controller
 451:lcd.c         ****   selectLCD(TRUE);
 452:lcd.c         ****   
 453:lcd.c         ****   if (data <= 127)
 454:lcd.c         ****   {
 455:lcd.c         ****     tU32 mapOffset;
 456:lcd.c         ****     tU8 i,j,byteToShift;
 457:lcd.c         **** 
 458:lcd.c         ****     data -= 30;
 459:lcd.c         ****     mapOffset = 14*data;
 460:lcd.c         **** 
 461:lcd.c         ****     lcdWrcmd(LCD_CMD_CASET);
 462:lcd.c         ****     lcdWrdata(lcd_x+2);
 463:lcd.c         ****     lcdWrdata(lcd_x+9);
 464:lcd.c         ****     lcdWrcmd(LCD_CMD_PASET);
 465:lcd.c         ****     lcdWrdata(lcd_y+2);
 466:lcd.c         ****     lcdWrdata(lcd_y+15);
 467:lcd.c         ****     lcdWrcmd(LCD_CMD_RAMWR);
 468:lcd.c         ****     
 469:lcd.c         ****     for(i=0; i<14; i++)
 470:lcd.c         ****     {
 471:lcd.c         ****       byteToShift = charMap[mapOffset++];
ARM GAS  C:\Users\KOZLOV~1\AppData\Local\Temp\cctyslCN.s 			page 10


 472:lcd.c         ****       for(j=0; j<8; j++)
 473:lcd.c         ****       {
 474:lcd.c         ****         if (byteToShift & 0x80)
 475:lcd.c         ****           lcdWrdata(textColor);
 476:lcd.c         ****         else
 477:lcd.c         ****           lcdWrdata(bkgColor);
 478:lcd.c         ****         byteToShift <<= 1;
 479:lcd.c         ****       }
 480:lcd.c         ****     }
 481:lcd.c         ****   }
 482:lcd.c         **** 
 483:lcd.c         ****   //deselect controller
 484:lcd.c         ****   selectLCD(FALSE);
 485:lcd.c         **** 
 486:lcd.c         ****   lcd_x += 8;
 487:lcd.c         **** }
 488:lcd.c         **** 
 489:lcd.c         **** 
 490:lcd.c         **** /*****************************************************************************
 491:lcd.c         ****  *
 492:lcd.c         ****  * Description:
 493:lcd.c         ****  *    Write/draw one character at current xy-position.
 494:lcd.c         ****  *    The xy-position is updated afterwards
 495:lcd.c         ****  *
 496:lcd.c         ****  ****************************************************************************/
 497:lcd.c         **** void
 498:lcd.c         **** lcdPutchar(tU8 data)
 499:lcd.c         **** {
 500:lcd.c         ****   if (data == '\n')
 501:lcd.c         ****     lcdNewline();
 502:lcd.c         ****   else if (data != '\r')
 503:lcd.c         ****   {
 504:lcd.c         ****     if (setcolmark == TRUE)
 505:lcd.c         ****     {
 506:lcd.c         ****       textColor = data;
 507:lcd.c         ****       setcolmark = FALSE;
 508:lcd.c         ****     }
 509:lcd.c         ****     else if (data == 0xff)
 510:lcd.c         ****       setcolmark = TRUE;
 511:lcd.c         ****     else if (lcd_x <= 124)
 512:lcd.c         ****     {
 513:lcd.c         ****       lcdData(data);
 514:lcd.c         ****     }
 515:lcd.c         ****   }
 516:lcd.c         **** }
 517:lcd.c         **** 
 518:lcd.c         **** /*****************************************************************************
 519:lcd.c         ****  *
 520:lcd.c         ****  * Description:
 521:lcd.c         ****  *    Write/draw (null-terminated) string of character at current xy-position
 522:lcd.c         ****  *
 523:lcd.c         ****  ****************************************************************************/
 524:lcd.c         **** void
 525:lcd.c         **** lcdPuts(tU8 *s)
 526:lcd.c         **** {
 527:lcd.c         ****   while(*s != '\0')
 528:lcd.c         ****     lcdPutchar(*s++);
ARM GAS  C:\Users\KOZLOV~1\AppData\Local\Temp\cctyslCN.s 			page 11


 529:lcd.c         **** }
 530:lcd.c         **** 
 531:lcd.c         **** 
 532:lcd.c         **** /*****************************************************************************
 533:lcd.c         ****  *
 534:lcd.c         ****  * Description:
 535:lcd.c         ****  *    Send command data to LCD controller
 536:lcd.c         ****  *
 537:lcd.c         ****  ****************************************************************************/
 538:lcd.c         **** void
 539:lcd.c         **** lcdWrcmd(tU8 data)
 540:lcd.c         **** {
  41              		.loc 1 540 0
  42              		.cfi_startproc
  43 000c 00B5     		push	{lr}
  44              	.LCFI0:
  45              		.cfi_def_cfa_offset 4
  46              		.cfi_offset 14, -4
  47              	.LVL1:
  48              		.loc 1 540 0
  49 000e 0106     		lsl	r1, r0, #24
  50 0010 090E     		lsr	r1, r1, #24
 541:lcd.c         ****   sendToLCD(0, data);
  51              		.loc 1 541 0
  52 0012 0020     		mov	r0, #0
  53              	.LVL2:
  54 0014 FFF7FEFF 		bl	sendToLCD
 542:lcd.c         **** }
  55              		.loc 1 542 0
  56              		@ sp needed for prologue
  57 0018 01BC     		pop	{r0}
  58 001a 0047     		bx	r0
  59              		.cfi_endproc
  60              	.LFE16:
  61              		.size	lcdWrcmd, .-lcdWrcmd
  62              		.align	1
  63              		.global	lcdWrdata
  64              		.code	16
  65              		.thumb_func
  66              		.type	lcdWrdata, %function
  67              	lcdWrdata:
  68              	.LFB17:
 543:lcd.c         **** 
 544:lcd.c         **** 
 545:lcd.c         **** /*****************************************************************************
 546:lcd.c         ****  *
 547:lcd.c         ****  * Description:
 548:lcd.c         ****  *    Send data byte to LCD controller
 549:lcd.c         ****  *
 550:lcd.c         ****  ****************************************************************************/
 551:lcd.c         **** void
 552:lcd.c         **** lcdWrdata(tU8 data)
 553:lcd.c         **** {
  69              		.loc 1 553 0
  70              		.cfi_startproc
  71 001c 00B5     		push	{lr}
  72              	.LCFI1:
ARM GAS  C:\Users\KOZLOV~1\AppData\Local\Temp\cctyslCN.s 			page 12


  73              		.cfi_def_cfa_offset 4
  74              		.cfi_offset 14, -4
  75              	.LVL3:
  76              		.loc 1 553 0
  77 001e 0106     		lsl	r1, r0, #24
  78 0020 090E     		lsr	r1, r1, #24
 554:lcd.c         ****   sendToLCD(1, data);
  79              		.loc 1 554 0
  80 0022 0120     		mov	r0, #1
  81              	.LVL4:
  82 0024 FFF7FEFF 		bl	sendToLCD
 555:lcd.c         **** }
  83              		.loc 1 555 0
  84              		@ sp needed for prologue
  85 0028 01BC     		pop	{r0}
  86 002a 0047     		bx	r0
  87              		.cfi_endproc
  88              	.LFE17:
  89              		.size	lcdWrdata, .-lcdWrdata
  90              		.align	1
  91              		.global	lcdData
  92              		.code	16
  93              		.thumb_func
  94              		.type	lcdData, %function
  95              	lcdData:
  96              	.LFB13:
 449:lcd.c         **** {
  97              		.loc 1 449 0
  98              		.cfi_startproc
  99 002c F1B5     		push	{r0, r4, r5, r6, r7, lr}
 100              	.LCFI2:
 101              		.cfi_def_cfa_offset 24
 102              		.cfi_offset 0, -24
 103              		.cfi_offset 4, -20
 104              		.cfi_offset 5, -16
 105              		.cfi_offset 6, -12
 106              		.cfi_offset 7, -8
 107              		.cfi_offset 14, -4
 108              	.LVL5:
 449:lcd.c         **** {
 109              		.loc 1 449 0
 110 002e 0406     		lsl	r4, r0, #24
 111 0030 240E     		lsr	r4, r4, #24
 451:lcd.c         ****   selectLCD(TRUE);
 112              		.loc 1 451 0
 113 0032 0120     		mov	r0, #1
 114              	.LVL6:
 115 0034 FFF7FEFF 		bl	selectLCD
 453:lcd.c         ****   if (data <= 127)
 116              		.loc 1 453 0
 117 0038 2306     		lsl	r3, r4, #24
 118 003a 40D4     		bmi	.L7
 119              	.LVL7:
 120              	.LBB4:
 458:lcd.c         ****     data -= 30;
 121              		.loc 1 458 0
 122 003c 1E3C     		sub	r4, r4, #30
ARM GAS  C:\Users\KOZLOV~1\AppData\Local\Temp\cctyslCN.s 			page 13


 123              	.LVL8:
 459:lcd.c         ****     mapOffset = 14*data;
 124              		.loc 1 459 0
 125 003e 2406     		lsl	r4, r4, #24
 126              	.LVL9:
 127 0040 0E23     		mov	r3, #14
 128 0042 240E     		lsr	r4, r4, #24
 129 0044 191C     		mov	r1, r3
 130 0046 6143     		mul	r1, r4
 461:lcd.c         ****     lcdWrcmd(LCD_CMD_CASET);
 131              		.loc 1 461 0
 132 0048 2A20     		mov	r0, #42
 459:lcd.c         ****     mapOffset = 14*data;
 133              		.loc 1 459 0
 134 004a 0091     		str	r1, [sp]
 135              	.LVL10:
 461:lcd.c         ****     lcdWrcmd(LCD_CMD_CASET);
 136              		.loc 1 461 0
 137 004c FFF7FEFF 		bl	lcdWrcmd
 138              	.LVL11:
 462:lcd.c         ****     lcdWrdata(lcd_x+2);
 139              		.loc 1 462 0
 140 0050 204C     		ldr	r4, .L15
 141 0052 A078     		ldrb	r0, [r4, #2]
 142 0054 0230     		add	r0, r0, #2
 143 0056 0006     		lsl	r0, r0, #24
 144 0058 000E     		lsr	r0, r0, #24
 145 005a FFF7FEFF 		bl	lcdWrdata
 463:lcd.c         ****     lcdWrdata(lcd_x+9);
 146              		.loc 1 463 0
 147 005e A078     		ldrb	r0, [r4, #2]
 148 0060 0930     		add	r0, r0, #9
 149 0062 0006     		lsl	r0, r0, #24
 150 0064 000E     		lsr	r0, r0, #24
 151 0066 FFF7FEFF 		bl	lcdWrdata
 464:lcd.c         ****     lcdWrcmd(LCD_CMD_PASET);
 152              		.loc 1 464 0
 153 006a 2B20     		mov	r0, #43
 154 006c FFF7FEFF 		bl	lcdWrcmd
 465:lcd.c         ****     lcdWrdata(lcd_y+2);
 155              		.loc 1 465 0
 156 0070 E078     		ldrb	r0, [r4, #3]
 157 0072 0230     		add	r0, r0, #2
 158 0074 0006     		lsl	r0, r0, #24
 159 0076 000E     		lsr	r0, r0, #24
 160 0078 FFF7FEFF 		bl	lcdWrdata
 466:lcd.c         ****     lcdWrdata(lcd_y+15);
 161              		.loc 1 466 0
 162 007c E078     		ldrb	r0, [r4, #3]
 163 007e 0F30     		add	r0, r0, #15
 164 0080 0006     		lsl	r0, r0, #24
 165 0082 000E     		lsr	r0, r0, #24
 166 0084 FFF7FEFF 		bl	lcdWrdata
 467:lcd.c         ****     lcdWrcmd(LCD_CMD_RAMWR);
 167              		.loc 1 467 0
 168 0088 2C20     		mov	r0, #44
 169 008a FFF7FEFF 		bl	lcdWrcmd
ARM GAS  C:\Users\KOZLOV~1\AppData\Local\Temp\cctyslCN.s 			page 14


 170              	.LVL12:
 171 008e 0026     		mov	r6, #0
 172              	.LVL13:
 173              	.L11:
 448:lcd.c         **** lcdData(tU8 data)
 174              		.loc 1 448 0
 175 0090 114A     		ldr	r2, .L15+4
 176 0092 0099     		ldr	r1, [sp]
 177 0094 5318     		add	r3, r2, r1
 471:lcd.c         ****       byteToShift = charMap[mapOffset++];
 178              		.loc 1 471 0
 179 0096 9C5D     		ldrb	r4, [r3, r6]
 180              	.LVL14:
 181 0098 0E4F     		ldr	r7, .L15
 182 009a 0825     		mov	r5, #8
 183              	.LVL15:
 184              	.L10:
 474:lcd.c         ****         if (byteToShift & 0x80)
 185              		.loc 1 474 0
 186 009c 2306     		lsl	r3, r4, #24
 187 009e 01D5     		bpl	.L8
 475:lcd.c         ****           lcdWrdata(textColor);
 188              		.loc 1 475 0
 189 00a0 7878     		ldrb	r0, [r7, #1]
 190 00a2 00E0     		b	.L14
 191              	.L8:
 477:lcd.c         ****           lcdWrdata(bkgColor);
 192              		.loc 1 477 0
 193 00a4 3878     		ldrb	r0, [r7]
 194              	.L14:
 478:lcd.c         ****         byteToShift <<= 1;
 195              		.loc 1 478 0
 196 00a6 6400     		lsl	r4, r4, #1
 197 00a8 013D     		sub	r5, r5, #1
 198 00aa 2406     		lsl	r4, r4, #24
 199 00ac 2D06     		lsl	r5, r5, #24
 477:lcd.c         ****           lcdWrdata(bkgColor);
 200              		.loc 1 477 0
 201 00ae FFF7FEFF 		bl	lcdWrdata
 478:lcd.c         ****         byteToShift <<= 1;
 202              		.loc 1 478 0
 203 00b2 240E     		lsr	r4, r4, #24
 204              	.LVL16:
 205 00b4 2D0E     		lsr	r5, r5, #24
 472:lcd.c         ****       for(j=0; j<8; j++)
 206              		.loc 1 472 0
 207 00b6 F1D1     		bne	.L10
 208 00b8 0136     		add	r6, r6, #1
 469:lcd.c         ****     for(i=0; i<14; i++)
 209              		.loc 1 469 0
 210 00ba 0E2E     		cmp	r6, #14
 211 00bc E8D1     		bne	.L11
 212              	.LVL17:
 213              	.L7:
 214              	.LBE4:
 484:lcd.c         ****   selectLCD(FALSE);
 215              		.loc 1 484 0
ARM GAS  C:\Users\KOZLOV~1\AppData\Local\Temp\cctyslCN.s 			page 15


 216 00be 0020     		mov	r0, #0
 217 00c0 FFF7FEFF 		bl	selectLCD
 486:lcd.c         ****   lcd_x += 8;
 218              		.loc 1 486 0
 219 00c4 034B     		ldr	r3, .L15
 220 00c6 9A78     		ldrb	r2, [r3, #2]
 221 00c8 0832     		add	r2, r2, #8
 222 00ca 9A70     		strb	r2, [r3, #2]
 487:lcd.c         **** }
 223              		.loc 1 487 0
 224              		@ sp needed for prologue
 225 00cc F1BC     		pop	{r0, r4, r5, r6, r7}
 226 00ce 01BC     		pop	{r0}
 227 00d0 0047     		bx	r0
 228              	.L16:
 229 00d2 C046     		.align	2
 230              	.L15:
 231 00d4 00000000 		.word	.LANCHOR0
 232 00d8 00000000 		.word	.LANCHOR1
 233              		.cfi_endproc
 234              	.LFE13:
 235              		.size	lcdData, .-lcdData
 236              		.align	1
 237              		.global	lcdPutchar
 238              		.code	16
 239              		.thumb_func
 240              		.type	lcdPutchar, %function
 241              	lcdPutchar:
 242              	.LFB14:
 499:lcd.c         **** {
 243              		.loc 1 499 0
 244              		.cfi_startproc
 245 00dc 00B5     		push	{lr}
 246              	.LCFI3:
 247              		.cfi_def_cfa_offset 4
 248              		.cfi_offset 14, -4
 249              	.LVL18:
 499:lcd.c         **** {
 250              		.loc 1 499 0
 251 00de 0006     		lsl	r0, r0, #24
 252              	.LVL19:
 253 00e0 000E     		lsr	r0, r0, #24
 500:lcd.c         ****   if (data == '\n')
 254              		.loc 1 500 0
 255 00e2 0A28     		cmp	r0, #10
 256 00e4 0CD1     		bne	.L18
 257              	.LBB5:
 258              	.LBB6:
 433:lcd.c         ****   lcd_x  = 0;
 259              		.loc 1 433 0
 260 00e6 114B     		ldr	r3, .L23
 261 00e8 0022     		mov	r2, #0
 262 00ea 9A70     		strb	r2, [r3, #2]
 434:lcd.c         ****   lcd_y	+= 14;
 263              		.loc 1 434 0
 264 00ec DA78     		ldrb	r2, [r3, #3]
 265 00ee 0E32     		add	r2, r2, #14
ARM GAS  C:\Users\KOZLOV~1\AppData\Local\Temp\cctyslCN.s 			page 16


 266 00f0 1206     		lsl	r2, r2, #24
 267 00f2 120E     		lsr	r2, r2, #24
 268 00f4 DA70     		strb	r2, [r3, #3]
 435:lcd.c         ****   if (lcd_y >= 126)
 269              		.loc 1 435 0
 270 00f6 7D2A     		cmp	r2, #125
 271 00f8 15D9     		bls	.L17
 436:lcd.c         ****     lcd_y = 126;
 272              		.loc 1 436 0
 273 00fa 7E22     		mov	r2, #126
 274 00fc DA70     		strb	r2, [r3, #3]
 275 00fe 12E0     		b	.L17
 276              	.L18:
 277              	.LBE6:
 278              	.LBE5:
 502:lcd.c         ****   else if (data != '\r')
 279              		.loc 1 502 0
 280 0100 0D28     		cmp	r0, #13
 281 0102 10D0     		beq	.L17
 504:lcd.c         ****     if (setcolmark == TRUE)
 282              		.loc 1 504 0
 283 0104 094B     		ldr	r3, .L23
 284 0106 1A79     		ldrb	r2, [r3, #4]
 285 0108 012A     		cmp	r2, #1
 286 010a 02D1     		bne	.L20
 506:lcd.c         ****       textColor = data;
 287              		.loc 1 506 0
 288 010c 5870     		strb	r0, [r3, #1]
 507:lcd.c         ****       setcolmark = FALSE;
 289              		.loc 1 507 0
 290 010e 0022     		mov	r2, #0
 291 0110 02E0     		b	.L22
 292              	.L20:
 509:lcd.c         ****     else if (data == 0xff)
 293              		.loc 1 509 0
 294 0112 FF28     		cmp	r0, #255
 295 0114 02D1     		bne	.L21
 510:lcd.c         ****       setcolmark = TRUE;
 296              		.loc 1 510 0
 297 0116 0122     		mov	r2, #1
 298              	.L22:
 299 0118 1A71     		strb	r2, [r3, #4]
 300 011a 04E0     		b	.L17
 301              	.L21:
 511:lcd.c         ****     else if (lcd_x <= 124)
 302              		.loc 1 511 0
 303 011c 9B78     		ldrb	r3, [r3, #2]
 304 011e 7C2B     		cmp	r3, #124
 305 0120 01D8     		bhi	.L17
 513:lcd.c         ****       lcdData(data);
 306              		.loc 1 513 0
 307 0122 FFF7FEFF 		bl	lcdData
 308              	.L17:
 516:lcd.c         **** }
 309              		.loc 1 516 0
 310              		@ sp needed for prologue
 311 0126 01BC     		pop	{r0}
ARM GAS  C:\Users\KOZLOV~1\AppData\Local\Temp\cctyslCN.s 			page 17


 312 0128 0047     		bx	r0
 313              	.L24:
 314 012a C046     		.align	2
 315              	.L23:
 316 012c 00000000 		.word	.LANCHOR0
 317              		.cfi_endproc
 318              	.LFE14:
 319              		.size	lcdPutchar, .-lcdPutchar
 320              		.align	1
 321              		.global	lcdPuts
 322              		.code	16
 323              		.thumb_func
 324              		.type	lcdPuts, %function
 325              	lcdPuts:
 326              	.LFB15:
 526:lcd.c         **** {
 327              		.loc 1 526 0
 328              		.cfi_startproc
 329 0130 10B5     		push	{r4, lr}
 330              	.LCFI4:
 331              		.cfi_def_cfa_offset 8
 332              		.cfi_offset 4, -8
 333              		.cfi_offset 14, -4
 334              	.LVL20:
 526:lcd.c         **** {
 335              		.loc 1 526 0
 336 0132 041C     		mov	r4, r0
 527:lcd.c         ****   while(*s != '\0')
 337              		.loc 1 527 0
 338 0134 02E0     		b	.L26
 339              	.LVL21:
 340              	.L27:
 528:lcd.c         ****     lcdPutchar(*s++);
 341              		.loc 1 528 0
 342 0136 0134     		add	r4, r4, #1
 343              	.LVL22:
 344 0138 FFF7FEFF 		bl	lcdPutchar
 345              	.L26:
 527:lcd.c         ****   while(*s != '\0')
 346              		.loc 1 527 0 discriminator 1
 347 013c 2078     		ldrb	r0, [r4]
 348 013e 0028     		cmp	r0, #0
 349 0140 F9D1     		bne	.L27
 529:lcd.c         **** }
 350              		.loc 1 529 0
 351              		@ sp needed for prologue
 352              	.LVL23:
 353 0142 10BC     		pop	{r4}
 354 0144 01BC     		pop	{r0}
 355 0146 0047     		bx	r0
 356              		.cfi_endproc
 357              	.LFE15:
 358              		.size	lcdPuts, .-lcdPuts
 359              		.align	1
 360              		.code	16
 361              		.thumb_func
 362              		.type	lcdWindow1, %function
ARM GAS  C:\Users\KOZLOV~1\AppData\Local\Temp\cctyslCN.s 			page 18


 363              	lcdWindow1:
 364              	.LFB11:
 413:lcd.c         **** {
 365              		.loc 1 413 0
 366              		.cfi_startproc
 367 0148 F0B5     		push	{r4, r5, r6, r7, lr}
 368              	.LCFI5:
 369              		.cfi_def_cfa_offset 20
 370              		.cfi_offset 4, -20
 371              		.cfi_offset 5, -16
 372              		.cfi_offset 6, -12
 373              		.cfi_offset 7, -8
 374              		.cfi_offset 14, -4
 375              	.LVL24:
 413:lcd.c         **** {
 376              		.loc 1 413 0
 377 014a 0406     		lsl	r4, r0, #24
 378 014c 240E     		lsr	r4, r4, #24
 379 014e 1506     		lsl	r5, r2, #24
 414:lcd.c         ****   lcdWrcmd(LCD_CMD_CASET);    //set X
 380              		.loc 1 414 0
 381 0150 2A20     		mov	r0, #42
 382              	.LVL25:
 415:lcd.c         ****   lcdWrdata(xp+2);
 383              		.loc 1 415 0
 384 0152 0234     		add	r4, r4, #2
 413:lcd.c         **** {
 385              		.loc 1 413 0
 386 0154 0E06     		lsl	r6, r1, #24
 387 0156 1F06     		lsl	r7, r3, #24
 388 0158 2D0E     		lsr	r5, r5, #24
 414:lcd.c         ****   lcdWrcmd(LCD_CMD_CASET);    //set X
 389              		.loc 1 414 0
 390 015a FFF7FEFF 		bl	lcdWrcmd
 391              	.LVL26:
 415:lcd.c         ****   lcdWrdata(xp+2);
 392              		.loc 1 415 0
 393 015e 2006     		lsl	r0, r4, #24
 416:lcd.c         ****   lcdWrdata(xe+2);
 394              		.loc 1 416 0
 395 0160 0235     		add	r5, r5, #2
 415:lcd.c         ****   lcdWrdata(xp+2);
 396              		.loc 1 415 0
 397 0162 000E     		lsr	r0, r0, #24
 398 0164 FFF7FEFF 		bl	lcdWrdata
 416:lcd.c         ****   lcdWrdata(xe+2);
 399              		.loc 1 416 0
 400 0168 2806     		lsl	r0, r5, #24
 401 016a 000E     		lsr	r0, r0, #24
 413:lcd.c         **** {
 402              		.loc 1 413 0
 403 016c 360E     		lsr	r6, r6, #24
 416:lcd.c         ****   lcdWrdata(xe+2);
 404              		.loc 1 416 0
 405 016e FFF7FEFF 		bl	lcdWrdata
 419:lcd.c         ****   lcdWrdata(yp+2);
 406              		.loc 1 419 0
ARM GAS  C:\Users\KOZLOV~1\AppData\Local\Temp\cctyslCN.s 			page 19


 407 0172 0236     		add	r6, r6, #2
 418:lcd.c         ****   lcdWrcmd(LCD_CMD_PASET);    //set Y
 408              		.loc 1 418 0
 409 0174 2B20     		mov	r0, #43
 410 0176 FFF7FEFF 		bl	lcdWrcmd
 413:lcd.c         **** {
 411              		.loc 1 413 0
 412 017a 3F0E     		lsr	r7, r7, #24
 419:lcd.c         ****   lcdWrdata(yp+2);
 413              		.loc 1 419 0
 414 017c 3006     		lsl	r0, r6, #24
 420:lcd.c         ****   lcdWrdata(ye+2);
 415              		.loc 1 420 0
 416 017e 0237     		add	r7, r7, #2
 419:lcd.c         ****   lcdWrdata(yp+2);
 417              		.loc 1 419 0
 418 0180 000E     		lsr	r0, r0, #24
 419 0182 FFF7FEFF 		bl	lcdWrdata
 420:lcd.c         ****   lcdWrdata(ye+2);
 420              		.loc 1 420 0
 421 0186 3806     		lsl	r0, r7, #24
 422 0188 000E     		lsr	r0, r0, #24
 423 018a FFF7FEFF 		bl	lcdWrdata
 421:lcd.c         **** }
 424              		.loc 1 421 0
 425              		@ sp needed for prologue
 426 018e F0BC     		pop	{r4, r5, r6, r7}
 427 0190 01BC     		pop	{r0}
 428 0192 0047     		bx	r0
 429              		.cfi_endproc
 430              	.LFE11:
 431              		.size	lcdWindow1, .-lcdWindow1
 432              		.align	1
 433              		.global	lcdWindow
 434              		.code	16
 435              		.thumb_func
 436              		.type	lcdWindow, %function
 437              	lcdWindow:
 438              	.LFB10:
 392:lcd.c         **** {
 439              		.loc 1 392 0
 440              		.cfi_startproc
 441 0194 F0B5     		push	{r4, r5, r6, r7, lr}
 442              	.LCFI6:
 443              		.cfi_def_cfa_offset 20
 444              		.cfi_offset 4, -20
 445              		.cfi_offset 5, -16
 446              		.cfi_offset 6, -12
 447              		.cfi_offset 7, -8
 448              		.cfi_offset 14, -4
 449              	.LVL27:
 392:lcd.c         **** {
 450              		.loc 1 392 0
 451 0196 0E06     		lsl	r6, r1, #24
 452 0198 1706     		lsl	r7, r2, #24
 453 019a 1C06     		lsl	r4, r3, #24
 454 019c 0506     		lsl	r5, r0, #24
ARM GAS  C:\Users\KOZLOV~1\AppData\Local\Temp\cctyslCN.s 			page 20


 455 019e 2D0E     		lsr	r5, r5, #24
 456 01a0 360E     		lsr	r6, r6, #24
 457 01a2 3F0E     		lsr	r7, r7, #24
 458 01a4 240E     		lsr	r4, r4, #24
 394:lcd.c         ****   selectLCD(TRUE);
 459              		.loc 1 394 0
 460 01a6 0120     		mov	r0, #1
 461              	.LVL28:
 462 01a8 FFF7FEFF 		bl	selectLCD
 463              	.LVL29:
 396:lcd.c         ****   lcdWindow1(xp, yp, xe, ye);
 464              		.loc 1 396 0
 465 01ac 281C     		mov	r0, r5
 466 01ae 311C     		mov	r1, r6
 467 01b0 3A1C     		mov	r2, r7
 468 01b2 231C     		mov	r3, r4
 469 01b4 FFF7C8FF 		bl	lcdWindow1
 399:lcd.c         ****   selectLCD(FALSE);
 470              		.loc 1 399 0
 471 01b8 0020     		mov	r0, #0
 472 01ba FFF7FEFF 		bl	selectLCD
 400:lcd.c         **** }
 473              		.loc 1 400 0
 474              		@ sp needed for prologue
 475 01be F0BC     		pop	{r4, r5, r6, r7}
 476 01c0 01BC     		pop	{r0}
 477 01c2 0047     		bx	r0
 478              		.cfi_endproc
 479              	.LFE10:
 480              		.size	lcdWindow, .-lcdWindow
 481              		.align	1
 482              		.global	lcdGotoxy
 483              		.code	16
 484              		.thumb_func
 485              		.type	lcdGotoxy, %function
 486              	lcdGotoxy:
 487              	.LFB9:
 375:lcd.c         **** {
 488              		.loc 1 375 0
 489              		.cfi_startproc
 490 01c4 00B5     		push	{lr}
 491              	.LCFI7:
 492              		.cfi_def_cfa_offset 4
 493              		.cfi_offset 14, -4
 494              	.LVL30:
 376:lcd.c         ****   lcd_x = x;
 495              		.loc 1 376 0
 496 01c6 064B     		ldr	r3, .L31
 375:lcd.c         **** {
 497              		.loc 1 375 0
 498 01c8 0006     		lsl	r0, r0, #24
 499              	.LVL31:
 500 01ca 0906     		lsl	r1, r1, #24
 501              	.LVL32:
 502 01cc 000E     		lsr	r0, r0, #24
 503 01ce 090E     		lsr	r1, r1, #24
 378:lcd.c         ****   lcdWindow(x, y, 129, 129);
ARM GAS  C:\Users\KOZLOV~1\AppData\Local\Temp\cctyslCN.s 			page 21


 504              		.loc 1 378 0
 505 01d0 8122     		mov	r2, #129
 376:lcd.c         ****   lcd_x = x;
 506              		.loc 1 376 0
 507 01d2 9870     		strb	r0, [r3, #2]
 377:lcd.c         ****   lcd_y = y;
 508              		.loc 1 377 0
 509 01d4 D970     		strb	r1, [r3, #3]
 378:lcd.c         ****   lcdWindow(x, y, 129, 129);
 510              		.loc 1 378 0
 511 01d6 131C     		mov	r3, r2
 512 01d8 FFF7FEFF 		bl	lcdWindow
 379:lcd.c         **** }
 513              		.loc 1 379 0
 514              		@ sp needed for prologue
 515 01dc 01BC     		pop	{r0}
 516 01de 0047     		bx	r0
 517              	.L32:
 518              		.align	2
 519              	.L31:
 520 01e0 00000000 		.word	.LANCHOR0
 521              		.cfi_endproc
 522              	.LFE9:
 523              		.size	lcdGotoxy, .-lcdGotoxy
 524              		.align	1
 525              		.global	lcdIcon
 526              		.code	16
 527              		.thumb_func
 528              		.type	lcdIcon, %function
 529              	lcdIcon:
 530              	.LFB8:
 326:lcd.c         **** {
 531              		.loc 1 326 0
 532              		.cfi_startproc
 533 01e4 F7B5     		push	{r0, r1, r2, r4, r5, r6, r7, lr}
 534              	.LCFI8:
 535              		.cfi_def_cfa_offset 32
 536              		.cfi_offset 0, -32
 537              		.cfi_offset 1, -28
 538              		.cfi_offset 2, -24
 539              		.cfi_offset 4, -20
 540              		.cfi_offset 5, -16
 541              		.cfi_offset 6, -12
 542              		.cfi_offset 7, -8
 543              		.cfi_offset 14, -4
 544              	.LVL33:
 326:lcd.c         **** {
 545              		.loc 1 326 0
 546 01e6 1E06     		lsl	r6, r3, #24
 547 01e8 089B     		ldr	r3, [sp, #32]
 548              	.LVL34:
 549 01ea 1B06     		lsl	r3, r3, #24
 550 01ec 1B0E     		lsr	r3, r3, #24
 551 01ee 0193     		str	r3, [sp, #4]
 552 01f0 099B     		ldr	r3, [sp, #36]
 553 01f2 1206     		lsl	r2, r2, #24
 554              	.LVL35:
ARM GAS  C:\Users\KOZLOV~1\AppData\Local\Temp\cctyslCN.s 			page 22


 555 01f4 1B06     		lsl	r3, r3, #24
 556 01f6 120E     		lsr	r2, r2, #24
 557 01f8 1B0E     		lsr	r3, r3, #24
 558 01fa 0706     		lsl	r7, r0, #24
 331:lcd.c         ****   selectLCD(TRUE);   
 559              		.loc 1 331 0
 560 01fc 0120     		mov	r0, #1
 561              	.LVL36:
 326:lcd.c         **** {
 562              		.loc 1 326 0
 563 01fe 0C06     		lsl	r4, r1, #24
 564 0200 3F0E     		lsr	r7, r7, #24
 565 0202 0092     		str	r2, [sp]
 566 0204 0293     		str	r3, [sp, #8]
 567 0206 0A9D     		ldr	r5, [sp, #40]
 331:lcd.c         ****   selectLCD(TRUE);   
 568              		.loc 1 331 0
 569 0208 FFF7FEFF 		bl	selectLCD
 570              	.LVL37:
 333:lcd.c         ****   lcdWindow1(x,y,x+xLen-1,y+yLen-1);
 571              		.loc 1 333 0
 572 020c 009B     		ldr	r3, [sp]
 326:lcd.c         **** {
 573              		.loc 1 326 0
 574 020e 240E     		lsr	r4, r4, #24
 333:lcd.c         ****   lcdWindow1(x,y,x+xLen-1,y+yLen-1);
 575              		.loc 1 333 0
 576 0210 7A1E     		sub	r2, r7, #1
 326:lcd.c         **** {
 577              		.loc 1 326 0
 578 0212 360E     		lsr	r6, r6, #24
 333:lcd.c         ****   lcdWindow1(x,y,x+xLen-1,y+yLen-1);
 579              		.loc 1 333 0
 580 0214 9A18     		add	r2, r3, r2
 581 0216 631E     		sub	r3, r4, #1
 582 0218 F318     		add	r3, r6, r3
 583 021a 1206     		lsl	r2, r2, #24
 584 021c 1B06     		lsl	r3, r3, #24
 585 021e 120E     		lsr	r2, r2, #24
 586 0220 211C     		mov	r1, r4
 587 0222 1B0E     		lsr	r3, r3, #24
 588 0224 381C     		mov	r0, r7
 589 0226 FFF78FFF 		bl	lcdWindow1
 335:lcd.c         ****   lcdWrcmd(LCD_CMD_RAMWR);    //write memory
 590              		.loc 1 335 0
 591 022a 2C20     		mov	r0, #44
 592 022c FFF7FEFF 		bl	lcdWrcmd
 337:lcd.c         ****   len = xLen*yLen;
 593              		.loc 1 337 0
 594 0230 009A     		ldr	r2, [sp]
 325:lcd.c         **** lcdIcon(tU8 x, tU8 y, tU8 xLen, tU8 yLen, tU8 compressionOn, tU8 escapeChar, const tU8* pData)
 595              		.loc 1 325 0
 596 0232 019C     		ldr	r4, [sp, #4]
 337:lcd.c         ****   len = xLen*yLen;
 597              		.loc 1 337 0
 598 0234 5643     		mul	r6, r2
 599              	.LVL38:
ARM GAS  C:\Users\KOZLOV~1\AppData\Local\Temp\cctyslCN.s 			page 23


 338:lcd.c         ****   if (compressionOn == FALSE)
 600              		.loc 1 338 0
 601 0236 002C     		cmp	r4, #0
 602 0238 04D0     		beq	.L44
 603 023a 1AE0     		b	.L45
 604              	.LVL39:
 605              	.L37:
 341:lcd.c         ****       lcdWrdata(*pData++);
 606              		.loc 1 341 0 discriminator 2
 607 023c 285D     		ldrb	r0, [r5, r4]
 608 023e FFF7FEFF 		bl	lcdWrdata
 340:lcd.c         ****     for(i=0; i<len; i++)
 609              		.loc 1 340 0 discriminator 2
 610 0242 0134     		add	r4, r4, #1
 611              	.LVL40:
 612              	.L44:
 340:lcd.c         ****     for(i=0; i<len; i++)
 613              		.loc 1 340 0 is_stmt 0 discriminator 1
 614 0244 B442     		cmp	r4, r6
 615 0246 F9D1     		bne	.L37
 616 0248 15E0     		b	.L38
 617              	.LVL41:
 618              	.L43:
 346:lcd.c         ****       if(*pData == escapeChar)
 619              		.loc 1 346 0 is_stmt 1
 620 024a 2878     		ldrb	r0, [r5]
 621 024c 029B     		ldr	r3, [sp, #8]
 622 024e 9842     		cmp	r0, r3
 623 0250 0BD1     		bne	.L39
 624              	.LVL42:
 349:lcd.c         ****         j = *pData++;
 625              		.loc 1 349 0
 626 0252 6C78     		ldrb	r4, [r5, #1]
 627              	.LVL43:
 350:lcd.c         ****         for(i=0;i<j;i++)
 628              		.loc 1 350 0
 629 0254 0027     		mov	r7, #0
 630 0256 03E0     		b	.L40
 631              	.LVL44:
 632              	.L41:
 351:lcd.c         ****           lcdWrdata(*pData);
 633              		.loc 1 351 0 discriminator 2
 634 0258 A878     		ldrb	r0, [r5, #2]
 635 025a FFF7FEFF 		bl	lcdWrdata
 350:lcd.c         ****         for(i=0;i<j;i++)
 636              		.loc 1 350 0 discriminator 2
 637 025e 0137     		add	r7, r7, #1
 638              	.LVL45:
 639              	.L40:
 350:lcd.c         ****         for(i=0;i<j;i++)
 640              		.loc 1 350 0 is_stmt 0 discriminator 1
 641 0260 A742     		cmp	r7, r4
 642 0262 F9D3     		bcc	.L41
 352:lcd.c         ****         pData++;
 643              		.loc 1 352 0 is_stmt 1
 644 0264 0335     		add	r5, r5, #3
 645              	.LVL46:
ARM GAS  C:\Users\KOZLOV~1\AppData\Local\Temp\cctyslCN.s 			page 24


 353:lcd.c         ****         len -= j;
 646              		.loc 1 353 0
 647 0266 361B     		sub	r6, r6, r4
 648              	.LVL47:
 649 0268 03E0     		b	.L45
 650              	.LVL48:
 651              	.L39:
 357:lcd.c         ****         lcdWrdata(*pData++);
 652              		.loc 1 357 0
 653 026a FFF7FEFF 		bl	lcdWrdata
 654 026e 0135     		add	r5, r5, #1
 655              	.LVL49:
 358:lcd.c         ****         len--;
 656              		.loc 1 358 0
 657 0270 013E     		sub	r6, r6, #1
 658              	.LVL50:
 659              	.L45:
 344:lcd.c         ****     while(len > 0)
 660              		.loc 1 344 0 discriminator 1
 661 0272 002E     		cmp	r6, #0
 662 0274 E9DC     		bgt	.L43
 663              	.LVL51:
 664              	.L38:
 363:lcd.c         ****   selectLCD(FALSE);
 665              		.loc 1 363 0
 666 0276 0020     		mov	r0, #0
 667 0278 FFF7FEFF 		bl	selectLCD
 364:lcd.c         **** }
 668              		.loc 1 364 0
 669              		@ sp needed for prologue
 670              	.LVL52:
 671 027c F7BC     		pop	{r0, r1, r2, r4, r5, r6, r7}
 672 027e 01BC     		pop	{r0}
 673 0280 0047     		bx	r0
 674              		.cfi_endproc
 675              	.LFE8:
 676              		.size	lcdIcon, .-lcdIcon
 677              		.align	1
 678              		.global	lcdRectBrd
 679              		.code	16
 680              		.thumb_func
 681              		.type	lcdRectBrd, %function
 682              	lcdRectBrd:
 683              	.LFB7:
 283:lcd.c         **** {
 684              		.loc 1 283 0
 685              		.cfi_startproc
 686 0282 FFB5     		push	{r0, r1, r2, r3, r4, r5, r6, r7, lr}
 687              	.LCFI9:
 688              		.cfi_def_cfa_offset 36
 689              		.cfi_offset 0, -36
 690              		.cfi_offset 1, -32
 691              		.cfi_offset 2, -28
 692              		.cfi_offset 3, -24
 693              		.cfi_offset 4, -20
 694              		.cfi_offset 5, -16
 695              		.cfi_offset 6, -12
ARM GAS  C:\Users\KOZLOV~1\AppData\Local\Temp\cctyslCN.s 			page 25


 696              		.cfi_offset 7, -8
 697              		.cfi_offset 14, -4
 698              	.LVL53:
 283:lcd.c         **** {
 699              		.loc 1 283 0
 700 0284 1B06     		lsl	r3, r3, #24
 701              	.LVL54:
 702 0286 1B0E     		lsr	r3, r3, #24
 703 0288 0093     		str	r3, [sp]
 704 028a 099B     		ldr	r3, [sp, #36]
 705 028c 1B06     		lsl	r3, r3, #24
 706 028e 1B0E     		lsr	r3, r3, #24
 707 0290 0393     		str	r3, [sp, #12]
 708 0292 0A9B     		ldr	r3, [sp, #40]
 709 0294 1B06     		lsl	r3, r3, #24
 710 0296 1B0E     		lsr	r3, r3, #24
 711 0298 0193     		str	r3, [sp, #4]
 712 029a 0B9B     		ldr	r3, [sp, #44]
 713 029c 1B06     		lsl	r3, r3, #24
 714 029e 0E06     		lsl	r6, r1, #24
 715 02a0 1B0E     		lsr	r3, r3, #24
 716 02a2 0406     		lsl	r4, r0, #24
 287:lcd.c         ****   selectLCD(TRUE);   
 717              		.loc 1 287 0
 718 02a4 0120     		mov	r0, #1
 719              	.LVL55:
 283:lcd.c         **** {
 720              		.loc 1 283 0
 721 02a6 240E     		lsr	r4, r4, #24
 722 02a8 1506     		lsl	r5, r2, #24
 723 02aa 360E     		lsr	r6, r6, #24
 724 02ac 0293     		str	r3, [sp, #8]
 287:lcd.c         ****   selectLCD(TRUE);   
 725              		.loc 1 287 0
 726 02ae FFF7FEFF 		bl	selectLCD
 727              	.LVL56:
 289:lcd.c         ****   lcdWindow1(x,y,x+xLen-1,y+yLen-1);
 728              		.loc 1 289 0
 729 02b2 0099     		ldr	r1, [sp]
 730 02b4 621E     		sub	r2, r4, #1
 283:lcd.c         **** {
 731              		.loc 1 283 0
 732 02b6 2D0E     		lsr	r5, r5, #24
 289:lcd.c         ****   lcdWindow1(x,y,x+xLen-1,y+yLen-1);
 733              		.loc 1 289 0
 734 02b8 731E     		sub	r3, r6, #1
 735 02ba CB18     		add	r3, r1, r3
 736 02bc AA18     		add	r2, r5, r2
 737 02be 1206     		lsl	r2, r2, #24
 738 02c0 1B06     		lsl	r3, r3, #24
 739 02c2 201C     		mov	r0, r4
 740 02c4 120E     		lsr	r2, r2, #24
 741 02c6 1B0E     		lsr	r3, r3, #24
 742 02c8 311C     		mov	r1, r6
 743 02ca FFF73DFF 		bl	lcdWindow1
 291:lcd.c         ****   lcdWrcmd(LCD_CMD_RAMWR);    //write memory
 744              		.loc 1 291 0
ARM GAS  C:\Users\KOZLOV~1\AppData\Local\Temp\cctyslCN.s 			page 26


 745 02ce 2C20     		mov	r0, #44
 746 02d0 FFF7FEFF 		bl	lcdWrcmd
 747              	.LVL57:
 293:lcd.c         ****   for(i=0; i<xLen; i++)
 748              		.loc 1 293 0
 749 02d4 0024     		mov	r4, #0
 750 02d6 03E0     		b	.L47
 751              	.LVL58:
 752              	.L48:
 294:lcd.c         ****     lcdWrdata(color2);
 753              		.loc 1 294 0 discriminator 2
 754 02d8 0198     		ldr	r0, [sp, #4]
 755 02da FFF7FEFF 		bl	lcdWrdata
 293:lcd.c         ****   for(i=0; i<xLen; i++)
 756              		.loc 1 293 0 discriminator 2
 757 02de 0134     		add	r4, r4, #1
 758              	.LVL59:
 759              	.L47:
 293:lcd.c         ****   for(i=0; i<xLen; i++)
 760              		.loc 1 293 0 is_stmt 0 discriminator 1
 761 02e0 AC42     		cmp	r4, r5
 762 02e2 F9D3     		bcc	.L48
 295:lcd.c         ****   for(j=1; j<(yLen-2); j++)
 763              		.loc 1 295 0 is_stmt 1
 764 02e4 009B     		ldr	r3, [sp]
 765 02e6 023B     		sub	r3, r3, #2
 293:lcd.c         ****   for(i=0; i<xLen; i++)
 766              		.loc 1 293 0
 767 02e8 0127     		mov	r7, #1
 295:lcd.c         ****   for(j=1; j<(yLen-2); j++)
 768              		.loc 1 295 0
 769 02ea 0093     		str	r3, [sp]
 770 02ec 0FE0     		b	.L49
 771              	.LVL60:
 772              	.L52:
 297:lcd.c         ****     lcdWrdata(color2);
 773              		.loc 1 297 0
 774 02ee 0198     		ldr	r0, [sp, #4]
 775 02f0 FFF7FEFF 		bl	lcdWrdata
 776              	.LVL61:
 298:lcd.c         ****     for(i=0; i<(xLen-2); i++)
 777              		.loc 1 298 0
 778 02f4 0026     		mov	r6, #0
 779 02f6 AC1E     		sub	r4, r5, #2
 780 02f8 03E0     		b	.L50
 781              	.LVL62:
 782              	.L51:
 299:lcd.c         ****       lcdWrdata(color1);
 783              		.loc 1 299 0 discriminator 2
 784 02fa 0398     		ldr	r0, [sp, #12]
 785 02fc FFF7FEFF 		bl	lcdWrdata
 298:lcd.c         ****     for(i=0; i<(xLen-2); i++)
 786              		.loc 1 298 0 discriminator 2
 787 0300 0136     		add	r6, r6, #1
 788              	.LVL63:
 789              	.L50:
 298:lcd.c         ****     for(i=0; i<(xLen-2); i++)
ARM GAS  C:\Users\KOZLOV~1\AppData\Local\Temp\cctyslCN.s 			page 27


 790              		.loc 1 298 0 is_stmt 0 discriminator 1
 791 0302 A642     		cmp	r6, r4
 792 0304 F9D3     		bcc	.L51
 300:lcd.c         ****     lcdWrdata(color3);
 793              		.loc 1 300 0 is_stmt 1
 794 0306 0298     		ldr	r0, [sp, #8]
 795 0308 FFF7FEFF 		bl	lcdWrdata
 295:lcd.c         ****   for(j=1; j<(yLen-2); j++)
 796              		.loc 1 295 0
 797 030c 0137     		add	r7, r7, #1
 798              	.LVL64:
 799              	.L49:
 295:lcd.c         ****   for(j=1; j<(yLen-2); j++)
 800              		.loc 1 295 0 is_stmt 0 discriminator 1
 801 030e 0099     		ldr	r1, [sp]
 802 0310 8F42     		cmp	r7, r1
 803 0312 ECD3     		bcc	.L52
 295:lcd.c         ****   for(j=1; j<(yLen-2); j++)
 804              		.loc 1 295 0
 805 0314 0024     		mov	r4, #0
 806 0316 03E0     		b	.L53
 807              	.LVL65:
 808              	.L54:
 303:lcd.c         ****     lcdWrdata(color3);
 809              		.loc 1 303 0 is_stmt 1 discriminator 2
 810 0318 0298     		ldr	r0, [sp, #8]
 811 031a FFF7FEFF 		bl	lcdWrdata
 302:lcd.c         ****   for(i=0; i<xLen; i++)
 812              		.loc 1 302 0 discriminator 2
 813 031e 0134     		add	r4, r4, #1
 814              	.LVL66:
 815              	.L53:
 302:lcd.c         ****   for(i=0; i<xLen; i++)
 816              		.loc 1 302 0 is_stmt 0 discriminator 1
 817 0320 AC42     		cmp	r4, r5
 818 0322 F9D3     		bcc	.L54
 306:lcd.c         ****   selectLCD(FALSE);
 819              		.loc 1 306 0 is_stmt 1
 820 0324 0020     		mov	r0, #0
 821 0326 FFF7FEFF 		bl	selectLCD
 307:lcd.c         **** }
 822              		.loc 1 307 0
 823              		@ sp needed for prologue
 824              	.LVL67:
 825              	.LVL68:
 826 032a FFBC     		pop	{r0, r1, r2, r3, r4, r5, r6, r7}
 827 032c 01BC     		pop	{r0}
 828 032e 0047     		bx	r0
 829              		.cfi_endproc
 830              	.LFE7:
 831              		.size	lcdRectBrd, .-lcdRectBrd
 832              		.align	1
 833              		.global	lcdRect
 834              		.code	16
 835              		.thumb_func
 836              		.type	lcdRect, %function
 837              	lcdRect:
ARM GAS  C:\Users\KOZLOV~1\AppData\Local\Temp\cctyslCN.s 			page 28


 838              	.LFB6:
 254:lcd.c         **** {
 839              		.loc 1 254 0
 840              		.cfi_startproc
 841 0330 F1B5     		push	{r0, r4, r5, r6, r7, lr}
 842              	.LCFI10:
 843              		.cfi_def_cfa_offset 24
 844              		.cfi_offset 0, -24
 845              		.cfi_offset 4, -20
 846              		.cfi_offset 5, -16
 847              		.cfi_offset 6, -12
 848              		.cfi_offset 7, -8
 849              		.cfi_offset 14, -4
 850              	.LVL69:
 254:lcd.c         **** {
 851              		.loc 1 254 0
 852 0332 1C06     		lsl	r4, r3, #24
 853 0334 069B     		ldr	r3, [sp, #24]
 854              	.LVL70:
 855 0336 0E06     		lsl	r6, r1, #24
 856 0338 0506     		lsl	r5, r0, #24
 857 033a 1B06     		lsl	r3, r3, #24
 858 033c 2D0E     		lsr	r5, r5, #24
 859 033e 1706     		lsl	r7, r2, #24
 860 0340 1B0E     		lsr	r3, r3, #24
 861 0342 360E     		lsr	r6, r6, #24
 259:lcd.c         ****   selectLCD(TRUE);   
 862              		.loc 1 259 0
 863 0344 0120     		mov	r0, #1
 864              	.LVL71:
 254:lcd.c         **** {
 865              		.loc 1 254 0
 866 0346 3F0E     		lsr	r7, r7, #24
 867 0348 240E     		lsr	r4, r4, #24
 868 034a 0093     		str	r3, [sp]
 259:lcd.c         ****   selectLCD(TRUE);   
 869              		.loc 1 259 0
 870 034c FFF7FEFF 		bl	selectLCD
 871              	.LVL72:
 261:lcd.c         ****   lcdWindow1(x,y,x+xLen-1,y+yLen-1);
 872              		.loc 1 261 0
 873 0350 6A1E     		sub	r2, r5, #1
 874 0352 731E     		sub	r3, r6, #1
 875 0354 E318     		add	r3, r4, r3
 876 0356 BA18     		add	r2, r7, r2
 877 0358 1206     		lsl	r2, r2, #24
 878 035a 1B06     		lsl	r3, r3, #24
 879 035c 281C     		mov	r0, r5
 880 035e 120E     		lsr	r2, r2, #24
 881 0360 1B0E     		lsr	r3, r3, #24
 882 0362 311C     		mov	r1, r6
 883 0364 FFF7F0FE 		bl	lcdWindow1
 263:lcd.c         ****   lcdWrcmd(LCD_CMD_RAMWR);    //write memory
 884              		.loc 1 263 0
 885 0368 2C20     		mov	r0, #44
 886 036a FFF7FEFF 		bl	lcdWrcmd
 265:lcd.c         ****   len = xLen*yLen;
ARM GAS  C:\Users\KOZLOV~1\AppData\Local\Temp\cctyslCN.s 			page 29


 887              		.loc 1 265 0
 888 036e 7C43     		mul	r4, r7
 889              	.LVL73:
 266:lcd.c         ****   for(i=0; i<len; i++)
 890              		.loc 1 266 0
 891 0370 0025     		mov	r5, #0
 892 0372 03E0     		b	.L56
 893              	.LVL74:
 894              	.L57:
 267:lcd.c         ****     lcdWrdata(color);
 895              		.loc 1 267 0 discriminator 2
 896 0374 0098     		ldr	r0, [sp]
 897 0376 FFF7FEFF 		bl	lcdWrdata
 266:lcd.c         ****   for(i=0; i<len; i++)
 898              		.loc 1 266 0 discriminator 2
 899 037a 0135     		add	r5, r5, #1
 900              	.LVL75:
 901              	.L56:
 266:lcd.c         ****   for(i=0; i<len; i++)
 902              		.loc 1 266 0 is_stmt 0 discriminator 1
 903 037c A542     		cmp	r5, r4
 904 037e F9D1     		bne	.L57
 270:lcd.c         ****   selectLCD(FALSE);
 905              		.loc 1 270 0 is_stmt 1
 906 0380 0020     		mov	r0, #0
 907 0382 FFF7FEFF 		bl	selectLCD
 271:lcd.c         **** }
 908              		.loc 1 271 0
 909              		@ sp needed for prologue
 910              	.LVL76:
 911              	.LVL77:
 912 0386 F1BC     		pop	{r0, r4, r5, r6, r7}
 913 0388 01BC     		pop	{r0}
 914 038a 0047     		bx	r0
 915              		.cfi_endproc
 916              	.LFE6:
 917              		.size	lcdRect, .-lcdRect
 918              		.align	1
 919              		.global	lcdLine
 920              		.code	16
 921              		.thumb_func
 922              		.type	lcdLine, %function
 923              	lcdLine:
 924              	.LFB5:
 217:lcd.c         **** {
 925              		.loc 1 217 0
 926              		.cfi_startproc
 927 038c F1B5     		push	{r0, r4, r5, r6, r7, lr}
 928              	.LCFI11:
 929              		.cfi_def_cfa_offset 24
 930              		.cfi_offset 0, -24
 931              		.cfi_offset 4, -20
 932              		.cfi_offset 5, -16
 933              		.cfi_offset 6, -12
 934              		.cfi_offset 7, -8
 935              		.cfi_offset 14, -4
 936              	.LVL78:
ARM GAS  C:\Users\KOZLOV~1\AppData\Local\Temp\cctyslCN.s 			page 30


 217:lcd.c         **** {
 937              		.loc 1 217 0
 938 038e 069F     		ldr	r7, [sp, #24]
 939 0390 1B06     		lsl	r3, r3, #24
 940              	.LVL79:
 941 0392 0506     		lsl	r5, r0, #24
 942 0394 0E06     		lsl	r6, r1, #24
 943 0396 1406     		lsl	r4, r2, #24
 944 0398 1B0E     		lsr	r3, r3, #24
 945 039a 3F06     		lsl	r7, r7, #24
 221:lcd.c         ****   selectLCD(TRUE);   
 946              		.loc 1 221 0
 947 039c 0120     		mov	r0, #1
 948              	.LVL80:
 217:lcd.c         **** {
 949              		.loc 1 217 0
 950 039e 3F0E     		lsr	r7, r7, #24
 951 03a0 2D0E     		lsr	r5, r5, #24
 952 03a2 360E     		lsr	r6, r6, #24
 953 03a4 240E     		lsr	r4, r4, #24
 954 03a6 0093     		str	r3, [sp]
 221:lcd.c         ****   selectLCD(TRUE);   
 955              		.loc 1 221 0
 956 03a8 FFF7FEFF 		bl	selectLCD
 957              	.LVL81:
 223:lcd.c         ****   if (vertical)
 958              		.loc 1 223 0
 959 03ac 002F     		cmp	r7, #0
 960 03ae 14D0     		beq	.L59
 225:lcd.c         ****     lcdWindow1(x,y,x,y+len-1);
 961              		.loc 1 225 0
 962 03b0 731E     		sub	r3, r6, #1
 963 03b2 E318     		add	r3, r4, r3
 964 03b4 1B06     		lsl	r3, r3, #24
 965 03b6 281C     		mov	r0, r5
 966 03b8 2A1C     		mov	r2, r5
 967 03ba 1B0E     		lsr	r3, r3, #24
 968 03bc 311C     		mov	r1, r6
 969 03be FFF7C3FE 		bl	lcdWindow1
 227:lcd.c         ****     lcdWrcmd(LCD_CMD_RAMWR);    //write memory
 970              		.loc 1 227 0
 971 03c2 2C20     		mov	r0, #44
 972 03c4 FFF7FEFF 		bl	lcdWrcmd
 973              	.LVL82:
 229:lcd.c         ****     for(i=0; i<len; i++)
 974              		.loc 1 229 0
 975 03c8 0025     		mov	r5, #0
 976 03ca 03E0     		b	.L60
 977              	.LVL83:
 978              	.L61:
 230:lcd.c         ****       lcdWrdata(color);
 979              		.loc 1 230 0 discriminator 2
 980 03cc 0098     		ldr	r0, [sp]
 981 03ce FFF7FEFF 		bl	lcdWrdata
 229:lcd.c         ****     for(i=0; i<len; i++)
 982              		.loc 1 229 0 discriminator 2
 983 03d2 0135     		add	r5, r5, #1
ARM GAS  C:\Users\KOZLOV~1\AppData\Local\Temp\cctyslCN.s 			page 31


 984              	.LVL84:
 985              	.L60:
 229:lcd.c         ****     for(i=0; i<len; i++)
 986              		.loc 1 229 0 is_stmt 0 discriminator 1
 987 03d4 A542     		cmp	r5, r4
 988 03d6 F9D3     		bcc	.L61
 989 03d8 13E0     		b	.L62
 990              	.LVL85:
 991              	.L59:
 234:lcd.c         ****     lcdWindow1(x,y,x+len-1,y);
 992              		.loc 1 234 0 is_stmt 1
 993 03da 6A1E     		sub	r2, r5, #1
 994 03dc A218     		add	r2, r4, r2
 995 03de 1206     		lsl	r2, r2, #24
 996 03e0 281C     		mov	r0, r5
 997 03e2 120E     		lsr	r2, r2, #24
 998 03e4 311C     		mov	r1, r6
 999 03e6 331C     		mov	r3, r6
 1000 03e8 FFF7AEFE 		bl	lcdWindow1
 236:lcd.c         ****     lcdWrcmd(LCD_CMD_RAMWR);    //write memory
 1001              		.loc 1 236 0
 1002 03ec 2C20     		mov	r0, #44
 1003 03ee FFF7FEFF 		bl	lcdWrcmd
 1004              	.LVL86:
 238:lcd.c         ****     for(i=0; i<len; i++)
 1005              		.loc 1 238 0
 1006 03f2 3D1C     		mov	r5, r7
 1007 03f4 03E0     		b	.L63
 1008              	.LVL87:
 1009              	.L64:
 239:lcd.c         ****       lcdWrdata(color);
 1010              		.loc 1 239 0 discriminator 2
 1011 03f6 0098     		ldr	r0, [sp]
 1012 03f8 FFF7FEFF 		bl	lcdWrdata
 238:lcd.c         ****     for(i=0; i<len; i++)
 1013              		.loc 1 238 0 discriminator 2
 1014 03fc 0135     		add	r5, r5, #1
 1015              	.LVL88:
 1016              	.L63:
 238:lcd.c         ****     for(i=0; i<len; i++)
 1017              		.loc 1 238 0 is_stmt 0 discriminator 1
 1018 03fe A542     		cmp	r5, r4
 1019 0400 F9D3     		bcc	.L64
 1020              	.L62:
 243:lcd.c         ****   selectLCD(FALSE);
 1021              		.loc 1 243 0 is_stmt 1
 1022 0402 0020     		mov	r0, #0
 1023 0404 FFF7FEFF 		bl	selectLCD
 244:lcd.c         **** }
 1024              		.loc 1 244 0
 1025              		@ sp needed for prologue
 1026              	.LVL89:
 1027 0408 F1BC     		pop	{r0, r4, r5, r6, r7}
 1028 040a 01BC     		pop	{r0}
 1029 040c 0047     		bx	r0
 1030              		.cfi_endproc
 1031              	.LFE5:
ARM GAS  C:\Users\KOZLOV~1\AppData\Local\Temp\cctyslCN.s 			page 32


 1032              		.size	lcdLine, .-lcdLine
 1033              		.align	1
 1034              		.global	lcdContrast
 1035              		.code	16
 1036              		.thumb_func
 1037              		.type	lcdContrast, %function
 1038              	lcdContrast:
 1039              	.LFB4:
 197:lcd.c         **** {
 1040              		.loc 1 197 0
 1041              		.cfi_startproc
 1042 040e 10B5     		push	{r4, lr}
 1043              	.LCFI12:
 1044              		.cfi_def_cfa_offset 8
 1045              		.cfi_offset 4, -8
 1046              		.cfi_offset 14, -4
 1047              	.LVL90:
 197:lcd.c         **** {
 1048              		.loc 1 197 0
 1049 0410 0406     		lsl	r4, r0, #24
 199:lcd.c         ****   selectLCD(TRUE);
 1050              		.loc 1 199 0
 1051 0412 0120     		mov	r0, #1
 1052              	.LVL91:
 1053 0414 FFF7FEFF 		bl	selectLCD
 197:lcd.c         **** {
 1054              		.loc 1 197 0
 1055 0418 240E     		lsr	r4, r4, #24
 202:lcd.c         ****   lcdWrcmd(LCD_CMD_SETCON);
 1056              		.loc 1 202 0
 1057 041a 2520     		mov	r0, #37
 1058 041c FFF7FEFF 		bl	lcdWrcmd
 203:lcd.c         **** 	lcdWrdata(cont);
 1059              		.loc 1 203 0
 1060 0420 201C     		mov	r0, r4
 1061 0422 FFF7FEFF 		bl	lcdWrdata
 206:lcd.c         ****   selectLCD(FALSE);
 1062              		.loc 1 206 0
 1063 0426 0020     		mov	r0, #0
 1064 0428 FFF7FEFF 		bl	selectLCD
 207:lcd.c         **** }
 1065              		.loc 1 207 0
 1066              		@ sp needed for prologue
 1067 042c 10BC     		pop	{r4}
 1068 042e 01BC     		pop	{r0}
 1069 0430 0047     		bx	r0
 1070              		.cfi_endproc
 1071              	.LFE4:
 1072              		.size	lcdContrast, .-lcdContrast
 1073              		.align	1
 1074              		.global	lcdClrscr
 1075              		.code	16
 1076              		.thumb_func
 1077              		.type	lcdClrscr, %function
 1078              	lcdClrscr:
 1079              	.LFB1:
 133:lcd.c         **** {
ARM GAS  C:\Users\KOZLOV~1\AppData\Local\Temp\cctyslCN.s 			page 33


 1080              		.loc 1 133 0
 1081              		.cfi_startproc
 1082 0432 30B5     		push	{r4, r5, lr}
 1083              	.LCFI13:
 1084              		.cfi_def_cfa_offset 12
 1085              		.cfi_offset 4, -12
 1086              		.cfi_offset 5, -8
 1087              		.cfi_offset 14, -4
 136:lcd.c         **** 	lcd_x = 0;
 1088              		.loc 1 136 0
 1089 0434 0E4D     		ldr	r5, .L69
 1090 0436 0023     		mov	r3, #0
 1091 0438 AB70     		strb	r3, [r5, #2]
 137:lcd.c         ****   lcd_y = 0;
 1092              		.loc 1 137 0
 1093 043a EB70     		strb	r3, [r5, #3]
 140:lcd.c         ****   selectLCD(TRUE);   
 1094              		.loc 1 140 0
 1095 043c 0120     		mov	r0, #1
 1096 043e FFF7FEFF 		bl	selectLCD
 142:lcd.c         ****   lcdWindow1(255,255,128,128);
 1097              		.loc 1 142 0
 1098 0442 FF20     		mov	r0, #255
 1099 0444 8022     		mov	r2, #128
 1100 0446 011C     		mov	r1, r0
 1101 0448 131C     		mov	r3, r2
 1102 044a FFF77DFE 		bl	lcdWindow1
 144:lcd.c         ****   lcdWrcmd(LCD_CMD_RAMWR);    //write memory
 1103              		.loc 1 144 0
 1104 044e 2C20     		mov	r0, #44
 1105 0450 FFF7FEFF 		bl	lcdWrcmd
 1106              	.LVL92:
 1107 0454 074C     		ldr	r4, .L69+4
 1108              	.LVL93:
 1109              	.L67:
 147:lcd.c         ****     lcdWrdata(bkgColor);
 1110              		.loc 1 147 0 discriminator 2
 1111 0456 2878     		ldrb	r0, [r5]
 1112 0458 013C     		sub	r4, r4, #1
 1113 045a FFF7FEFF 		bl	lcdWrdata
 146:lcd.c         ****   for(i=0; i<16900; i++)
 1114              		.loc 1 146 0 discriminator 2
 1115 045e 002C     		cmp	r4, #0
 1116 0460 F9D1     		bne	.L67
 150:lcd.c         ****   selectLCD(FALSE);
 1117              		.loc 1 150 0
 1118 0462 201C     		mov	r0, r4
 1119 0464 FFF7FEFF 		bl	selectLCD
 151:lcd.c         **** }
 1120              		.loc 1 151 0
 1121              		@ sp needed for prologue
 1122 0468 30BC     		pop	{r4, r5}
 1123 046a 01BC     		pop	{r0}
 1124 046c 0047     		bx	r0
 1125              	.L70:
 1126 046e C046     		.align	2
 1127              	.L69:
ARM GAS  C:\Users\KOZLOV~1\AppData\Local\Temp\cctyslCN.s 			page 34


 1128 0470 00000000 		.word	.LANCHOR0
 1129 0474 04420000 		.word	16900
 1130              		.cfi_endproc
 1131              	.LFE1:
 1132              		.size	lcdClrscr, .-lcdClrscr
 1133              		.align	1
 1134              		.global	lcdOff
 1135              		.code	16
 1136              		.thumb_func
 1137              		.type	lcdOff, %function
 1138              	lcdOff:
 1139              	.LFB2:
 162:lcd.c         **** {
 1140              		.loc 1 162 0
 1141              		.cfi_startproc
 1142 0478 00B5     		push	{lr}
 1143              	.LCFI14:
 1144              		.cfi_def_cfa_offset 4
 1145              		.cfi_offset 14, -4
 163:lcd.c         ****   lcdClrscr();
 1146              		.loc 1 163 0
 1147 047a FFF7FEFF 		bl	lcdClrscr
 166:lcd.c         ****   selectLCD(TRUE);   
 1148              		.loc 1 166 0
 1149 047e 0120     		mov	r0, #1
 1150 0480 FFF7FEFF 		bl	selectLCD
 168:lcd.c         ****   lcdWrcmd(LCD_CMD_SLEEPIN);
 1151              		.loc 1 168 0
 1152 0484 1020     		mov	r0, #16
 1153 0486 FFF7FEFF 		bl	lcdWrcmd
 171:lcd.c         ****   selectLCD(FALSE);
 1154              		.loc 1 171 0
 1155 048a 0020     		mov	r0, #0
 1156 048c FFF7FEFF 		bl	selectLCD
 172:lcd.c         **** }
 1157              		.loc 1 172 0
 1158              		@ sp needed for prologue
 1159 0490 01BC     		pop	{r0}
 1160 0492 0047     		bx	r0
 1161              		.cfi_endproc
 1162              	.LFE2:
 1163              		.size	lcdOff, .-lcdOff
 1164              		.align	1
 1165              		.global	lcdInit
 1166              		.code	16
 1167              		.thumb_func
 1168              		.type	lcdInit, %function
 1169              	lcdInit:
 1170              	.LFB0:
  70:lcd.c         **** {
 1171              		.loc 1 70 0
 1172              		.cfi_startproc
 1173 0494 10B5     		push	{r4, lr}
 1174              	.LCFI15:
 1175              		.cfi_def_cfa_offset 8
 1176              		.cfi_offset 4, -8
 1177              		.cfi_offset 14, -4
ARM GAS  C:\Users\KOZLOV~1\AppData\Local\Temp\cctyslCN.s 			page 35


  71:lcd.c         ****   bkgColor  = 0;
 1178              		.loc 1 71 0
 1179 0496 3A4B     		ldr	r3, .L73
 1180 0498 0024     		mov	r4, #0
 1181 049a 1C70     		strb	r4, [r3]
  72:lcd.c         ****   textColor = 0;
 1182              		.loc 1 72 0
 1183 049c 5C70     		strb	r4, [r3, #1]
  75:lcd.c         ****   initSpiForLcd();
 1184              		.loc 1 75 0
 1185 049e FFF7FEFF 		bl	initSpiForLcd
  78:lcd.c         ****   selectLCD(TRUE);
 1186              		.loc 1 78 0
 1187 04a2 0120     		mov	r0, #1
 1188 04a4 FFF7FEFF 		bl	selectLCD
  80:lcd.c         **** 	lcdWrcmd(LCD_CMD_SWRESET);
 1189              		.loc 1 80 0
 1190 04a8 0120     		mov	r0, #1
 1191 04aa FFF7FEFF 		bl	lcdWrcmd
  82:lcd.c         **** 	osSleep(1);
 1192              		.loc 1 82 0
 1193 04ae 0120     		mov	r0, #1
 1194 04b0 FFF7FEFF 		bl	osSleep
  83:lcd.c         **** 	lcdWrcmd(LCD_CMD_SLEEPOUT);
 1195              		.loc 1 83 0
 1196 04b4 1120     		mov	r0, #17
 1197 04b6 FFF7FEFF 		bl	lcdWrcmd
  84:lcd.c         **** 	lcdWrcmd(LCD_CMD_DISPON);
 1198              		.loc 1 84 0
 1199 04ba 2920     		mov	r0, #41
 1200 04bc FFF7FEFF 		bl	lcdWrcmd
  85:lcd.c         **** 	lcdWrcmd(LCD_CMD_BSTRON);
 1201              		.loc 1 85 0
 1202 04c0 0320     		mov	r0, #3
 1203 04c2 FFF7FEFF 		bl	lcdWrcmd
  86:lcd.c         **** 	osSleep(1);
 1204              		.loc 1 86 0
 1205 04c6 0120     		mov	r0, #1
 1206 04c8 FFF7FEFF 		bl	osSleep
  88:lcd.c         **** 	lcdWrcmd(LCD_CMD_MADCTL);   //Memory data acces control
 1207              		.loc 1 88 0
 1208 04cc 3620     		mov	r0, #54
 1209 04ce FFF7FEFF 		bl	lcdWrcmd
  89:lcd.c         **** 	lcdWrdata(MADCTL_HORIZ);    //X Mirror and BGR format
 1210              		.loc 1 89 0
 1211 04d2 4820     		mov	r0, #72
 1212 04d4 FFF7FEFF 		bl	lcdWrdata
  90:lcd.c         **** 	lcdWrcmd(LCD_CMD_COLMOD);   //Colour mode
 1213              		.loc 1 90 0
 1214 04d8 3A20     		mov	r0, #58
 1215 04da FFF7FEFF 		bl	lcdWrcmd
  91:lcd.c         **** 	lcdWrdata(0x02);            //256 colour mode select
 1216              		.loc 1 91 0
 1217 04de 0220     		mov	r0, #2
 1218 04e0 FFF7FEFF 		bl	lcdWrdata
  92:lcd.c         **** 	lcdWrcmd(LCD_CMD_INVON);    //Non Invert mode
 1219              		.loc 1 92 0
ARM GAS  C:\Users\KOZLOV~1\AppData\Local\Temp\cctyslCN.s 			page 36


 1220 04e4 2120     		mov	r0, #33
 1221 04e6 FFF7FEFF 		bl	lcdWrcmd
  94:lcd.c         **** 	lcdWrcmd(LCD_CMD_RGBSET);   //LUT write
 1222              		.loc 1 94 0
 1223 04ea 2D20     		mov	r0, #45
 1224 04ec FFF7FEFF 		bl	lcdWrcmd
  95:lcd.c         ****   lcdWrdata(0);               //Red
 1225              		.loc 1 95 0
 1226 04f0 201C     		mov	r0, r4
 1227 04f2 FFF7FEFF 		bl	lcdWrdata
  96:lcd.c         ****   lcdWrdata(2);
 1228              		.loc 1 96 0
 1229 04f6 0220     		mov	r0, #2
 1230 04f8 FFF7FEFF 		bl	lcdWrdata
  97:lcd.c         ****   lcdWrdata(4);
 1231              		.loc 1 97 0
 1232 04fc 0420     		mov	r0, #4
 1233 04fe FFF7FEFF 		bl	lcdWrdata
  98:lcd.c         ****   lcdWrdata(6);
 1234              		.loc 1 98 0
 1235 0502 0620     		mov	r0, #6
 1236 0504 FFF7FEFF 		bl	lcdWrdata
  99:lcd.c         ****   lcdWrdata(9);
 1237              		.loc 1 99 0
 1238 0508 0920     		mov	r0, #9
 1239 050a FFF7FEFF 		bl	lcdWrdata
 100:lcd.c         ****   lcdWrdata(11);
 1240              		.loc 1 100 0
 1241 050e 0B20     		mov	r0, #11
 1242 0510 FFF7FEFF 		bl	lcdWrdata
 101:lcd.c         ****   lcdWrdata(13);
 1243              		.loc 1 101 0
 1244 0514 0D20     		mov	r0, #13
 1245 0516 FFF7FEFF 		bl	lcdWrdata
 102:lcd.c         ****   lcdWrdata(15);
 1246              		.loc 1 102 0
 1247 051a 0F20     		mov	r0, #15
 1248 051c FFF7FEFF 		bl	lcdWrdata
 103:lcd.c         ****   lcdWrdata(0);               //Green
 1249              		.loc 1 103 0
 1250 0520 201C     		mov	r0, r4
 1251 0522 FFF7FEFF 		bl	lcdWrdata
 104:lcd.c         ****   lcdWrdata(2);
 1252              		.loc 1 104 0
 1253 0526 0220     		mov	r0, #2
 1254 0528 FFF7FEFF 		bl	lcdWrdata
 105:lcd.c         ****   lcdWrdata(4);
 1255              		.loc 1 105 0
 1256 052c 0420     		mov	r0, #4
 1257 052e FFF7FEFF 		bl	lcdWrdata
 106:lcd.c         ****   lcdWrdata(6);
 1258              		.loc 1 106 0
 1259 0532 0620     		mov	r0, #6
 1260 0534 FFF7FEFF 		bl	lcdWrdata
 107:lcd.c         ****   lcdWrdata(9);
 1261              		.loc 1 107 0
 1262 0538 0920     		mov	r0, #9
ARM GAS  C:\Users\KOZLOV~1\AppData\Local\Temp\cctyslCN.s 			page 37


 1263 053a FFF7FEFF 		bl	lcdWrdata
 108:lcd.c         ****   lcdWrdata(11);
 1264              		.loc 1 108 0
 1265 053e 0B20     		mov	r0, #11
 1266 0540 FFF7FEFF 		bl	lcdWrdata
 109:lcd.c         ****   lcdWrdata(13);
 1267              		.loc 1 109 0
 1268 0544 0D20     		mov	r0, #13
 1269 0546 FFF7FEFF 		bl	lcdWrdata
 110:lcd.c         ****   lcdWrdata(15);
 1270              		.loc 1 110 0
 1271 054a 0F20     		mov	r0, #15
 1272 054c FFF7FEFF 		bl	lcdWrdata
 111:lcd.c         ****   lcdWrdata(0);               //Blue
 1273              		.loc 1 111 0
 1274 0550 201C     		mov	r0, r4
 1275 0552 FFF7FEFF 		bl	lcdWrdata
 112:lcd.c         ****   lcdWrdata(6);
 1276              		.loc 1 112 0
 1277 0556 0620     		mov	r0, #6
 1278 0558 FFF7FEFF 		bl	lcdWrdata
 113:lcd.c         **** 	lcdWrdata(10);
 1279              		.loc 1 113 0
 1280 055c 0A20     		mov	r0, #10
 1281 055e FFF7FEFF 		bl	lcdWrdata
 114:lcd.c         **** 	lcdWrdata(15);
 1282              		.loc 1 114 0
 1283 0562 0F20     		mov	r0, #15
 1284 0564 FFF7FEFF 		bl	lcdWrdata
 117:lcd.c         ****   selectLCD(FALSE);
 1285              		.loc 1 117 0
 1286 0568 201C     		mov	r0, r4
 1287 056a FFF7FEFF 		bl	selectLCD
 119:lcd.c         **** 	lcdContrast(56);
 1288              		.loc 1 119 0
 1289 056e 3820     		mov	r0, #56
 1290 0570 FFF7FEFF 		bl	lcdContrast
 122:lcd.c         **** }
 1291              		.loc 1 122 0
 1292              		@ sp needed for prologue
 121:lcd.c         **** 	lcdClrscr();
 1293              		.loc 1 121 0
 1294 0574 FFF7FEFF 		bl	lcdClrscr
 122:lcd.c         **** }
 1295              		.loc 1 122 0
 1296 0578 10BC     		pop	{r4}
 1297 057a 01BC     		pop	{r0}
 1298 057c 0047     		bx	r0
 1299              	.L74:
 1300 057e C046     		.align	2
 1301              	.L73:
 1302 0580 00000000 		.word	.LANCHOR0
 1303              		.cfi_endproc
 1304              	.LFE0:
 1305              		.size	lcdInit, .-lcdInit
 1306              		.global	charMap
 1307              		.section	.rodata
ARM GAS  C:\Users\KOZLOV~1\AppData\Local\Temp\cctyslCN.s 			page 38


 1308              		.set	.LANCHOR1,. + 0
 1309              		.type	charMap, %object
 1310              		.size	charMap, 1372
 1311              	charMap:
 1312 0000 00       		.byte	0
 1313 0001 00       		.byte	0
 1314 0002 00       		.byte	0
 1315 0003 80       		.byte	-128
 1316 0004 C0       		.byte	-64
 1317 0005 E0       		.byte	-32
 1318 0006 F8       		.byte	-8
 1319 0007 FE       		.byte	-2
 1320 0008 F8       		.byte	-8
 1321 0009 E0       		.byte	-32
 1322 000a C0       		.byte	-64
 1323 000b 80       		.byte	-128
 1324 000c 00       		.byte	0
 1325 000d 00       		.byte	0
 1326 000e 00       		.byte	0
 1327 000f 00       		.byte	0
 1328 0010 00       		.byte	0
 1329 0011 02       		.byte	2
 1330 0012 06       		.byte	6
 1331 0013 0E       		.byte	14
 1332 0014 3E       		.byte	62
 1333 0015 FE       		.byte	-2
 1334 0016 3E       		.byte	62
 1335 0017 0E       		.byte	14
 1336 0018 06       		.byte	6
 1337 0019 02       		.byte	2
 1338 001a 00       		.byte	0
 1339 001b 00       		.byte	0
 1340 001c 00       		.byte	0
 1341 001d 00       		.byte	0
 1342 001e 00       		.byte	0
 1343 001f 00       		.byte	0
 1344 0020 00       		.byte	0
 1345 0021 00       		.byte	0
 1346 0022 00       		.byte	0
 1347 0023 00       		.byte	0
 1348 0024 00       		.byte	0
 1349 0025 00       		.byte	0
 1350 0026 00       		.byte	0
 1351 0027 00       		.byte	0
 1352 0028 00       		.byte	0
 1353 0029 00       		.byte	0
 1354 002a 00       		.byte	0
 1355 002b 00       		.byte	0
 1356 002c 00       		.byte	0
 1357 002d 18       		.byte	24
 1358 002e 3C       		.byte	60
 1359 002f 3C       		.byte	60
 1360 0030 3C       		.byte	60
 1361 0031 18       		.byte	24
 1362 0032 18       		.byte	24
 1363 0033 00       		.byte	0
 1364 0034 18       		.byte	24
ARM GAS  C:\Users\KOZLOV~1\AppData\Local\Temp\cctyslCN.s 			page 39


 1365 0035 18       		.byte	24
 1366 0036 00       		.byte	0
 1367 0037 00       		.byte	0
 1368 0038 00       		.byte	0
 1369 0039 66       		.byte	102
 1370 003a 66       		.byte	102
 1371 003b 66       		.byte	102
 1372 003c 24       		.byte	36
 1373 003d 00       		.byte	0
 1374 003e 00       		.byte	0
 1375 003f 00       		.byte	0
 1376 0040 00       		.byte	0
 1377 0041 00       		.byte	0
 1378 0042 00       		.byte	0
 1379 0043 00       		.byte	0
 1380 0044 00       		.byte	0
 1381 0045 00       		.byte	0
 1382 0046 00       		.byte	0
 1383 0047 00       		.byte	0
 1384 0048 00       		.byte	0
 1385 0049 6C       		.byte	108
 1386 004a 6C       		.byte	108
 1387 004b FE       		.byte	-2
 1388 004c 6C       		.byte	108
 1389 004d 6C       		.byte	108
 1390 004e 6C       		.byte	108
 1391 004f FE       		.byte	-2
 1392 0050 6C       		.byte	108
 1393 0051 6C       		.byte	108
 1394 0052 00       		.byte	0
 1395 0053 00       		.byte	0
 1396 0054 00       		.byte	0
 1397 0055 18       		.byte	24
 1398 0056 18       		.byte	24
 1399 0057 7C       		.byte	124
 1400 0058 C6       		.byte	-58
 1401 0059 C2       		.byte	-62
 1402 005a C0       		.byte	-64
 1403 005b 7C       		.byte	124
 1404 005c 06       		.byte	6
 1405 005d 86       		.byte	-122
 1406 005e C6       		.byte	-58
 1407 005f 7C       		.byte	124
 1408 0060 18       		.byte	24
 1409 0061 18       		.byte	24
 1410 0062 00       		.byte	0
 1411 0063 00       		.byte	0
 1412 0064 00       		.byte	0
 1413 0065 00       		.byte	0
 1414 0066 00       		.byte	0
 1415 0067 C2       		.byte	-62
 1416 0068 C6       		.byte	-58
 1417 0069 0C       		.byte	12
 1418 006a 18       		.byte	24
 1419 006b 30       		.byte	48
 1420 006c 66       		.byte	102
 1421 006d C6       		.byte	-58
ARM GAS  C:\Users\KOZLOV~1\AppData\Local\Temp\cctyslCN.s 			page 40


 1422 006e 00       		.byte	0
 1423 006f 00       		.byte	0
 1424 0070 00       		.byte	0
 1425 0071 00       		.byte	0
 1426 0072 00       		.byte	0
 1427 0073 38       		.byte	56
 1428 0074 6C       		.byte	108
 1429 0075 6C       		.byte	108
 1430 0076 38       		.byte	56
 1431 0077 76       		.byte	118
 1432 0078 DC       		.byte	-36
 1433 0079 CC       		.byte	-52
 1434 007a CC       		.byte	-52
 1435 007b 76       		.byte	118
 1436 007c 00       		.byte	0
 1437 007d 00       		.byte	0
 1438 007e 00       		.byte	0
 1439 007f 18       		.byte	24
 1440 0080 18       		.byte	24
 1441 0081 18       		.byte	24
 1442 0082 30       		.byte	48
 1443 0083 00       		.byte	0
 1444 0084 00       		.byte	0
 1445 0085 00       		.byte	0
 1446 0086 00       		.byte	0
 1447 0087 00       		.byte	0
 1448 0088 00       		.byte	0
 1449 0089 00       		.byte	0
 1450 008a 00       		.byte	0
 1451 008b 00       		.byte	0
 1452 008c 00       		.byte	0
 1453 008d 00       		.byte	0
 1454 008e 00       		.byte	0
 1455 008f 0C       		.byte	12
 1456 0090 18       		.byte	24
 1457 0091 30       		.byte	48
 1458 0092 30       		.byte	48
 1459 0093 30       		.byte	48
 1460 0094 30       		.byte	48
 1461 0095 30       		.byte	48
 1462 0096 18       		.byte	24
 1463 0097 0C       		.byte	12
 1464 0098 00       		.byte	0
 1465 0099 00       		.byte	0
 1466 009a 00       		.byte	0
 1467 009b 00       		.byte	0
 1468 009c 00       		.byte	0
 1469 009d 30       		.byte	48
 1470 009e 18       		.byte	24
 1471 009f 0C       		.byte	12
 1472 00a0 0C       		.byte	12
 1473 00a1 0C       		.byte	12
 1474 00a2 0C       		.byte	12
 1475 00a3 0C       		.byte	12
 1476 00a4 18       		.byte	24
 1477 00a5 30       		.byte	48
 1478 00a6 00       		.byte	0
ARM GAS  C:\Users\KOZLOV~1\AppData\Local\Temp\cctyslCN.s 			page 41


 1479 00a7 00       		.byte	0
 1480 00a8 00       		.byte	0
 1481 00a9 00       		.byte	0
 1482 00aa 00       		.byte	0
 1483 00ab 00       		.byte	0
 1484 00ac 00       		.byte	0
 1485 00ad 66       		.byte	102
 1486 00ae 3C       		.byte	60
 1487 00af FF       		.byte	-1
 1488 00b0 3C       		.byte	60
 1489 00b1 66       		.byte	102
 1490 00b2 00       		.byte	0
 1491 00b3 00       		.byte	0
 1492 00b4 00       		.byte	0
 1493 00b5 00       		.byte	0
 1494 00b6 00       		.byte	0
 1495 00b7 00       		.byte	0
 1496 00b8 00       		.byte	0
 1497 00b9 00       		.byte	0
 1498 00ba 00       		.byte	0
 1499 00bb 18       		.byte	24
 1500 00bc 18       		.byte	24
 1501 00bd 7E       		.byte	126
 1502 00be 18       		.byte	24
 1503 00bf 18       		.byte	24
 1504 00c0 00       		.byte	0
 1505 00c1 00       		.byte	0
 1506 00c2 00       		.byte	0
 1507 00c3 00       		.byte	0
 1508 00c4 00       		.byte	0
 1509 00c5 00       		.byte	0
 1510 00c6 00       		.byte	0
 1511 00c7 00       		.byte	0
 1512 00c8 00       		.byte	0
 1513 00c9 00       		.byte	0
 1514 00ca 00       		.byte	0
 1515 00cb 00       		.byte	0
 1516 00cc 00       		.byte	0
 1517 00cd 18       		.byte	24
 1518 00ce 18       		.byte	24
 1519 00cf 18       		.byte	24
 1520 00d0 30       		.byte	48
 1521 00d1 00       		.byte	0
 1522 00d2 00       		.byte	0
 1523 00d3 00       		.byte	0
 1524 00d4 00       		.byte	0
 1525 00d5 00       		.byte	0
 1526 00d6 00       		.byte	0
 1527 00d7 00       		.byte	0
 1528 00d8 00       		.byte	0
 1529 00d9 FE       		.byte	-2
 1530 00da 00       		.byte	0
 1531 00db 00       		.byte	0
 1532 00dc 00       		.byte	0
 1533 00dd 00       		.byte	0
 1534 00de 00       		.byte	0
 1535 00df 00       		.byte	0
ARM GAS  C:\Users\KOZLOV~1\AppData\Local\Temp\cctyslCN.s 			page 42


 1536 00e0 00       		.byte	0
 1537 00e1 00       		.byte	0
 1538 00e2 00       		.byte	0
 1539 00e3 00       		.byte	0
 1540 00e4 00       		.byte	0
 1541 00e5 00       		.byte	0
 1542 00e6 00       		.byte	0
 1543 00e7 00       		.byte	0
 1544 00e8 00       		.byte	0
 1545 00e9 00       		.byte	0
 1546 00ea 18       		.byte	24
 1547 00eb 18       		.byte	24
 1548 00ec 00       		.byte	0
 1549 00ed 00       		.byte	0
 1550 00ee 00       		.byte	0
 1551 00ef 00       		.byte	0
 1552 00f0 00       		.byte	0
 1553 00f1 02       		.byte	2
 1554 00f2 06       		.byte	6
 1555 00f3 0C       		.byte	12
 1556 00f4 18       		.byte	24
 1557 00f5 30       		.byte	48
 1558 00f6 60       		.byte	96
 1559 00f7 C0       		.byte	-64
 1560 00f8 80       		.byte	-128
 1561 00f9 00       		.byte	0
 1562 00fa 00       		.byte	0
 1563 00fb 00       		.byte	0
 1564 00fc 00       		.byte	0
 1565 00fd 00       		.byte	0
 1566 00fe 00       		.byte	0
 1567 00ff 38       		.byte	56
 1568 0100 6C       		.byte	108
 1569 0101 C6       		.byte	-58
 1570 0102 C6       		.byte	-58
 1571 0103 D6       		.byte	-42
 1572 0104 C6       		.byte	-58
 1573 0105 C6       		.byte	-58
 1574 0106 6C       		.byte	108
 1575 0107 38       		.byte	56
 1576 0108 00       		.byte	0
 1577 0109 00       		.byte	0
 1578 010a 00       		.byte	0
 1579 010b 00       		.byte	0
 1580 010c 00       		.byte	0
 1581 010d 18       		.byte	24
 1582 010e 38       		.byte	56
 1583 010f 78       		.byte	120
 1584 0110 18       		.byte	24
 1585 0111 18       		.byte	24
 1586 0112 18       		.byte	24
 1587 0113 18       		.byte	24
 1588 0114 18       		.byte	24
 1589 0115 7E       		.byte	126
 1590 0116 00       		.byte	0
 1591 0117 00       		.byte	0
 1592 0118 00       		.byte	0
ARM GAS  C:\Users\KOZLOV~1\AppData\Local\Temp\cctyslCN.s 			page 43


 1593 0119 00       		.byte	0
 1594 011a 00       		.byte	0
 1595 011b 7C       		.byte	124
 1596 011c C6       		.byte	-58
 1597 011d 06       		.byte	6
 1598 011e 0C       		.byte	12
 1599 011f 18       		.byte	24
 1600 0120 30       		.byte	48
 1601 0121 60       		.byte	96
 1602 0122 C6       		.byte	-58
 1603 0123 FE       		.byte	-2
 1604 0124 00       		.byte	0
 1605 0125 00       		.byte	0
 1606 0126 00       		.byte	0
 1607 0127 00       		.byte	0
 1608 0128 00       		.byte	0
 1609 0129 7C       		.byte	124
 1610 012a C6       		.byte	-58
 1611 012b 06       		.byte	6
 1612 012c 06       		.byte	6
 1613 012d 3C       		.byte	60
 1614 012e 06       		.byte	6
 1615 012f 06       		.byte	6
 1616 0130 C6       		.byte	-58
 1617 0131 7C       		.byte	124
 1618 0132 00       		.byte	0
 1619 0133 00       		.byte	0
 1620 0134 00       		.byte	0
 1621 0135 00       		.byte	0
 1622 0136 00       		.byte	0
 1623 0137 0C       		.byte	12
 1624 0138 1C       		.byte	28
 1625 0139 3C       		.byte	60
 1626 013a 6C       		.byte	108
 1627 013b CC       		.byte	-52
 1628 013c FE       		.byte	-2
 1629 013d 0C       		.byte	12
 1630 013e 0C       		.byte	12
 1631 013f 1E       		.byte	30
 1632 0140 00       		.byte	0
 1633 0141 00       		.byte	0
 1634 0142 00       		.byte	0
 1635 0143 00       		.byte	0
 1636 0144 00       		.byte	0
 1637 0145 FE       		.byte	-2
 1638 0146 C0       		.byte	-64
 1639 0147 C0       		.byte	-64
 1640 0148 C0       		.byte	-64
 1641 0149 FC       		.byte	-4
 1642 014a 06       		.byte	6
 1643 014b 06       		.byte	6
 1644 014c C6       		.byte	-58
 1645 014d 7C       		.byte	124
 1646 014e 00       		.byte	0
 1647 014f 00       		.byte	0
 1648 0150 00       		.byte	0
 1649 0151 00       		.byte	0
ARM GAS  C:\Users\KOZLOV~1\AppData\Local\Temp\cctyslCN.s 			page 44


 1650 0152 00       		.byte	0
 1651 0153 38       		.byte	56
 1652 0154 60       		.byte	96
 1653 0155 C0       		.byte	-64
 1654 0156 C0       		.byte	-64
 1655 0157 FC       		.byte	-4
 1656 0158 C6       		.byte	-58
 1657 0159 C6       		.byte	-58
 1658 015a C6       		.byte	-58
 1659 015b 7C       		.byte	124
 1660 015c 00       		.byte	0
 1661 015d 00       		.byte	0
 1662 015e 00       		.byte	0
 1663 015f 00       		.byte	0
 1664 0160 00       		.byte	0
 1665 0161 FE       		.byte	-2
 1666 0162 C6       		.byte	-58
 1667 0163 06       		.byte	6
 1668 0164 0C       		.byte	12
 1669 0165 18       		.byte	24
 1670 0166 30       		.byte	48
 1671 0167 30       		.byte	48
 1672 0168 30       		.byte	48
 1673 0169 30       		.byte	48
 1674 016a 00       		.byte	0
 1675 016b 00       		.byte	0
 1676 016c 00       		.byte	0
 1677 016d 00       		.byte	0
 1678 016e 00       		.byte	0
 1679 016f 7C       		.byte	124
 1680 0170 C6       		.byte	-58
 1681 0171 C6       		.byte	-58
 1682 0172 C6       		.byte	-58
 1683 0173 7C       		.byte	124
 1684 0174 C6       		.byte	-58
 1685 0175 C6       		.byte	-58
 1686 0176 C6       		.byte	-58
 1687 0177 7C       		.byte	124
 1688 0178 00       		.byte	0
 1689 0179 00       		.byte	0
 1690 017a 00       		.byte	0
 1691 017b 00       		.byte	0
 1692 017c 00       		.byte	0
 1693 017d 7C       		.byte	124
 1694 017e C6       		.byte	-58
 1695 017f C6       		.byte	-58
 1696 0180 C6       		.byte	-58
 1697 0181 7E       		.byte	126
 1698 0182 06       		.byte	6
 1699 0183 06       		.byte	6
 1700 0184 0C       		.byte	12
 1701 0185 78       		.byte	120
 1702 0186 00       		.byte	0
 1703 0187 00       		.byte	0
 1704 0188 00       		.byte	0
 1705 0189 00       		.byte	0
 1706 018a 00       		.byte	0
ARM GAS  C:\Users\KOZLOV~1\AppData\Local\Temp\cctyslCN.s 			page 45


 1707 018b 00       		.byte	0
 1708 018c 18       		.byte	24
 1709 018d 18       		.byte	24
 1710 018e 00       		.byte	0
 1711 018f 00       		.byte	0
 1712 0190 00       		.byte	0
 1713 0191 18       		.byte	24
 1714 0192 18       		.byte	24
 1715 0193 00       		.byte	0
 1716 0194 00       		.byte	0
 1717 0195 00       		.byte	0
 1718 0196 00       		.byte	0
 1719 0197 00       		.byte	0
 1720 0198 00       		.byte	0
 1721 0199 00       		.byte	0
 1722 019a 18       		.byte	24
 1723 019b 18       		.byte	24
 1724 019c 00       		.byte	0
 1725 019d 00       		.byte	0
 1726 019e 00       		.byte	0
 1727 019f 18       		.byte	24
 1728 01a0 18       		.byte	24
 1729 01a1 30       		.byte	48
 1730 01a2 00       		.byte	0
 1731 01a3 00       		.byte	0
 1732 01a4 00       		.byte	0
 1733 01a5 00       		.byte	0
 1734 01a6 00       		.byte	0
 1735 01a7 0C       		.byte	12
 1736 01a8 18       		.byte	24
 1737 01a9 30       		.byte	48
 1738 01aa 60       		.byte	96
 1739 01ab C0       		.byte	-64
 1740 01ac 60       		.byte	96
 1741 01ad 30       		.byte	48
 1742 01ae 18       		.byte	24
 1743 01af 0C       		.byte	12
 1744 01b0 00       		.byte	0
 1745 01b1 00       		.byte	0
 1746 01b2 00       		.byte	0
 1747 01b3 00       		.byte	0
 1748 01b4 00       		.byte	0
 1749 01b5 00       		.byte	0
 1750 01b6 00       		.byte	0
 1751 01b7 00       		.byte	0
 1752 01b8 7E       		.byte	126
 1753 01b9 00       		.byte	0
 1754 01ba 00       		.byte	0
 1755 01bb 7E       		.byte	126
 1756 01bc 00       		.byte	0
 1757 01bd 00       		.byte	0
 1758 01be 00       		.byte	0
 1759 01bf 00       		.byte	0
 1760 01c0 00       		.byte	0
 1761 01c1 00       		.byte	0
 1762 01c2 00       		.byte	0
 1763 01c3 60       		.byte	96
ARM GAS  C:\Users\KOZLOV~1\AppData\Local\Temp\cctyslCN.s 			page 46


 1764 01c4 30       		.byte	48
 1765 01c5 18       		.byte	24
 1766 01c6 0C       		.byte	12
 1767 01c7 06       		.byte	6
 1768 01c8 0C       		.byte	12
 1769 01c9 18       		.byte	24
 1770 01ca 30       		.byte	48
 1771 01cb 60       		.byte	96
 1772 01cc 00       		.byte	0
 1773 01cd 00       		.byte	0
 1774 01ce 00       		.byte	0
 1775 01cf 00       		.byte	0
 1776 01d0 00       		.byte	0
 1777 01d1 7C       		.byte	124
 1778 01d2 C6       		.byte	-58
 1779 01d3 C6       		.byte	-58
 1780 01d4 0C       		.byte	12
 1781 01d5 18       		.byte	24
 1782 01d6 18       		.byte	24
 1783 01d7 00       		.byte	0
 1784 01d8 18       		.byte	24
 1785 01d9 18       		.byte	24
 1786 01da 00       		.byte	0
 1787 01db 00       		.byte	0
 1788 01dc 00       		.byte	0
 1789 01dd 00       		.byte	0
 1790 01de 00       		.byte	0
 1791 01df 7C       		.byte	124
 1792 01e0 C6       		.byte	-58
 1793 01e1 C6       		.byte	-58
 1794 01e2 DE       		.byte	-34
 1795 01e3 DE       		.byte	-34
 1796 01e4 DE       		.byte	-34
 1797 01e5 DC       		.byte	-36
 1798 01e6 C0       		.byte	-64
 1799 01e7 7C       		.byte	124
 1800 01e8 00       		.byte	0
 1801 01e9 00       		.byte	0
 1802 01ea 00       		.byte	0
 1803 01eb 00       		.byte	0
 1804 01ec 00       		.byte	0
 1805 01ed 10       		.byte	16
 1806 01ee 38       		.byte	56
 1807 01ef 6C       		.byte	108
 1808 01f0 C6       		.byte	-58
 1809 01f1 C6       		.byte	-58
 1810 01f2 FE       		.byte	-2
 1811 01f3 C6       		.byte	-58
 1812 01f4 C6       		.byte	-58
 1813 01f5 C6       		.byte	-58
 1814 01f6 00       		.byte	0
 1815 01f7 00       		.byte	0
 1816 01f8 00       		.byte	0
 1817 01f9 00       		.byte	0
 1818 01fa 00       		.byte	0
 1819 01fb FC       		.byte	-4
 1820 01fc 66       		.byte	102
ARM GAS  C:\Users\KOZLOV~1\AppData\Local\Temp\cctyslCN.s 			page 47


 1821 01fd 66       		.byte	102
 1822 01fe 66       		.byte	102
 1823 01ff 7C       		.byte	124
 1824 0200 66       		.byte	102
 1825 0201 66       		.byte	102
 1826 0202 66       		.byte	102
 1827 0203 FC       		.byte	-4
 1828 0204 00       		.byte	0
 1829 0205 00       		.byte	0
 1830 0206 00       		.byte	0
 1831 0207 00       		.byte	0
 1832 0208 00       		.byte	0
 1833 0209 3C       		.byte	60
 1834 020a 66       		.byte	102
 1835 020b C2       		.byte	-62
 1836 020c C0       		.byte	-64
 1837 020d C0       		.byte	-64
 1838 020e C0       		.byte	-64
 1839 020f C2       		.byte	-62
 1840 0210 66       		.byte	102
 1841 0211 3C       		.byte	60
 1842 0212 00       		.byte	0
 1843 0213 00       		.byte	0
 1844 0214 00       		.byte	0
 1845 0215 00       		.byte	0
 1846 0216 00       		.byte	0
 1847 0217 F8       		.byte	-8
 1848 0218 6C       		.byte	108
 1849 0219 66       		.byte	102
 1850 021a 66       		.byte	102
 1851 021b 66       		.byte	102
 1852 021c 66       		.byte	102
 1853 021d 66       		.byte	102
 1854 021e 6C       		.byte	108
 1855 021f F8       		.byte	-8
 1856 0220 00       		.byte	0
 1857 0221 00       		.byte	0
 1858 0222 00       		.byte	0
 1859 0223 00       		.byte	0
 1860 0224 00       		.byte	0
 1861 0225 FE       		.byte	-2
 1862 0226 66       		.byte	102
 1863 0227 62       		.byte	98
 1864 0228 68       		.byte	104
 1865 0229 78       		.byte	120
 1866 022a 68       		.byte	104
 1867 022b 62       		.byte	98
 1868 022c 66       		.byte	102
 1869 022d FE       		.byte	-2
 1870 022e 00       		.byte	0
 1871 022f 00       		.byte	0
 1872 0230 00       		.byte	0
 1873 0231 00       		.byte	0
 1874 0232 00       		.byte	0
 1875 0233 FE       		.byte	-2
 1876 0234 66       		.byte	102
 1877 0235 62       		.byte	98
ARM GAS  C:\Users\KOZLOV~1\AppData\Local\Temp\cctyslCN.s 			page 48


 1878 0236 68       		.byte	104
 1879 0237 78       		.byte	120
 1880 0238 68       		.byte	104
 1881 0239 60       		.byte	96
 1882 023a 60       		.byte	96
 1883 023b F0       		.byte	-16
 1884 023c 00       		.byte	0
 1885 023d 00       		.byte	0
 1886 023e 00       		.byte	0
 1887 023f 00       		.byte	0
 1888 0240 00       		.byte	0
 1889 0241 3C       		.byte	60
 1890 0242 66       		.byte	102
 1891 0243 C2       		.byte	-62
 1892 0244 C0       		.byte	-64
 1893 0245 C0       		.byte	-64
 1894 0246 DE       		.byte	-34
 1895 0247 C6       		.byte	-58
 1896 0248 66       		.byte	102
 1897 0249 3A       		.byte	58
 1898 024a 00       		.byte	0
 1899 024b 00       		.byte	0
 1900 024c 00       		.byte	0
 1901 024d 00       		.byte	0
 1902 024e 00       		.byte	0
 1903 024f C6       		.byte	-58
 1904 0250 C6       		.byte	-58
 1905 0251 C6       		.byte	-58
 1906 0252 C6       		.byte	-58
 1907 0253 FE       		.byte	-2
 1908 0254 C6       		.byte	-58
 1909 0255 C6       		.byte	-58
 1910 0256 C6       		.byte	-58
 1911 0257 C6       		.byte	-58
 1912 0258 00       		.byte	0
 1913 0259 00       		.byte	0
 1914 025a 00       		.byte	0
 1915 025b 00       		.byte	0
 1916 025c 00       		.byte	0
 1917 025d 3C       		.byte	60
 1918 025e 18       		.byte	24
 1919 025f 18       		.byte	24
 1920 0260 18       		.byte	24
 1921 0261 18       		.byte	24
 1922 0262 18       		.byte	24
 1923 0263 18       		.byte	24
 1924 0264 18       		.byte	24
 1925 0265 3C       		.byte	60
 1926 0266 00       		.byte	0
 1927 0267 00       		.byte	0
 1928 0268 00       		.byte	0
 1929 0269 00       		.byte	0
 1930 026a 00       		.byte	0
 1931 026b 1E       		.byte	30
 1932 026c 0C       		.byte	12
 1933 026d 0C       		.byte	12
 1934 026e 0C       		.byte	12
ARM GAS  C:\Users\KOZLOV~1\AppData\Local\Temp\cctyslCN.s 			page 49


 1935 026f 0C       		.byte	12
 1936 0270 0C       		.byte	12
 1937 0271 CC       		.byte	-52
 1938 0272 CC       		.byte	-52
 1939 0273 78       		.byte	120
 1940 0274 00       		.byte	0
 1941 0275 00       		.byte	0
 1942 0276 00       		.byte	0
 1943 0277 00       		.byte	0
 1944 0278 00       		.byte	0
 1945 0279 E6       		.byte	-26
 1946 027a 66       		.byte	102
 1947 027b 6C       		.byte	108
 1948 027c 6C       		.byte	108
 1949 027d 78       		.byte	120
 1950 027e 6C       		.byte	108
 1951 027f 6C       		.byte	108
 1952 0280 66       		.byte	102
 1953 0281 E6       		.byte	-26
 1954 0282 00       		.byte	0
 1955 0283 00       		.byte	0
 1956 0284 00       		.byte	0
 1957 0285 00       		.byte	0
 1958 0286 00       		.byte	0
 1959 0287 F0       		.byte	-16
 1960 0288 60       		.byte	96
 1961 0289 60       		.byte	96
 1962 028a 60       		.byte	96
 1963 028b 60       		.byte	96
 1964 028c 60       		.byte	96
 1965 028d 62       		.byte	98
 1966 028e 66       		.byte	102
 1967 028f FE       		.byte	-2
 1968 0290 00       		.byte	0
 1969 0291 00       		.byte	0
 1970 0292 00       		.byte	0
 1971 0293 00       		.byte	0
 1972 0294 00       		.byte	0
 1973 0295 C6       		.byte	-58
 1974 0296 EE       		.byte	-18
 1975 0297 FE       		.byte	-2
 1976 0298 D6       		.byte	-42
 1977 0299 C6       		.byte	-58
 1978 029a C6       		.byte	-58
 1979 029b C6       		.byte	-58
 1980 029c C6       		.byte	-58
 1981 029d C6       		.byte	-58
 1982 029e 00       		.byte	0
 1983 029f 00       		.byte	0
 1984 02a0 00       		.byte	0
 1985 02a1 00       		.byte	0
 1986 02a2 00       		.byte	0
 1987 02a3 C6       		.byte	-58
 1988 02a4 E6       		.byte	-26
 1989 02a5 F6       		.byte	-10
 1990 02a6 FE       		.byte	-2
 1991 02a7 DE       		.byte	-34
ARM GAS  C:\Users\KOZLOV~1\AppData\Local\Temp\cctyslCN.s 			page 50


 1992 02a8 CE       		.byte	-50
 1993 02a9 C6       		.byte	-58
 1994 02aa C6       		.byte	-58
 1995 02ab C6       		.byte	-58
 1996 02ac 00       		.byte	0
 1997 02ad 00       		.byte	0
 1998 02ae 00       		.byte	0
 1999 02af 00       		.byte	0
 2000 02b0 00       		.byte	0
 2001 02b1 7C       		.byte	124
 2002 02b2 C6       		.byte	-58
 2003 02b3 C6       		.byte	-58
 2004 02b4 C6       		.byte	-58
 2005 02b5 C6       		.byte	-58
 2006 02b6 C6       		.byte	-58
 2007 02b7 C6       		.byte	-58
 2008 02b8 C6       		.byte	-58
 2009 02b9 7C       		.byte	124
 2010 02ba 00       		.byte	0
 2011 02bb 00       		.byte	0
 2012 02bc 00       		.byte	0
 2013 02bd 00       		.byte	0
 2014 02be 00       		.byte	0
 2015 02bf FC       		.byte	-4
 2016 02c0 66       		.byte	102
 2017 02c1 66       		.byte	102
 2018 02c2 66       		.byte	102
 2019 02c3 7C       		.byte	124
 2020 02c4 60       		.byte	96
 2021 02c5 60       		.byte	96
 2022 02c6 60       		.byte	96
 2023 02c7 F0       		.byte	-16
 2024 02c8 00       		.byte	0
 2025 02c9 00       		.byte	0
 2026 02ca 00       		.byte	0
 2027 02cb 00       		.byte	0
 2028 02cc 00       		.byte	0
 2029 02cd 7C       		.byte	124
 2030 02ce C6       		.byte	-58
 2031 02cf C6       		.byte	-58
 2032 02d0 C6       		.byte	-58
 2033 02d1 C6       		.byte	-58
 2034 02d2 C6       		.byte	-58
 2035 02d3 D6       		.byte	-42
 2036 02d4 DE       		.byte	-34
 2037 02d5 7C       		.byte	124
 2038 02d6 0E       		.byte	14
 2039 02d7 00       		.byte	0
 2040 02d8 00       		.byte	0
 2041 02d9 00       		.byte	0
 2042 02da 00       		.byte	0
 2043 02db FC       		.byte	-4
 2044 02dc 66       		.byte	102
 2045 02dd 66       		.byte	102
 2046 02de 66       		.byte	102
 2047 02df 7C       		.byte	124
 2048 02e0 6C       		.byte	108
ARM GAS  C:\Users\KOZLOV~1\AppData\Local\Temp\cctyslCN.s 			page 51


 2049 02e1 66       		.byte	102
 2050 02e2 66       		.byte	102
 2051 02e3 E6       		.byte	-26
 2052 02e4 00       		.byte	0
 2053 02e5 00       		.byte	0
 2054 02e6 00       		.byte	0
 2055 02e7 00       		.byte	0
 2056 02e8 00       		.byte	0
 2057 02e9 7C       		.byte	124
 2058 02ea C6       		.byte	-58
 2059 02eb C6       		.byte	-58
 2060 02ec 60       		.byte	96
 2061 02ed 38       		.byte	56
 2062 02ee 0C       		.byte	12
 2063 02ef C6       		.byte	-58
 2064 02f0 C6       		.byte	-58
 2065 02f1 7C       		.byte	124
 2066 02f2 00       		.byte	0
 2067 02f3 00       		.byte	0
 2068 02f4 00       		.byte	0
 2069 02f5 00       		.byte	0
 2070 02f6 00       		.byte	0
 2071 02f7 7E       		.byte	126
 2072 02f8 7E       		.byte	126
 2073 02f9 5A       		.byte	90
 2074 02fa 18       		.byte	24
 2075 02fb 18       		.byte	24
 2076 02fc 18       		.byte	24
 2077 02fd 18       		.byte	24
 2078 02fe 18       		.byte	24
 2079 02ff 3C       		.byte	60
 2080 0300 00       		.byte	0
 2081 0301 00       		.byte	0
 2082 0302 00       		.byte	0
 2083 0303 00       		.byte	0
 2084 0304 00       		.byte	0
 2085 0305 C6       		.byte	-58
 2086 0306 C6       		.byte	-58
 2087 0307 C6       		.byte	-58
 2088 0308 C6       		.byte	-58
 2089 0309 C6       		.byte	-58
 2090 030a C6       		.byte	-58
 2091 030b C6       		.byte	-58
 2092 030c C6       		.byte	-58
 2093 030d 7C       		.byte	124
 2094 030e 00       		.byte	0
 2095 030f 00       		.byte	0
 2096 0310 00       		.byte	0
 2097 0311 00       		.byte	0
 2098 0312 00       		.byte	0
 2099 0313 C6       		.byte	-58
 2100 0314 C6       		.byte	-58
 2101 0315 C6       		.byte	-58
 2102 0316 C6       		.byte	-58
 2103 0317 C6       		.byte	-58
 2104 0318 C6       		.byte	-58
 2105 0319 6C       		.byte	108
ARM GAS  C:\Users\KOZLOV~1\AppData\Local\Temp\cctyslCN.s 			page 52


 2106 031a 38       		.byte	56
 2107 031b 10       		.byte	16
 2108 031c 00       		.byte	0
 2109 031d 00       		.byte	0
 2110 031e 00       		.byte	0
 2111 031f 00       		.byte	0
 2112 0320 00       		.byte	0
 2113 0321 C6       		.byte	-58
 2114 0322 C6       		.byte	-58
 2115 0323 C6       		.byte	-58
 2116 0324 C6       		.byte	-58
 2117 0325 D6       		.byte	-42
 2118 0326 D6       		.byte	-42
 2119 0327 FE       		.byte	-2
 2120 0328 6C       		.byte	108
 2121 0329 6C       		.byte	108
 2122 032a 00       		.byte	0
 2123 032b 00       		.byte	0
 2124 032c 00       		.byte	0
 2125 032d 00       		.byte	0
 2126 032e 00       		.byte	0
 2127 032f C6       		.byte	-58
 2128 0330 C6       		.byte	-58
 2129 0331 C6       		.byte	-58
 2130 0332 7C       		.byte	124
 2131 0333 38       		.byte	56
 2132 0334 7C       		.byte	124
 2133 0335 C6       		.byte	-58
 2134 0336 C6       		.byte	-58
 2135 0337 C6       		.byte	-58
 2136 0338 00       		.byte	0
 2137 0339 00       		.byte	0
 2138 033a 00       		.byte	0
 2139 033b 00       		.byte	0
 2140 033c 00       		.byte	0
 2141 033d 66       		.byte	102
 2142 033e 66       		.byte	102
 2143 033f 66       		.byte	102
 2144 0340 66       		.byte	102
 2145 0341 3C       		.byte	60
 2146 0342 18       		.byte	24
 2147 0343 18       		.byte	24
 2148 0344 18       		.byte	24
 2149 0345 3C       		.byte	60
 2150 0346 00       		.byte	0
 2151 0347 00       		.byte	0
 2152 0348 00       		.byte	0
 2153 0349 00       		.byte	0
 2154 034a 00       		.byte	0
 2155 034b FE       		.byte	-2
 2156 034c C6       		.byte	-58
 2157 034d 8C       		.byte	-116
 2158 034e 18       		.byte	24
 2159 034f 30       		.byte	48
 2160 0350 60       		.byte	96
 2161 0351 C2       		.byte	-62
 2162 0352 C6       		.byte	-58
ARM GAS  C:\Users\KOZLOV~1\AppData\Local\Temp\cctyslCN.s 			page 53


 2163 0353 FE       		.byte	-2
 2164 0354 00       		.byte	0
 2165 0355 00       		.byte	0
 2166 0356 00       		.byte	0
 2167 0357 00       		.byte	0
 2168 0358 00       		.byte	0
 2169 0359 3C       		.byte	60
 2170 035a 30       		.byte	48
 2171 035b 30       		.byte	48
 2172 035c 30       		.byte	48
 2173 035d 30       		.byte	48
 2174 035e 30       		.byte	48
 2175 035f 30       		.byte	48
 2176 0360 30       		.byte	48
 2177 0361 3C       		.byte	60
 2178 0362 00       		.byte	0
 2179 0363 00       		.byte	0
 2180 0364 00       		.byte	0
 2181 0365 00       		.byte	0
 2182 0366 00       		.byte	0
 2183 0367 80       		.byte	-128
 2184 0368 C0       		.byte	-64
 2185 0369 E0       		.byte	-32
 2186 036a 70       		.byte	112
 2187 036b 38       		.byte	56
 2188 036c 1C       		.byte	28
 2189 036d 0E       		.byte	14
 2190 036e 06       		.byte	6
 2191 036f 02       		.byte	2
 2192 0370 00       		.byte	0
 2193 0371 00       		.byte	0
 2194 0372 00       		.byte	0
 2195 0373 00       		.byte	0
 2196 0374 00       		.byte	0
 2197 0375 3C       		.byte	60
 2198 0376 0C       		.byte	12
 2199 0377 0C       		.byte	12
 2200 0378 0C       		.byte	12
 2201 0379 0C       		.byte	12
 2202 037a 0C       		.byte	12
 2203 037b 0C       		.byte	12
 2204 037c 0C       		.byte	12
 2205 037d 3C       		.byte	60
 2206 037e 00       		.byte	0
 2207 037f 00       		.byte	0
 2208 0380 10       		.byte	16
 2209 0381 38       		.byte	56
 2210 0382 6C       		.byte	108
 2211 0383 C6       		.byte	-58
 2212 0384 00       		.byte	0
 2213 0385 00       		.byte	0
 2214 0386 00       		.byte	0
 2215 0387 00       		.byte	0
 2216 0388 00       		.byte	0
 2217 0389 00       		.byte	0
 2218 038a 00       		.byte	0
 2219 038b 00       		.byte	0
ARM GAS  C:\Users\KOZLOV~1\AppData\Local\Temp\cctyslCN.s 			page 54


 2220 038c 00       		.byte	0
 2221 038d 00       		.byte	0
 2222 038e 00       		.byte	0
 2223 038f 00       		.byte	0
 2224 0390 00       		.byte	0
 2225 0391 00       		.byte	0
 2226 0392 00       		.byte	0
 2227 0393 00       		.byte	0
 2228 0394 00       		.byte	0
 2229 0395 00       		.byte	0
 2230 0396 00       		.byte	0
 2231 0397 00       		.byte	0
 2232 0398 00       		.byte	0
 2233 0399 00       		.byte	0
 2234 039a 00       		.byte	0
 2235 039b FF       		.byte	-1
 2236 039c 00       		.byte	0
 2237 039d 30       		.byte	48
 2238 039e 18       		.byte	24
 2239 039f 0C       		.byte	12
 2240 03a0 00       		.byte	0
 2241 03a1 00       		.byte	0
 2242 03a2 00       		.byte	0
 2243 03a3 00       		.byte	0
 2244 03a4 00       		.byte	0
 2245 03a5 00       		.byte	0
 2246 03a6 00       		.byte	0
 2247 03a7 00       		.byte	0
 2248 03a8 00       		.byte	0
 2249 03a9 00       		.byte	0
 2250 03aa 00       		.byte	0
 2251 03ab 00       		.byte	0
 2252 03ac 00       		.byte	0
 2253 03ad 00       		.byte	0
 2254 03ae 00       		.byte	0
 2255 03af 00       		.byte	0
 2256 03b0 78       		.byte	120
 2257 03b1 0C       		.byte	12
 2258 03b2 7C       		.byte	124
 2259 03b3 CC       		.byte	-52
 2260 03b4 CC       		.byte	-52
 2261 03b5 76       		.byte	118
 2262 03b6 00       		.byte	0
 2263 03b7 00       		.byte	0
 2264 03b8 00       		.byte	0
 2265 03b9 00       		.byte	0
 2266 03ba 00       		.byte	0
 2267 03bb E0       		.byte	-32
 2268 03bc 60       		.byte	96
 2269 03bd 60       		.byte	96
 2270 03be 78       		.byte	120
 2271 03bf 6C       		.byte	108
 2272 03c0 66       		.byte	102
 2273 03c1 66       		.byte	102
 2274 03c2 66       		.byte	102
 2275 03c3 7C       		.byte	124
 2276 03c4 00       		.byte	0
ARM GAS  C:\Users\KOZLOV~1\AppData\Local\Temp\cctyslCN.s 			page 55


 2277 03c5 00       		.byte	0
 2278 03c6 00       		.byte	0
 2279 03c7 00       		.byte	0
 2280 03c8 00       		.byte	0
 2281 03c9 00       		.byte	0
 2282 03ca 00       		.byte	0
 2283 03cb 00       		.byte	0
 2284 03cc 7C       		.byte	124
 2285 03cd C6       		.byte	-58
 2286 03ce C0       		.byte	-64
 2287 03cf C0       		.byte	-64
 2288 03d0 C6       		.byte	-58
 2289 03d1 7C       		.byte	124
 2290 03d2 00       		.byte	0
 2291 03d3 00       		.byte	0
 2292 03d4 00       		.byte	0
 2293 03d5 00       		.byte	0
 2294 03d6 00       		.byte	0
 2295 03d7 1C       		.byte	28
 2296 03d8 0C       		.byte	12
 2297 03d9 0C       		.byte	12
 2298 03da 3C       		.byte	60
 2299 03db 6C       		.byte	108
 2300 03dc CC       		.byte	-52
 2301 03dd CC       		.byte	-52
 2302 03de CC       		.byte	-52
 2303 03df 76       		.byte	118
 2304 03e0 00       		.byte	0
 2305 03e1 00       		.byte	0
 2306 03e2 00       		.byte	0
 2307 03e3 00       		.byte	0
 2308 03e4 00       		.byte	0
 2309 03e5 00       		.byte	0
 2310 03e6 00       		.byte	0
 2311 03e7 00       		.byte	0
 2312 03e8 7C       		.byte	124
 2313 03e9 C6       		.byte	-58
 2314 03ea FE       		.byte	-2
 2315 03eb C0       		.byte	-64
 2316 03ec C6       		.byte	-58
 2317 03ed 7C       		.byte	124
 2318 03ee 00       		.byte	0
 2319 03ef 00       		.byte	0
 2320 03f0 00       		.byte	0
 2321 03f1 00       		.byte	0
 2322 03f2 00       		.byte	0
 2323 03f3 1C       		.byte	28
 2324 03f4 36       		.byte	54
 2325 03f5 32       		.byte	50
 2326 03f6 30       		.byte	48
 2327 03f7 7C       		.byte	124
 2328 03f8 30       		.byte	48
 2329 03f9 30       		.byte	48
 2330 03fa 30       		.byte	48
 2331 03fb 78       		.byte	120
 2332 03fc 00       		.byte	0
 2333 03fd 00       		.byte	0
ARM GAS  C:\Users\KOZLOV~1\AppData\Local\Temp\cctyslCN.s 			page 56


 2334 03fe 00       		.byte	0
 2335 03ff 00       		.byte	0
 2336 0400 00       		.byte	0
 2337 0401 00       		.byte	0
 2338 0402 00       		.byte	0
 2339 0403 00       		.byte	0
 2340 0404 76       		.byte	118
 2341 0405 CC       		.byte	-52
 2342 0406 CC       		.byte	-52
 2343 0407 CC       		.byte	-52
 2344 0408 7C       		.byte	124
 2345 0409 0C       		.byte	12
 2346 040a CC       		.byte	-52
 2347 040b 78       		.byte	120
 2348 040c 00       		.byte	0
 2349 040d 00       		.byte	0
 2350 040e 00       		.byte	0
 2351 040f E0       		.byte	-32
 2352 0410 60       		.byte	96
 2353 0411 60       		.byte	96
 2354 0412 6C       		.byte	108
 2355 0413 76       		.byte	118
 2356 0414 66       		.byte	102
 2357 0415 66       		.byte	102
 2358 0416 66       		.byte	102
 2359 0417 E6       		.byte	-26
 2360 0418 00       		.byte	0
 2361 0419 00       		.byte	0
 2362 041a 00       		.byte	0
 2363 041b 00       		.byte	0
 2364 041c 00       		.byte	0
 2365 041d 18       		.byte	24
 2366 041e 18       		.byte	24
 2367 041f 00       		.byte	0
 2368 0420 38       		.byte	56
 2369 0421 18       		.byte	24
 2370 0422 18       		.byte	24
 2371 0423 18       		.byte	24
 2372 0424 18       		.byte	24
 2373 0425 3C       		.byte	60
 2374 0426 00       		.byte	0
 2375 0427 00       		.byte	0
 2376 0428 00       		.byte	0
 2377 0429 00       		.byte	0
 2378 042a 00       		.byte	0
 2379 042b 06       		.byte	6
 2380 042c 06       		.byte	6
 2381 042d 00       		.byte	0
 2382 042e 0E       		.byte	14
 2383 042f 06       		.byte	6
 2384 0430 06       		.byte	6
 2385 0431 06       		.byte	6
 2386 0432 06       		.byte	6
 2387 0433 66       		.byte	102
 2388 0434 66       		.byte	102
 2389 0435 3C       		.byte	60
 2390 0436 00       		.byte	0
ARM GAS  C:\Users\KOZLOV~1\AppData\Local\Temp\cctyslCN.s 			page 57


 2391 0437 00       		.byte	0
 2392 0438 00       		.byte	0
 2393 0439 E0       		.byte	-32
 2394 043a 60       		.byte	96
 2395 043b 60       		.byte	96
 2396 043c 66       		.byte	102
 2397 043d 6C       		.byte	108
 2398 043e 78       		.byte	120
 2399 043f 6C       		.byte	108
 2400 0440 66       		.byte	102
 2401 0441 E6       		.byte	-26
 2402 0442 00       		.byte	0
 2403 0443 00       		.byte	0
 2404 0444 00       		.byte	0
 2405 0445 00       		.byte	0
 2406 0446 00       		.byte	0
 2407 0447 38       		.byte	56
 2408 0448 18       		.byte	24
 2409 0449 18       		.byte	24
 2410 044a 18       		.byte	24
 2411 044b 18       		.byte	24
 2412 044c 18       		.byte	24
 2413 044d 18       		.byte	24
 2414 044e 18       		.byte	24
 2415 044f 3C       		.byte	60
 2416 0450 00       		.byte	0
 2417 0451 00       		.byte	0
 2418 0452 00       		.byte	0
 2419 0453 00       		.byte	0
 2420 0454 00       		.byte	0
 2421 0455 00       		.byte	0
 2422 0456 00       		.byte	0
 2423 0457 00       		.byte	0
 2424 0458 EC       		.byte	-20
 2425 0459 FE       		.byte	-2
 2426 045a D6       		.byte	-42
 2427 045b D6       		.byte	-42
 2428 045c D6       		.byte	-42
 2429 045d D6       		.byte	-42
 2430 045e 00       		.byte	0
 2431 045f 00       		.byte	0
 2432 0460 00       		.byte	0
 2433 0461 00       		.byte	0
 2434 0462 00       		.byte	0
 2435 0463 00       		.byte	0
 2436 0464 00       		.byte	0
 2437 0465 00       		.byte	0
 2438 0466 DC       		.byte	-36
 2439 0467 66       		.byte	102
 2440 0468 66       		.byte	102
 2441 0469 66       		.byte	102
 2442 046a 66       		.byte	102
 2443 046b 66       		.byte	102
 2444 046c 00       		.byte	0
 2445 046d 00       		.byte	0
 2446 046e 00       		.byte	0
 2447 046f 00       		.byte	0
ARM GAS  C:\Users\KOZLOV~1\AppData\Local\Temp\cctyslCN.s 			page 58


 2448 0470 00       		.byte	0
 2449 0471 00       		.byte	0
 2450 0472 00       		.byte	0
 2451 0473 00       		.byte	0
 2452 0474 7C       		.byte	124
 2453 0475 C6       		.byte	-58
 2454 0476 C6       		.byte	-58
 2455 0477 C6       		.byte	-58
 2456 0478 C6       		.byte	-58
 2457 0479 7C       		.byte	124
 2458 047a 00       		.byte	0
 2459 047b 00       		.byte	0
 2460 047c 00       		.byte	0
 2461 047d 00       		.byte	0
 2462 047e 00       		.byte	0
 2463 047f 00       		.byte	0
 2464 0480 00       		.byte	0
 2465 0481 00       		.byte	0
 2466 0482 DC       		.byte	-36
 2467 0483 66       		.byte	102
 2468 0484 66       		.byte	102
 2469 0485 66       		.byte	102
 2470 0486 7C       		.byte	124
 2471 0487 60       		.byte	96
 2472 0488 60       		.byte	96
 2473 0489 F0       		.byte	-16
 2474 048a 00       		.byte	0
 2475 048b 00       		.byte	0
 2476 048c 00       		.byte	0
 2477 048d 00       		.byte	0
 2478 048e 00       		.byte	0
 2479 048f 00       		.byte	0
 2480 0490 76       		.byte	118
 2481 0491 CC       		.byte	-52
 2482 0492 CC       		.byte	-52
 2483 0493 CC       		.byte	-52
 2484 0494 7C       		.byte	124
 2485 0495 0C       		.byte	12
 2486 0496 0C       		.byte	12
 2487 0497 1E       		.byte	30
 2488 0498 00       		.byte	0
 2489 0499 00       		.byte	0
 2490 049a 00       		.byte	0
 2491 049b 00       		.byte	0
 2492 049c 00       		.byte	0
 2493 049d 00       		.byte	0
 2494 049e DC       		.byte	-36
 2495 049f 76       		.byte	118
 2496 04a0 66       		.byte	102
 2497 04a1 60       		.byte	96
 2498 04a2 60       		.byte	96
 2499 04a3 F0       		.byte	-16
 2500 04a4 00       		.byte	0
 2501 04a5 00       		.byte	0
 2502 04a6 00       		.byte	0
 2503 04a7 00       		.byte	0
 2504 04a8 00       		.byte	0
ARM GAS  C:\Users\KOZLOV~1\AppData\Local\Temp\cctyslCN.s 			page 59


 2505 04a9 00       		.byte	0
 2506 04aa 00       		.byte	0
 2507 04ab 00       		.byte	0
 2508 04ac 7C       		.byte	124
 2509 04ad C6       		.byte	-58
 2510 04ae 70       		.byte	112
 2511 04af 1C       		.byte	28
 2512 04b0 C6       		.byte	-58
 2513 04b1 7C       		.byte	124
 2514 04b2 00       		.byte	0
 2515 04b3 00       		.byte	0
 2516 04b4 00       		.byte	0
 2517 04b5 00       		.byte	0
 2518 04b6 00       		.byte	0
 2519 04b7 10       		.byte	16
 2520 04b8 30       		.byte	48
 2521 04b9 30       		.byte	48
 2522 04ba FC       		.byte	-4
 2523 04bb 30       		.byte	48
 2524 04bc 30       		.byte	48
 2525 04bd 30       		.byte	48
 2526 04be 36       		.byte	54
 2527 04bf 1C       		.byte	28
 2528 04c0 00       		.byte	0
 2529 04c1 00       		.byte	0
 2530 04c2 00       		.byte	0
 2531 04c3 00       		.byte	0
 2532 04c4 00       		.byte	0
 2533 04c5 00       		.byte	0
 2534 04c6 00       		.byte	0
 2535 04c7 00       		.byte	0
 2536 04c8 CC       		.byte	-52
 2537 04c9 CC       		.byte	-52
 2538 04ca CC       		.byte	-52
 2539 04cb CC       		.byte	-52
 2540 04cc CC       		.byte	-52
 2541 04cd 76       		.byte	118
 2542 04ce 00       		.byte	0
 2543 04cf 00       		.byte	0
 2544 04d0 00       		.byte	0
 2545 04d1 00       		.byte	0
 2546 04d2 00       		.byte	0
 2547 04d3 00       		.byte	0
 2548 04d4 00       		.byte	0
 2549 04d5 00       		.byte	0
 2550 04d6 C6       		.byte	-58
 2551 04d7 C6       		.byte	-58
 2552 04d8 C6       		.byte	-58
 2553 04d9 6C       		.byte	108
 2554 04da 38       		.byte	56
 2555 04db 10       		.byte	16
 2556 04dc 00       		.byte	0
 2557 04dd 00       		.byte	0
 2558 04de 00       		.byte	0
 2559 04df 00       		.byte	0
 2560 04e0 00       		.byte	0
 2561 04e1 00       		.byte	0
ARM GAS  C:\Users\KOZLOV~1\AppData\Local\Temp\cctyslCN.s 			page 60


 2562 04e2 00       		.byte	0
 2563 04e3 00       		.byte	0
 2564 04e4 C6       		.byte	-58
 2565 04e5 C6       		.byte	-58
 2566 04e6 D6       		.byte	-42
 2567 04e7 D6       		.byte	-42
 2568 04e8 FE       		.byte	-2
 2569 04e9 6C       		.byte	108
 2570 04ea 00       		.byte	0
 2571 04eb 00       		.byte	0
 2572 04ec 00       		.byte	0
 2573 04ed 00       		.byte	0
 2574 04ee 00       		.byte	0
 2575 04ef 00       		.byte	0
 2576 04f0 00       		.byte	0
 2577 04f1 00       		.byte	0
 2578 04f2 C6       		.byte	-58
 2579 04f3 6C       		.byte	108
 2580 04f4 38       		.byte	56
 2581 04f5 38       		.byte	56
 2582 04f6 6C       		.byte	108
 2583 04f7 C6       		.byte	-58
 2584 04f8 00       		.byte	0
 2585 04f9 00       		.byte	0
 2586 04fa 00       		.byte	0
 2587 04fb 00       		.byte	0
 2588 04fc 00       		.byte	0
 2589 04fd 00       		.byte	0
 2590 04fe 00       		.byte	0
 2591 04ff 00       		.byte	0
 2592 0500 C6       		.byte	-58
 2593 0501 C6       		.byte	-58
 2594 0502 C6       		.byte	-58
 2595 0503 C6       		.byte	-58
 2596 0504 7E       		.byte	126
 2597 0505 06       		.byte	6
 2598 0506 0C       		.byte	12
 2599 0507 78       		.byte	120
 2600 0508 00       		.byte	0
 2601 0509 00       		.byte	0
 2602 050a 00       		.byte	0
 2603 050b 00       		.byte	0
 2604 050c 00       		.byte	0
 2605 050d 00       		.byte	0
 2606 050e FE       		.byte	-2
 2607 050f CC       		.byte	-52
 2608 0510 18       		.byte	24
 2609 0511 30       		.byte	48
 2610 0512 66       		.byte	102
 2611 0513 FE       		.byte	-2
 2612 0514 00       		.byte	0
 2613 0515 00       		.byte	0
 2614 0516 00       		.byte	0
 2615 0517 00       		.byte	0
 2616 0518 00       		.byte	0
 2617 0519 0E       		.byte	14
 2618 051a 18       		.byte	24
ARM GAS  C:\Users\KOZLOV~1\AppData\Local\Temp\cctyslCN.s 			page 61


 2619 051b 18       		.byte	24
 2620 051c 18       		.byte	24
 2621 051d 70       		.byte	112
 2622 051e 18       		.byte	24
 2623 051f 18       		.byte	24
 2624 0520 18       		.byte	24
 2625 0521 0E       		.byte	14
 2626 0522 00       		.byte	0
 2627 0523 00       		.byte	0
 2628 0524 00       		.byte	0
 2629 0525 00       		.byte	0
 2630 0526 00       		.byte	0
 2631 0527 18       		.byte	24
 2632 0528 18       		.byte	24
 2633 0529 18       		.byte	24
 2634 052a 18       		.byte	24
 2635 052b 18       		.byte	24
 2636 052c 18       		.byte	24
 2637 052d 18       		.byte	24
 2638 052e 18       		.byte	24
 2639 052f 18       		.byte	24
 2640 0530 00       		.byte	0
 2641 0531 00       		.byte	0
 2642 0532 00       		.byte	0
 2643 0533 00       		.byte	0
 2644 0534 00       		.byte	0
 2645 0535 70       		.byte	112
 2646 0536 18       		.byte	24
 2647 0537 18       		.byte	24
 2648 0538 18       		.byte	24
 2649 0539 0E       		.byte	14
 2650 053a 18       		.byte	24
 2651 053b 18       		.byte	24
 2652 053c 18       		.byte	24
 2653 053d 70       		.byte	112
 2654 053e 00       		.byte	0
 2655 053f 00       		.byte	0
 2656 0540 00       		.byte	0
 2657 0541 76       		.byte	118
 2658 0542 DC       		.byte	-36
 2659 0543 00       		.byte	0
 2660 0544 00       		.byte	0
 2661 0545 00       		.byte	0
 2662 0546 00       		.byte	0
 2663 0547 00       		.byte	0
 2664 0548 00       		.byte	0
 2665 0549 00       		.byte	0
 2666 054a 00       		.byte	0
 2667 054b 00       		.byte	0
 2668 054c 00       		.byte	0
 2669 054d 00       		.byte	0
 2670 054e 00       		.byte	0
 2671 054f 00       		.byte	0
 2672 0550 00       		.byte	0
 2673 0551 00       		.byte	0
 2674 0552 00       		.byte	0
 2675 0553 10       		.byte	16
ARM GAS  C:\Users\KOZLOV~1\AppData\Local\Temp\cctyslCN.s 			page 62


 2676 0554 38       		.byte	56
 2677 0555 6C       		.byte	108
 2678 0556 C6       		.byte	-58
 2679 0557 C6       		.byte	-58
 2680 0558 FE       		.byte	-2
 2681 0559 00       		.byte	0
 2682 055a 00       		.byte	0
 2683 055b 00       		.byte	0
 2684              		.bss
 2685              		.set	.LANCHOR0,. + 0
 2686              		.type	bkgColor, %object
 2687              		.size	bkgColor, 1
 2688              	bkgColor:
 2689 0000 00       		.space	1
 2690              		.type	textColor, %object
 2691              		.size	textColor, 1
 2692              	textColor:
 2693 0001 00       		.space	1
 2694              		.type	lcd_x, %object
 2695              		.size	lcd_x, 1
 2696              	lcd_x:
 2697 0002 00       		.space	1
 2698              		.type	lcd_y, %object
 2699              		.size	lcd_y, 1
 2700              	lcd_y:
 2701 0003 00       		.space	1
 2702              		.type	setcolmark, %object
 2703              		.size	setcolmark, 1
 2704              	setcolmark:
 2705 0004 00       		.space	1
 2706              		.text
 2707              	.Letext0:
 2708              		.file 2 "./startup/../pre_emptive_os/api/general.h"
 2709              		.file 3 "ascii.h"