ARM GAS  C:\Users\KOZLOV~1\AppData\Local\Temp\cctyslCN.s 			page 1


   1              		.code	16
   2              		.file	"lcd.c"
   3              		.text
   4              	.Ltext0:
   5              		.cfi_sections	.debug_frame
   6              		.align	1
   7              		.global	lcdColor
   8              		.code	16
   9              		.thumb_func
  10              		.type	lcdColor, %function
  11              	lcdColor:
  12              	.LFB3:
  13              		.file 1 "lcd.c"
   1:lcd.c         **** /******************************************************************************
   2:lcd.c         ****  *
   3:lcd.c         ****  * Copyright:
   4:lcd.c         ****  *    (C) 2006 Embedded Artists AB
   5:lcd.c         ****  *
   6:lcd.c         ****  * File:
   7:lcd.c         ****  *    lcd.c
   8:lcd.c         ****  *
   9:lcd.c         ****  * Description:
  10:lcd.c         ****  *    Implements routines for the LCD.
  11:lcd.c         ****  *
  12:lcd.c         ****  *****************************************************************************/
  13:lcd.c         **** 
  14:lcd.c         **** /******************************************************************************
  15:lcd.c         ****  * Includes
  16:lcd.c         ****  *****************************************************************************/
  17:lcd.c         **** #include "../pre_emptive_os/api/general.h"
  18:lcd.c         **** #include "../pre_emptive_os/api/osapi.h"
  19:lcd.c         **** #include "lcd.h"
  20:lcd.c         **** #include "ascii.h"
  21:lcd.c         **** #include "hw.h"
  22:lcd.c         **** 
  23:lcd.c         **** 
  24:lcd.c         **** /******************************************************************************
  25:lcd.c         ****  * Typedefs and defines
  26:lcd.c         ****  *****************************************************************************/
  27:lcd.c         **** #define LCD_CMD_SWRESET   0x01
  28:lcd.c         **** #define LCD_CMD_BSTRON    0x03
  29:lcd.c         **** #define LCD_CMD_SLEEPIN   0x10
  30:lcd.c         **** #define LCD_CMD_SLEEPOUT  0x11
  31:lcd.c         **** #define LCD_CMD_INVON     0x21
  32:lcd.c         **** #define LCD_CMD_SETCON    0x25
  33:lcd.c         **** #define LCD_CMD_DISPON    0x29
  34:lcd.c         **** #define LCD_CMD_CASET     0x2A
  35:lcd.c         **** #define LCD_CMD_PASET     0x2B
  36:lcd.c         **** #define LCD_CMD_RAMWR     0x2C
  37:lcd.c         **** #define LCD_CMD_RGBSET    0x2D
  38:lcd.c         **** #define LCD_CMD_MADCTL    0x36
  39:lcd.c         **** #define LCD_CMD_COLMOD    0x3A
  40:lcd.c         **** 
  41:lcd.c         **** #define MADCTL_HORIZ      0x48
  42:lcd.c         **** #define MADCTL_VERT       0x68
  43:lcd.c         **** 
  44:lcd.c         **** 
ARM GAS  C:\Users\KOZLOV~1\AppData\Local\Temp\cctyslCN.s 			page 2


  45:lcd.c         **** /*****************************************************************************
  46:lcd.c         ****  * Local variables
  47:lcd.c         ****  ****************************************************************************/
  48:lcd.c         **** static tU8 lcd_x;
  49:lcd.c         **** static tU8 lcd_y;
  50:lcd.c         **** static tU8 bkgColor;
  51:lcd.c         **** static tU8 textColor;
  52:lcd.c         **** static tU8 setcolmark;
  53:lcd.c         **** 
  54:lcd.c         **** /*****************************************************************************
  55:lcd.c         ****  * Local prototypes
  56:lcd.c         ****  ****************************************************************************/
  57:lcd.c         **** static void lcdWindow1(tU8 xp, tU8 yp, tU8 xe, tU8 ye);
  58:lcd.c         **** 
  59:lcd.c         **** 
  60:lcd.c         **** /*****************************************************************************
  61:lcd.c         ****  *
  62:lcd.c         ****  * Description:
  63:lcd.c         ****  *    Initialize the LCD controller and SPI interface
  64:lcd.c         ****  *    (0,0) is top left and (129,129) is bottom right
  65:lcd.c         ****  *    8 bits Color mode uses RRRGGGBB layout
  66:lcd.c         ****  *
  67:lcd.c         ****  ****************************************************************************/
  68:lcd.c         **** void
  69:lcd.c         **** lcdInit(void)
  70:lcd.c         **** {
  71:lcd.c         ****   bkgColor  = 0;
  72:lcd.c         ****   textColor = 0;
  73:lcd.c         ****   
  74:lcd.c         ****   //init SPI interface
  75:lcd.c         ****   initSpiForLcd();
  76:lcd.c         ****   
  77:lcd.c         ****   //select controller
  78:lcd.c         ****   selectLCD(TRUE);
  79:lcd.c         **** 
  80:lcd.c         **** 	lcdWrcmd(LCD_CMD_SWRESET);
  81:lcd.c         **** 
  82:lcd.c         **** 	osSleep(1);
  83:lcd.c         **** 	lcdWrcmd(LCD_CMD_SLEEPOUT);
  84:lcd.c         **** 	lcdWrcmd(LCD_CMD_DISPON);
  85:lcd.c         **** 	lcdWrcmd(LCD_CMD_BSTRON);
  86:lcd.c         **** 	osSleep(1);
  87:lcd.c         **** 		
  88:lcd.c         **** 	lcdWrcmd(LCD_CMD_MADCTL);   //Memory data acces control
  89:lcd.c         **** 	lcdWrdata(MADCTL_HORIZ);    //X Mirror and BGR format
  90:lcd.c         **** 	lcdWrcmd(LCD_CMD_COLMOD);   //Colour mode
  91:lcd.c         **** 	lcdWrdata(0x02);            //256 colour mode select
  92:lcd.c         **** 	lcdWrcmd(LCD_CMD_INVON);    //Non Invert mode
  93:lcd.c         **** 
  94:lcd.c         **** 	lcdWrcmd(LCD_CMD_RGBSET);   //LUT write
  95:lcd.c         ****   lcdWrdata(0);               //Red
  96:lcd.c         ****   lcdWrdata(2);
  97:lcd.c         ****   lcdWrdata(4);
  98:lcd.c         ****   lcdWrdata(6);
  99:lcd.c         ****   lcdWrdata(9);
 100:lcd.c         ****   lcdWrdata(11);
 101:lcd.c         ****   lcdWrdata(13);
ARM GAS  C:\Users\KOZLOV~1\AppData\Local\Temp\cctyslCN.s 			page 3


 102:lcd.c         ****   lcdWrdata(15);
 103:lcd.c         ****   lcdWrdata(0);               //Green
 104:lcd.c         ****   lcdWrdata(2);
 105:lcd.c         ****   lcdWrdata(4);
 106:lcd.c         ****   lcdWrdata(6);
 107:lcd.c         ****   lcdWrdata(9);
 108:lcd.c         ****   lcdWrdata(11);
 109:lcd.c         ****   lcdWrdata(13);
 110:lcd.c         ****   lcdWrdata(15);
 111:lcd.c         ****   lcdWrdata(0);               //Blue
 112:lcd.c         ****   lcdWrdata(6);
 113:lcd.c         **** 	lcdWrdata(10);
 114:lcd.c         **** 	lcdWrdata(15);
 115:lcd.c         **** 
 116:lcd.c         ****   //deselect controller
 117:lcd.c         ****   selectLCD(FALSE);
 118:lcd.c         **** 
 119:lcd.c         **** 	lcdContrast(56);
 120:lcd.c         **** 
 121:lcd.c         **** 	lcdClrscr();
 122:lcd.c         **** }
 123:lcd.c         **** 
 124:lcd.c         **** 
 125:lcd.c         **** /*****************************************************************************
 126:lcd.c         ****  *
 127:lcd.c         ****  * Description:
 128:lcd.c         ****  *    Clear screen (with current background color)
 129:lcd.c         ****  *
 130:lcd.c         ****  ****************************************************************************/
 131:lcd.c         **** void
 132:lcd.c         **** lcdClrscr(void)
 133:lcd.c         **** {
 134:lcd.c         ****   tU32 i;
 135:lcd.c         **** 
 136:lcd.c         **** 	lcd_x = 0;
 137:lcd.c         ****   lcd_y = 0;
 138:lcd.c         **** 
 139:lcd.c         ****   //select controller
 140:lcd.c         ****   selectLCD(TRUE);   
 141:lcd.c         **** 
 142:lcd.c         ****   lcdWindow1(255,255,128,128);
 143:lcd.c         ****   
 144:lcd.c         ****   lcdWrcmd(LCD_CMD_RAMWR);    //write memory
 145:lcd.c         ****   
 146:lcd.c         ****   for(i=0; i<16900; i++)
 147:lcd.c         ****     lcdWrdata(bkgColor);
 148:lcd.c         **** 
 149:lcd.c         ****   //deselect controller
 150:lcd.c         ****   selectLCD(FALSE);
 151:lcd.c         **** }
 152:lcd.c         **** 
 153:lcd.c         **** 
 154:lcd.c         **** /*****************************************************************************
 155:lcd.c         ****  *
 156:lcd.c         ****  * Description:
 157:lcd.c         ****  *    Shut down the LCD controller
 158:lcd.c         ****  *
ARM GAS  C:\Users\KOZLOV~1\AppData\Local\Temp\cctyslCN.s 			page 4


 159:lcd.c         ****  ****************************************************************************/
 160:lcd.c         **** void
 161:lcd.c         **** lcdOff(void)
 162:lcd.c         **** {
 163:lcd.c         ****   lcdClrscr();
 164:lcd.c         **** 
 165:lcd.c         ****   //select controller
 166:lcd.c         ****   selectLCD(TRUE);   
 167:lcd.c         **** 
 168:lcd.c         ****   lcdWrcmd(LCD_CMD_SLEEPIN);
 169:lcd.c         **** 
 170:lcd.c         ****   //deselect controller
 171:lcd.c         ****   selectLCD(FALSE);
 172:lcd.c         **** }
 173:lcd.c         **** 
 174:lcd.c         **** 
 175:lcd.c         **** /*****************************************************************************
 176:lcd.c         ****  *
 177:lcd.c         ****  * Description:
 178:lcd.c         ****  *    Set current foreground and background color
 179:lcd.c         ****  *
 180:lcd.c         ****  ****************************************************************************/
 181:lcd.c         **** void
 182:lcd.c         **** lcdColor(tU8 bkg, tU8 text)
 183:lcd.c         **** {
  14              		.loc 1 183 0
  15              		.cfi_startproc
  16              	.LVL0:
 184:lcd.c         ****   bkgColor  = bkg;
  17              		.loc 1 184 0
  18 0000 014B     		ldr	r3, .L2
 185:lcd.c         ****   textColor = text;
 186:lcd.c         **** }
  19              		.loc 1 186 0
  20              		@ sp needed for prologue
 184:lcd.c         ****   bkgColor  = bkg;
  21              		.loc 1 184 0
  22 0002 1870     		strb	r0, [r3]
 185:lcd.c         ****   textColor = text;
  23              		.loc 1 185 0
  24 0004 5970     		strb	r1, [r3, #1]
  25              		.loc 1 186 0
  26 0006 7047     		bx	lr
  27              	.L3:
  28              		.align	2
  29              	.L2:
  30 0008 00000000 		.word	.LANCHOR0
  31              		.cfi_endproc
  32              	.LFE3:
  33              		.size	lcdColor, .-lcdColor
  34              		.align	1
  35              		.global	lcdWrcmd
  36              		.code	16
  37              		.thumb_func
  38              		.type	lcdWrcmd, %function
  39              	lcdWrcmd:
  40              	.LFB16:
ARM GAS  C:\Users\KOZLOV~1\AppData\Local\Temp\cctyslCN.s 			page 5


 187:lcd.c         **** 
 188:lcd.c         **** 
 189:lcd.c         **** /*****************************************************************************
 190:lcd.c         ****  *
 191:lcd.c         ****  * Description:
 192:lcd.c         ****  *    Set display contrast
 193:lcd.c         ****  *
 194:lcd.c         ****  ****************************************************************************/
 195:lcd.c         **** void
 196:lcd.c         **** lcdContrast(tU8 cont) //vary between 0 - 127
 197:lcd.c         **** {
 198:lcd.c         ****   //select controller
 199:lcd.c         ****   selectLCD(TRUE);
 200:lcd.c         **** 
 201:lcd.c         ****   //set contrast cmd.
 202:lcd.c         ****   lcdWrcmd(LCD_CMD_SETCON);
 203:lcd.c         **** 	lcdWrdata(cont);
 204:lcd.c         **** 
 205:lcd.c         ****   //deselect controller
 206:lcd.c         ****   selectLCD(FALSE);
 207:lcd.c         **** }
 208:lcd.c         **** 
 209:lcd.c         **** /*****************************************************************************
 210:lcd.c         ****  *
 211:lcd.c         ****  * Description:
 212:lcd.c         ****  *    Draw a line with specified color. 
 213:lcd.c         ****  *
 214:lcd.c         ****  ****************************************************************************/
 215:lcd.c         **** void
 216:lcd.c         **** lcdLine(tU8 x, tU8 y, tU8 len, tU8 color, tBool vertical)
 217:lcd.c         **** {
 218:lcd.c         ****   tU32 i;
 219:lcd.c         **** 
 220:lcd.c         ****   //select controller
 221:lcd.c         ****   selectLCD(TRUE);   
 222:lcd.c         **** 
 223:lcd.c         ****   if (vertical)
 224:lcd.c         ****   {
 225:lcd.c         ****     lcdWindow1(x,y,x,y+len-1);
 226:lcd.c         ****     
 227:lcd.c         ****     lcdWrcmd(LCD_CMD_RAMWR);    //write memory
 228:lcd.c         ****     
 229:lcd.c         ****     for(i=0; i<len; i++)
 230:lcd.c         ****       lcdWrdata(color);
 231:lcd.c         ****   }
 232:lcd.c         ****   else
 233:lcd.c         ****   {
 234:lcd.c         ****     lcdWindow1(x,y,x+len-1,y);
 235:lcd.c         ****     
 236:lcd.c         ****     lcdWrcmd(LCD_CMD_RAMWR);    //write memory
 237:lcd.c         ****     
 238:lcd.c         ****     for(i=0; i<len; i++)
 239:lcd.c         ****       lcdWrdata(color);
 240:lcd.c         ****   }
 241:lcd.c         **** 
 242:lcd.c         ****   //deselect controller
 243:lcd.c         ****   selectLCD(FALSE);
ARM GAS  C:\Users\KOZLOV~1\AppData\Local\Temp\cctyslCN.s 			page 6


 244:lcd.c         **** }
 245:lcd.c         **** 
 246:lcd.c         **** /*****************************************************************************
 247:lcd.c         ****  *
 248:lcd.c         ****  * Description:
 249:lcd.c         ****  *    Draw a rectangular area with specified color.
 250:lcd.c         ****  *
 251:lcd.c         ****  ****************************************************************************/
 252:lcd.c         **** void
 253:lcd.c         **** lcdRect(tU8 x, tU8 y, tU8 xLen, tU8 yLen, tU8 color)
 254:lcd.c         **** {
 255:lcd.c         ****   tU32 i;
 256:lcd.c         ****   tU32 len;
 257:lcd.c         **** 
 258:lcd.c         ****   //select controller
 259:lcd.c         ****   selectLCD(TRUE);   
 260:lcd.c         **** 
 261:lcd.c         ****   lcdWindow1(x,y,x+xLen-1,y+yLen-1);
 262:lcd.c         ****   
 263:lcd.c         ****   lcdWrcmd(LCD_CMD_RAMWR);    //write memory
 264:lcd.c         ****   
 265:lcd.c         ****   len = xLen*yLen;
 266:lcd.c         ****   for(i=0; i<len; i++)
 267:lcd.c         ****     lcdWrdata(color);
 268:lcd.c         **** 
 269:lcd.c         ****   //deselect controller
 270:lcd.c         ****   selectLCD(FALSE);
 271:lcd.c         **** }
 272:lcd.c         **** 
 273:lcd.c         **** 
 274:lcd.c         **** /*****************************************************************************
 275:lcd.c         ****  *
 276:lcd.c         ****  * Description:
 277:lcd.c         ****  *    Draw rectangular area with different boardser colors. Currently used
 278:lcd.c         ****  *    by example game.
 279:lcd.c         ****  *
 280:lcd.c         ****  ****************************************************************************/
 281:lcd.c         **** void
 282:lcd.c         **** lcdRectBrd(tU8 x, tU8 y, tU8 xLen, tU8 yLen, tU8 color1, tU8 color2, tU8 color3)
 283:lcd.c         **** {
 284:lcd.c         ****   tU32 i,j;
 285:lcd.c         **** 
 286:lcd.c         ****   //select controller
 287:lcd.c         ****   selectLCD(TRUE);   
 288:lcd.c         **** 
 289:lcd.c         ****   lcdWindow1(x,y,x+xLen-1,y+yLen-1);
 290:lcd.c         ****   
 291:lcd.c         ****   lcdWrcmd(LCD_CMD_RAMWR);    //write memory
 292:lcd.c         ****   
 293:lcd.c         ****   for(i=0; i<xLen; i++)
 294:lcd.c         ****     lcdWrdata(color2);
 295:lcd.c         ****   for(j=1; j<(yLen-2); j++)
 296:lcd.c         ****   {
 297:lcd.c         ****     lcdWrdata(color2);
 298:lcd.c         ****     for(i=0; i<(xLen-2); i++)
 299:lcd.c         ****       lcdWrdata(color1);
 300:lcd.c         ****     lcdWrdata(color3);
ARM GAS  C:\Users\KOZLOV~1\AppData\Local\Temp\cctyslCN.s 			page 7


 301:lcd.c         ****   }
 302:lcd.c         ****   for(i=0; i<xLen; i++)
 303:lcd.c         ****     lcdWrdata(color3);
 304:lcd.c         **** 
 305:lcd.c         ****   //deselect controller
 306:lcd.c         ****   selectLCD(FALSE);
 307:lcd.c         **** }
 308:lcd.c         **** 
 309:lcd.c         **** 
 310:lcd.c         **** /*****************************************************************************
 311:lcd.c         ****  *
 312:lcd.c         ****  * Description:
 313:lcd.c         ****  *    Draw rectangular area from bitmap. Specify xy-position and xy-length.
 314:lcd.c         ****  *    Compressed format is supported.
 315:lcd.c         ****  *
 316:lcd.c         ****  *    In uncompressed color mode, pData points to an area of xLen * yLen
 317:lcd.c         ****  *    bytes with the icon.
 318:lcd.c         ****  *    In compressed mode the escapeChar is used to denote that the next
 319:lcd.c         ****  *    two bytes contain a length and a color (run length encoding)
 320:lcd.c         ****  *    Note that is is still possible to specify the color value that
 321:lcd.c         ****  *    equals the escape value in a compressed string.
 322:lcd.c         ****  *
 323:lcd.c         ****  ****************************************************************************/
 324:lcd.c         **** void
 325:lcd.c         **** lcdIcon(tU8 x, tU8 y, tU8 xLen, tU8 yLen, tU8 compressionOn, tU8 escapeChar, const tU8* pData)
 326:lcd.c         **** {
 327:lcd.c         ****   tU32 i,j;
 328:lcd.c         ****   tS32 len;
 329:lcd.c         **** 
 330:lcd.c         ****   //select controller
 331:lcd.c         ****   selectLCD(TRUE);   
 332:lcd.c         **** 
 333:lcd.c         ****   lcdWindow1(x,y,x+xLen-1,y+yLen-1);
 334:lcd.c         ****   
 335:lcd.c         ****   lcdWrcmd(LCD_CMD_RAMWR);    //write memory
 336:lcd.c         ****   
 337:lcd.c         ****   len = xLen*yLen;
 338:lcd.c         ****   if (compressionOn == FALSE)
 339:lcd.c         ****   {
 340:lcd.c         ****     for(i=0; i<len; i++)
 341:lcd.c         ****       lcdWrdata(*pData++);
 342:lcd.c         ****   }
 343:lcd.c         ****   else
 344:lcd.c         ****     while(len > 0)
 345:lcd.c         ****     {
 346:lcd.c         ****       if(*pData == escapeChar)
 347:lcd.c         ****       {
 348:lcd.c         ****         pData++;
 349:lcd.c         ****         j = *pData++;
 350:lcd.c         ****         for(i=0;i<j;i++)
 351:lcd.c         ****           lcdWrdata(*pData);
 352:lcd.c         ****         pData++;
 353:lcd.c         ****         len -= j;
 354:lcd.c         ****       }
 355:lcd.c         ****       else
 356:lcd.c         ****       {
 357:lcd.c         ****         lcdWrdata(*pData++);
ARM GAS  C:\Users\KOZLOV~1\AppData\Local\Temp\cctyslCN.s 			page 8


 358:lcd.c         ****         len--;
 359:lcd.c         ****       }
 360:lcd.c         ****     }
 361:lcd.c         **** 
 362:lcd.c         ****   //deselect controller
 363:lcd.c         ****   selectLCD(FALSE);
 364:lcd.c         **** }
 365:lcd.c         **** 
 366:lcd.c         **** 
 367:lcd.c         **** /*****************************************************************************
 368:lcd.c         ****  *
 369:lcd.c         ****  * Description:
 370:lcd.c         ****  *    Update xy-position (by also creating a window).
 371:lcd.c         ****  *
 372:lcd.c         ****  ****************************************************************************/
 373:lcd.c         **** void
 374:lcd.c         **** lcdGotoxy(tU8 x, tU8 y)
 375:lcd.c         **** {
 376:lcd.c         ****   lcd_x = x;
 377:lcd.c         ****   lcd_y = y;
 378:lcd.c         ****   lcdWindow(x, y, 129, 129);
 379:lcd.c         **** }
 380:lcd.c         **** 
 381:lcd.c         **** 
 382:lcd.c         **** /*****************************************************************************
 383:lcd.c         ****  *
 384:lcd.c         ****  * Description:
 385:lcd.c         ****  *    Initialize LCD controller for a window (to write in).
 386:lcd.c         ****  *    Set start xy-position and xy-length.
 387:lcd.c         ****  *    Selects/deselects LCD controller.
 388:lcd.c         ****  *
 389:lcd.c         ****  ****************************************************************************/
 390:lcd.c         **** void
 391:lcd.c         **** lcdWindow(tU8 xp, tU8 yp, tU8 xe, tU8 ye)
 392:lcd.c         **** {
 393:lcd.c         ****   //select controller
 394:lcd.c         ****   selectLCD(TRUE);
 395:lcd.c         ****   
 396:lcd.c         ****   lcdWindow1(xp, yp, xe, ye);
 397:lcd.c         ****   
 398:lcd.c         ****   //deselect controller
 399:lcd.c         ****   selectLCD(FALSE);
 400:lcd.c         **** }
 401:lcd.c         **** 
 402:lcd.c         **** 
 403:lcd.c         **** /*****************************************************************************
 404:lcd.c         ****  *
 405:lcd.c         ****  * Description:
 406:lcd.c         ****  *    Initialize LCD controller for a window (to write in).
 407:lcd.c         ****  *    Set start xy-position and xy-length
 408:lcd.c         ****  *    No select/deselect of LCD controller.
 409:lcd.c         ****  *
 410:lcd.c         ****  ****************************************************************************/
 411:lcd.c         **** static void
 412:lcd.c         **** lcdWindow1(tU8 xp, tU8 yp, tU8 xe, tU8 ye)
 413:lcd.c         **** {
 414:lcd.c         ****   lcdWrcmd(LCD_CMD_CASET);    //set X
ARM GAS  C:\Users\KOZLOV~1\AppData\Local\Temp\cctyslCN.s 			page 9


 415:lcd.c         ****   lcdWrdata(xp+2);
 416:lcd.c         ****   lcdWrdata(xe+2);
 417:lcd.c         ****   
 418:lcd.c         ****   lcdWrcmd(LCD_CMD_PASET);    //set Y
 419:lcd.c         ****   lcdWrdata(yp+2);
 420:lcd.c         ****   lcdWrdata(ye+2);
 421:lcd.c         **** }
 422:lcd.c         **** 
 423:lcd.c         **** 
 424:lcd.c         **** /*****************************************************************************
 425:lcd.c         ****  *
 426:lcd.c         ****  * Description:
 427:lcd.c         ****  *    Update xy-position for newline situation.
 428:lcd.c         ****  *
 429:lcd.c         ****  ****************************************************************************/
 430:lcd.c         **** static void
 431:lcd.c         **** lcdNewline(void)
 432:lcd.c         **** {
 433:lcd.c         ****   lcd_x  = 0;
 434:lcd.c         ****   lcd_y	+= 14;
 435:lcd.c         ****   if (lcd_y >= 126)
 436:lcd.c         ****     lcd_y = 126;
 437:lcd.c         **** }
 438:lcd.c         **** 
 439:lcd.c         **** 
 440:lcd.c         **** /*****************************************************************************
 441:lcd.c         ****  *
 442:lcd.c         ****  * Description:
 443:lcd.c         ****  *    Draw one character withc current foreground and background color
 444:lcd.c         ****  *    at current xy position on display. Update x-position (+8).
 445:lcd.c         ****  *
 446:lcd.c         ****  ****************************************************************************/
 447:lcd.c         **** void
 448:lcd.c         **** lcdData(tU8 data)
 449:lcd.c         **** {
 450:lcd.c         ****   //select controller
 451:lcd.c         ****   selectLCD(TRUE);
 452:lcd.c         ****   
 453:lcd.c         ****   if (data <= 127)
 454:lcd.c         ****   {
 455:lcd.c         ****     tU32 mapOffset;
 456:lcd.c         ****     tU8 i,j,byteToShift;
 457:lcd.c         **** 
 458:lcd.c         ****     data -= 30;
 459:lcd.c         ****     mapOffset = 14*data;
 460:lcd.c         **** 
 461:lcd.c         ****     lcdWrcmd(LCD_CMD_CASET);
 462:lcd.c         ****     lcdWrdata(lcd_x+2);
 463:lcd.c         ****     lcdWrdata(lcd_x+9);
 464:lcd.c         ****     lcdWrcmd(LCD_CMD_PASET);
 465:lcd.c         ****     lcdWrdata(lcd_y+2);
 466:lcd.c         ****     lcdWrdata(lcd_y+15);
 467:lcd.c         ****     lcdWrcmd(LCD_CMD_RAMWR);
 468:lcd.c         ****     
 469:lcd.c         ****     for(i=0; i<14; i++)
 470:lcd.c         ****     {
 471:lcd.c         ****       byteToShift = charMap[mapOffset++];
ARM GAS  C:\Users\KOZLOV~1\AppData\Local\Temp\cctyslCN.s 			page 10


 472:lcd.c         ****       for(j=0; j<8; j++)
 473:lcd.c         ****       {
 474:lcd.c         ****         if (byteToShift & 0x80)
 475:lcd.c         ****           lcdWrdata(textColor);
 476:lcd.c         ****         else
 477:lcd.c         ****           lcdWrdata(bkgColor);
 478:lcd.c         ****         byteToShift <<= 1;
 479:lcd.c         ****       }
 480:lcd.c         ****     }
 481:lcd.c         ****   }
 482:lcd.c         **** 
 483:lcd.c         ****   //deselect controller
 484:lcd.c         ****   selectLCD(FALSE);
 485:lcd.c         **** 
 486:lcd.c         ****   lcd_x += 8;
 487:lcd.c         **** }
 488:lcd.c         **** 
 489:lcd.c         **** 
 490:lcd.c         **** /*****************************************************************************
 491:lcd.c         ****  *
 492:lcd.c         ****  * Description:
 493:lcd.c         ****  *    Write/draw one character at current xy-position.
 494:lcd.c         ****  *    The xy-position is updated afterwards
 495:lcd.c         ****  *
 496:lcd.c         ****  ****************************************************************************/
 497:lcd.c         **** void
 498:lcd.c         **** lcdPutchar(tU8 data)
 499:lcd.c         **** {
 500:lcd.c         ****   if (data == '\n')
 501:lcd.c         ****     lcdNewline();
 502:lcd.c         ****   else if (data != '\r')
 503:lcd.c         ****   {
 504:lcd.c         ****     if (setcolmark == TRUE)
 505:lcd.c         ****     {
 506:lcd.c         ****       textColor = data;
 507:lcd.c         ****       setcolmark = FALSE;
 508:lcd.c         ****     }
 509:lcd.c         ****     else if (data == 0xff)
 510:lcd.c         ****       setcolmark = TRUE;
 511:lcd.c         ****     else if (lcd_x <= 124)
 512:lcd.c         ****     {
 513:lcd.c         ****       lcdData(data);
 514:lcd.c         ****     }
 515:lcd.c         ****   }
 516:lcd.c         **** }
 517:lcd.c         **** 
 518:lcd.c         **** /*****************************************************************************
 519:lcd.c         ****  *
 520:lcd.c         ****  * Description:
 521:lcd.c         ****  *    Write/draw (null-terminated) string of character at current xy-position
 522:lcd.c         ****  *
 523:lcd.c         ****  ****************************************************************************/
 524:lcd.c         **** void
 525:lcd.c         **** lcdPuts(tU8 *s)
 526:lcd.c         **** {
 527:lcd.c         ****   while(*s != '\0')
 528:lcd.c         ****     lcdPutchar(*s++);
ARM GAS  C:\Users\KOZLOV~1\AppData\Local\Temp\cctyslCN.s 			page 11


 529:lcd.c         **** }
 530:lcd.c         **** 
 531:lcd.c         **** 
 532:lcd.c         **** /*****************************************************************************
 533:lcd.c         ****  *
 534:lcd.c         ****  * Description:
 535:lcd.c         ****  *    Send command data to LCD controller
 536:lcd.c         ****  *
 537:lcd.c         ****  ****************************************************************************/
 538:lcd.c         **** void
 539:lcd.c         **** lcdWrcmd(tU8 data)
 540:lcd.c         **** {
  41              		.loc 1 540 0
  42              		.cfi_startproc
  43 000c 00B5     		push	{lr}
  44              	.LCFI0:
  45              		.cfi_def_cfa_offset 4
  46              		.cfi_offset 14, -4
  47              	.LVL1:
  48              		.loc 1 540 0
  49 000e 0106     		lsl	r1, r0, #24
  50 0010 090E     		lsr	r1, r1, #24
 541:lcd.c         ****   sendToLCD(0, data);
  51              		.loc 1 541 0
  52 0012 0020     		mov	r0, #0
  53              	.LVL2:
  54 0014 FFF7FEFF 		bl	sendToLCD
 542:lcd.c         **** }
  55              		.loc 1 542 0
  56              		@ sp needed for prologue
  57 0018 01BC     		pop	{r0}
  58 001a 0047     		bx	r0
  59              		.cfi_endproc
  60              	.LFE16:
  61              		.size	lcdWrcmd, .-lcdWrcmd
  62              		.align	1
  63              		.global	lcdWrdata
  64              		.code	16
  65              		.thumb_func
  66              		.type	lcdWrdata, %function
  67              	lcdWrdata:
  68              	.LFB17:
 543:lcd.c         **** 
 544:lcd.c         **** 
 545:lcd.c         **** /*****************************************************************************
 546:lcd.c         ****  *
 547:lcd.c         ****  * Description:
 548:lcd.c         ****  *    Send data byte to LCD controller
 549:lcd.c         ****  *
 550:lcd.c         ****  ****************************************************************************/
 551:lcd.c         **** void
 552:lcd.c         **** lcdWrdata(tU8 data)
 553:lcd.c         **** {
  69              		.loc 1 553 0
  70              		.cfi_startproc
  71 001c 00B5     		push	{lr}
  72              	.LCFI1:
ARM GAS  C:\Users\KOZLOV~1\AppData\Local\Temp\cctyslCN.s 			page 12


  73              		.cfi_def_cfa_offset 4
  74              		.cfi_offset 14, -4
  75              	.LVL3:
  76              		.loc 1 553 0
  77 001e 0106     		lsl	r1, r0, #24
  78 0020 090E     		lsr	r1, r1, #24
 554:lcd.c         ****   sendToLCD(1, data);
  79              		.loc 1 554 0
  80 0022 0120     		mov	r0, #1
  81              	.LVL4:
  82 0024 FFF7FEFF 		bl	sendToLCD
 555:lcd.c         **** }
  83              		.loc 1 555 0
  84              		@ sp needed for prologue
  85 0028 01BC     		pop	{r0}
  86 002a 0047     		bx	r0
  87              		.cfi_endproc
  88              	.LFE17:
  89              		.size	lcdWrdata, .-lcdWrdata
  90              		.align	1
  91              		.global	lcdData
  92              		.code	16
  93              		.thumb_func
  94              		.type	lcdData, %function
  95              	lcdData:
  96              	.LFB13:
 449:lcd.c         **** {
  97              		.loc 1 449 0
  98              		.cfi_startproc
  99 002c F1B5     		push	{r0, r4, r5, r6, r7, lr}
 100              	.LCFI2:
 101              		.cfi_def_cfa_offset 24
 102              		.cfi_offset 0, -24
 103              		.cfi_offset 4, -20
 104              		.cfi_offset 5, -16
 105              		.cfi_offset 6, -12
 106              		.cfi_offset 7, -8
 107              		.cfi_offset 14, -4
 108              	.LVL5:
 449:lcd.c         **** {
 109              		.loc 1 449 0
 110 002e 0406     		lsl	r4, r0, #24
 111 0030 240E     		lsr	r4, r4, #24
 451:lcd.c         ****   selectLCD(TRUE);
 112              		.loc 1 451 0
 113 0032 0120     		mov	r0, #1
 114              	.LVL6:
 115 0034 FFF7FEFF 		bl	selectLCD
 453:lcd.c         ****   if (data <= 127)
 116              		.loc 1 453 0
 117 0038 2306     		lsl	r3, r4, #24
 118 003a 40D4     		bmi	.L7
 119              	.LVL7:
 120              	.LBB4:
 458:lcd.c         ****     data -= 30;
 121              		.loc 1 458 0
 122 003c 1E3C     		sub	r4, r4, #30
ARM GAS  C:\Users\KOZLOV~1\AppData\Local\Temp\cctyslCN.s 			page 13


 123              	.LVL8:
 459:lcd.c         ****     mapOffset = 14*data;
 124              		.loc 1 459 0
 125 003e 2406     		lsl	r4, r4, #24
 126              	.LVL9:
 127 0040 0E23     		mov	r3, #14
 128 0042 240E     		lsr	r4, r4, #24
 129 0044 191C     		mov	r1, r3
 130 0046 6143     		mul	r1, r4
 461:lcd.c         ****     lcdWrcmd(LCD_CMD_CASET);
 131              		.loc 1 461 0
 132 0048 2A20     		mov	r0, #42
 459:lcd.c         ****     mapOffset = 14*data;
 133              		.loc 1 459 0
 134 004a 0091     		str	r1, [sp]
 135              	.LVL10:
 461:lcd.c         ****     lcdWrcmd(LCD_CMD_CASET);
 136              		.loc 1 461 0
 137 004c FFF7FEFF 		bl	lcdWrcmd
 138              	.LVL11:
 462:lcd.c         ****     lcdWrdata(lcd_x+2);
 139              		.loc 1 462 0
 140 0050 204C     		ldr	r4, .L15
 141 0052 A078     		ldrb	r0, [r4, #2]
 142 0054 0230     		add	r0, r0, #2
 143 0056 0006     		lsl	r0, r0, #24
 144 0058 000E     		lsr	r0, r0, #24
 145 005a FFF7FEFF 		bl	lcdWrdata
 463:lcd.c         ****     lcdWrdata(lcd_x+9);
 146              		.loc 1 463 0
 147 005e A078     		ldrb	r0, [r4, #2]
 148 0060 0930     		add	r0, r0, #9
 149 0062 0006     		lsl	r0, r0, #24
 150 0064 000E     		lsr	r0, r0, #24
 151 0066 FFF7FEFF 		bl	lcdWrdata
 464:lcd.c         ****     lcdWrcmd(LCD_CMD_PASET);
 152              		.loc 1 464 0
 153 006a 2B20     		mov	r0, #43
 154 006c FFF7FEFF 		bl	lcdWrcmd
 465:lcd.c         ****     lcdWrdata(lcd_y+2);
 155              		.loc 1 465 0
 156 0070 E078     		ldrb	r0, [r4, #3]
 157 0072 0230     		add	r0, r0, #2
 158 0074 0006     		lsl	r0, r0, #24
 159 0076 000E     		lsr	r0, r0, #24
 160 0078 FFF7FEFF 		bl	lcdWrdata
 466:lcd.c         ****     lcdWrdata(lcd_y+15);
 161              		.loc 1 466 0
 162 007c E078     		ldrb	r0, [r4, #3]
 163 007e 0F30     		add	r0, r0, #15
 164 0080 0006     		lsl	r0, r0, #24
 165 0082 000E     		lsr	r0, r0, #24
 166 0084 FFF7FEFF 		bl	lcdWrdata
 467:lcd.c         ****     lcdWrcmd(LCD_CMD_RAMWR);
 167              		.loc 1 467 0
 168 0088 2C20     		mov	r0, #44
 169 008a FFF7FEFF 		bl	lcdWrcmd
ARM GAS  C:\Users\KOZLOV~1\AppData\Local\Temp\cctyslCN.s 			page 14


 170              	.LVL12:
 171 008e 0026     		mov	r6, #0
 172              	.LVL13:
 173              	.L11:
 448:lcd.c         **** lcdData(tU8 data)
 174              		.loc 1 448 0
 175 0090 114A     		ldr	r2, .L15+4
 176 0092 0099     		ldr	r1, [sp]
 177 0094 5318     		add	r3, r2, r1
 471:lcd.c         ****       byteToShift = charMap[mapOffset++];
 178              		.loc 1 471 0
 179 0096 9C5D     		ldrb	r4, [r3, r6]
 180              	.LVL14:
 181 0098 0E4F     		ldr	r7, .L15
 182 009a 0825     		mov	r5, #8
 183              	.LVL15:
 184              	.L10:
 474:lcd.c         ****         if (byteToShift & 0x80)
 185              		.loc 1 474 0
 186 009c 2306     		lsl	r3, r4, #24
 187 009e 01D5     		bpl	.L8
 475:lcd.c         ****           lcdWrdata(textColor);
 188              		.loc 1 475 0
 189 00a0 7878     		ldrb	r0, [r7, #1]
 190 00a2 00E0     		b	.L14
 191              	.L8:
 477:lcd.c         ****           lcdWrdata(bkgColor);
 192              		.loc 1 477 0
 193 00a4 3878     		ldrb	r0, [r7]
 194              	.L14:
 478:lcd.c         ****         byteToShift <<= 1;
 195              		.loc 1 478 0
 196 00a6 6400     		lsl	r4, r4, #1
 197 00a8 013D     		sub	r5, r5, #1
 198 00aa 2406     		lsl	r4, r4, #24
 199 00ac 2D06     		lsl	r5, r5, #24
 477:lcd.c         ****           lcdWrdata(bkgColor);
 200              		.loc 1 477 0
 201 00ae FFF7FEFF 		bl	lcdWrdata
 478:lcd.c         ****         byteToShift <<= 1;
 202              		.loc 1 478 0
 203 00b2 240E     		lsr	r4, r4, #24
 204              	.LVL16:
 205 00b4 2D0E     		lsr	r5, r5, #24
 472:lcd.c         ****       for(j=0; j<8; j++)
 206              		.loc 1 472 0
 207 00b6 F1D1     		bne	.L10
 208 00b8 0136     		add	r6, r6, #1
 469:lcd.c         ****     for(i=0; i<14; i++)
 209              		.loc 1 469 0
 210 00ba 0E2E     		cmp	r6, #14
 211 00bc E8D1     		bne	.L11
 212              	.LVL17:
 213              	.L7:
 214              	.LBE4:
 484:lcd.c         ****   selectLCD(FALSE);
 215              		.loc 1 484 0
ARM GAS  C:\Users\KOZLOV~1\AppData\Local\Temp\cctyslCN.s 			page 15


 216 00be 0020     		mov	r0, #0
 217 00c0 FFF7FEFF 		bl	selectLCD
 486:lcd.c         ****   lcd_x += 8;
 218              		.loc 1 486 0
 219 00c4 034B     		ldr	r3, .L15
 220 00c6 9A78     		ldrb	r2, [r3, #2]
 221 00c8 0832     		add	r2, r2, #8
 222 00ca 9A70     		strb	r2, [r3, #2]
 487:lcd.c         **** }
 223              		.loc 1 487 0
 224              		@ sp needed for prologue
 225 00cc F1BC     		pop	{r0, r4, r5, r6, r7}
 226 00ce 01BC     		pop	{r0}
 227 00d0 0047     		bx	r0
 228              	.L16:
 229 00d2 C046     		.align	2
 230              	.L15:
 231 00d4 00000000 		.word	.LANCHOR0
 232 00d8 00000000 		.word	.LANCHOR1
 233              		.cfi_endproc
 234              	.LFE13:
 235              		.size	lcdData, .-lcdData
 236              		.align	1
 237              		.global	lcdPutchar
 238              		.code	16
 239              		.thumb_func
 240              		.type	lcdPutchar, %function
 241              	lcdPutchar:
 242              	.LFB14:
 499:lcd.c         **** {
 243              		.loc 1 499 0
 244              		.cfi_startproc
 245 00dc 00B5     		push	{lr}
 246              	.LCFI3:
 247              		.cfi_def_cfa_offset 4
 248              		.cfi_offset 14, -4
 249              	.LVL18:
 499:lcd.c         **** {
 250              		.loc 1 499 0
 251 00de 0006     		lsl	r0, r0, #24
 252              	.LVL19:
 253 00e0 000E     		lsr	r0, r0, #24
 500:lcd.c         ****   if (data == '\n')
 254              		.loc 1 500 0
 255 00e2 0A28     		cmp	r0, #10
 256 00e4 0CD1     		bne	.L18
 257              	.LBB5:
 258              	.LBB6:
 433:lcd.c         ****   lcd_x  = 0;
 259              		.loc 1 433 0
 260 00e6 114B     		ldr	r3, .L23
 261 00e8 0022     		mov	r2, #0
 262 00ea 9A70     		strb	r2, [r3, #2]
 434:lcd.c         ****   lcd_y	+= 14;
 263              		.loc 1 434 0
 264 00ec DA78     		ldrb	r2, [r3, #3]
 265 00ee 0E32     		add	r2, r2, #14
ARM GAS  C:\Users\KOZLOV~1\AppData\Local\Temp\cctyslCN.s 			page 16


 266 00f0 1206     		lsl	r2, r2, #24
 267 00f2 120E     		lsr	r2, r2, #24
 268 00f4 DA70     		strb	r2, [r3, #3]
 435:lcd.c         ****   if (lcd_y >= 126)
 269              		.loc 1 435 0
 270 00f6 7D2A     		cmp	r2, #125
 271 00f8 15D9     		bls	.L17
 436:lcd.c         ****     lcd_y = 126;
 272              		.loc 1 436 0
 273 00fa 7E22     		mov	r2, #126
 274 00fc DA70     		strb	r2, [r3, #3]
 275 00fe 12E0     		b	.L17
 276              	.L18:
 277              	.LBE6:
 278              	.LBE5:
 502:lcd.c         ****   else if (data != '\r')
 279              		.loc 1 502 0
 280 0100 0D28     		cmp	r0, #13
 281 0102 10D0     		beq	.L17
 504:lcd.c         ****     if (setcolmark == TRUE)
 282              		.loc 1 504 0
 283 0104 094B     		ldr	r3, .L23
 284 0106 1A79     		ldrb	r2, [r3, #4]
 285 0108 012A     		cmp	r2, #1
 286 010a 02D1     		bne	.L20
 506:lcd.c         ****       textColor = data;
 287              		.loc 1 506 0
 288 010c 5870     		strb	r0, [r3, #1]
 507:lcd.c         ****       setcolmark = FALSE;
 289              		.loc 1 507 0
 290 010e 0022     		mov	r2, #0
 291 0110 02E0     		b	.L22
 292              	.L20:
 509:lcd.c         ****     else if (data == 0xff)
 293              		.loc 1 509 0
 294 0112 FF28     		cmp	r0, #255
 295 0114 02D1     		bne	.L21
 510:lcd.c         ****       setcolmark = TRUE;
 296              		.loc 1 510 0
 297 0116 0122     		mov	r2, #1
 298              	.L22:
 299 0118 1A71     		strb	r2, [r3, #4]
 300 011a 04E0     		b	.L17
 301              	.L21:
 511:lcd.c         ****     else if (lcd_x <= 124)
 302              		.loc 1 511 0
 303 011c 9B78     		ldrb	r3, [r3, #2]
 304 011e 7C2B     		cmp	r3, #124
 305 0120 01D8     		bhi	.L17
 513:lcd.c         ****       lcdData(data);
 306              		.loc 1 513 0
 307 0122 FFF7FEFF 		bl	lcdData
 308              	.L17:
 516:lcd.c         **** }
 309              		.loc 1 516 0
 310              		@ sp needed for prologue
 311 0126 01BC     		pop	{r0}
ARM GAS  C:\Users\KOZLOV~1\AppData\Local\Temp\cctyslCN.s 			page 17


 312 0128 0047     		bx	r0
 313              	.L24:
 314 012a C046     		.align	2
 315              	.L23:
 316 012c 00000000 		.word	.LANCHOR0
 317              		.cfi_endproc
 318              	.LFE14:
 319              		.size	lcdPutchar, .-lcdPutchar
 320              		.align	1
 321              		.global	lcdPuts
 322              		.code	16
 323              		.thumb_func
 324              		.type	lcdPuts, %function
 325              	lcdPuts:
 326              	.LFB15:
 526:lcd.c         **** {
 327              		.loc 1 526 0
 328              		.cfi_startproc
 329 0130 10B5     		push	{r4, lr}
 330              	.LCFI4:
 331              		.cfi_def_cfa_offset 8
 332              		.cfi_offset 4, -8
 333              		.cfi_offset 14, -4
 334              	.LVL20:
 526:lcd.c         **** {
 335              		.loc 1 526 0
 336 0132 041C     		mov	r4, r0
 527:lcd.c         ****   while(*s != '\0')
 337              		.loc 1 527 0
 338 0134 02E0     		b	.L26
 339              	.LVL21:
 340              	.L27:
 528:lcd.c         ****     lcdPutchar(*s++);
 341              		.loc 1 528 0
 342 0136 0134     		add	r4, r4, #1
 343              	.LVL22:
 344 0138 FFF7FEFF 		bl	lcdPutchar
 345              	.L26:
 527:lcd.c         ****   while(*s != '\0')
 346              		.loc 1 527 0 discriminator 1
 347 013c 2078     		ldrb	r0, [r4]
 348 013e 0028     		cmp	r0, #0
 349 0140 F9D1     		bne	.L27
 529:lcd.c         **** }
 350              		.loc 1 529 0
 351              		@ sp needed for prologue
 352              	.LVL23:
 353 0142 10BC     		pop	{r4}
 354 0144 01BC     		pop	{r0}
 355 0146 0047     		bx	r0
 356              		.cfi_endproc
 357              	.LFE15:
 358              		.size	lcdPuts, .-lcdPuts
 359              		.align	1
 360              		.code	16
 361              		.thumb_func
 362              		.type	lcdWindow1, %function
ARM GAS  C:\Users\KOZLOV~1\AppData\Local\Temp\cctyslCN.s 			page 18


 363              	lcdWindow1:
 364              	.LFB11:
 413:lcd.c         **** {
 365              		.loc 1 413 0
 366              		.cfi_startproc
 367 0148 F0B5     		push	{r4, r5, r6, r7, lr}
 368              	.LCFI5:
 369              		.cfi_def_cfa_offset 20
 370              		.cfi_offset 4, -20
 371              		.cfi_offset 5, -16
 372              		.cfi_offset 6, -12
 373              		.cfi_offset 7, -8
 374              		.cfi_offset 14, -4
 375              	.LVL24:
 413:lcd.c         **** {
 376              		.loc 1 413 0
 377 014a 0406     		lsl	r4, r0, #24
 378 014c 240E     		lsr	r4, r4, #24
 379 014e 1506     		lsl	r5, r2, #24
 414:lcd.c         ****   lcdWrcmd(LCD_CMD_CASET);    //set X
 380              		.loc 1 414 0
 381 0150 2A20     		mov	r0, #42
 382              	.LVL25:
 415:lcd.c         ****   lcdWrdata(xp+2);
 383              		.loc 1 415 0
 384 0152 0234     		add	r4, r4, #2
 413:lcd.c         **** {
 385              		.loc 1 413 0
 386 0154 0E06     		lsl	r6, r1, #24
 387 0156 1F06     		lsl	r7, r3, #24
 388 0158 2D0E     		lsr	r5, r5, #24
 414:lcd.c         ****   lcdWrcmd(LCD_CMD_CASET);    //set X
 389              		.loc 1 414 0
 390 015a FFF7FEFF 		bl	lcdWrcmd
 391              	.LVL26:
 415:lcd.c         ****   lcdWrdata(xp+2);
 392              		.loc 1 415 0
 393 015e 2006     		lsl	r0, r4, #24
 416:lcd.c         ****   lcdWrdata(xe+2);
 394              		.loc 1 416 0
 395 0160 0235     		add	r5, r5, #2
 415:lcd.c         ****   lcdWrdata(xp+2);
 396              		.loc 1 415 0
 397 0162 000E     		lsr	r0, r0, #24
 398 0164 FFF7FEFF 		bl	lcdWrdata
 416:lcd.c         ****   lcdWrdata(xe+2);
 399              		.loc 1 416 0
 400 0168 2806     		lsl	r0, r5, #24
 401 016a 000E     		lsr	r0, r0, #24
 413:lcd.c         **** {
 402              		.loc 1 413 0
 403 016c 360E     		lsr	r6, r6, #24
 416:lcd.c         ****   lcdWrdata(xe+2);
 404              		.loc 1 416 0
 405 016e FFF7FEFF 		bl	lcdWrdata
 419:lcd.c         ****   lcdWrdata(yp+2);
 406              		.loc 1 419 0
ARM GAS  C:\Users\KOZLOV~1\AppData\Local\Temp\cctyslCN.s 			page 19


 407 0172 0236     		add	r6, r6, #2
 418:lcd.c         ****   lcdWrcmd(LCD_CMD_PASET);    //set Y
 408              		.loc 1 418 0
 409 0174 2B20     		mov	r0, #43
 410 0176 FFF7FEFF 		bl	lcdWrcmd
 413:lcd.c         **** {
 411              		.loc 1 413 0
 412 017a 3F0E     		lsr	r7, r7, #24
 419:lcd.c         ****   lcdWrdata(yp+2);
 413              		.loc 1 419 0
 414 017c 3006     		lsl	r0, r6, #24
 420:lcd.c         ****   lcdWrdata(ye+2);
 415              		.loc 1 420 0
 416 017e 0237     		add	r7, r7, #2
 419:lcd.c         ****   lcdWrdata(yp+2);
 417              		.loc 1 419 0
 418 0180 000E     		lsr	r0, r0, #24
 419 0182 FFF7FEFF 		bl	lcdWrdata
 420:lcd.c         ****   lcdWrdata(ye+2);
 420              		.loc 1 420 0
 421 0186 3806     		lsl	r0, r7, #24
 422 0188 000E     		lsr	r0, r0, #24
 423 018a FFF7FEFF 		bl	lcdWrdata
 421:lcd.c         **** }
 424              		.loc 1 421 0
 425              		@ sp needed for prologue
 426 018e F0BC     		pop	{r4, r5, r6, r7}
 427 0190 01BC     		pop	{r0}
 428 0192 0047     		bx	r0
 429              		.cfi_endproc
 430              	.LFE11:
 431              		.size	lcdWindow1, .-lcdWindow1
 432              		.align	1
 433              		.global	lcdWindow
 434              		.code	16
 435              		.thumb_func
 436              		.type	lcdWindow, %function
 437              	lcdWindow:
 438              	.LFB10:
 392:lcd.c         **** {
 439              		.loc 1 392 0
 440              		.cfi_startproc
 441 0194 F0B5     		push	{r4, r5, r6, r7, lr}
 442              	.LCFI6:
 443              		.cfi_def_cfa_offset 20
 444              		.cfi_offset 4, -20
 445              		.cfi_offset 5, -16
 446              		.cfi_offset 6, -12
 447              		.cfi_offset 7, -8
 448              		.cfi_offset 14, -4
 449              	.LVL27:
 392:lcd.c         **** {
 450              		.loc 1 392 0
 451 0196 0E06     		lsl	r6, r1, #24
 452 0198 1706     		lsl	r7, r2, #24
 453 019a 1C06     		lsl	r4, r3, #24
 454 019c 0506     		lsl	r5, r0, #24
ARM GAS  C:\Users\KOZLOV~1\AppData\Local\Temp\cctyslCN.s 			page 20


 455 019e 2D0E     		lsr	r5, r5, #24
 456 01a0 360E     		lsr	r6, r6, #24
 457 01a2 3F0E     		lsr	r7, r7, #24
 458 01a4 240E     		lsr	r4, r4, #24
 394:lcd.c         ****   selectLCD(TRUE);
 459              		.loc 1 394 0
 460 01a6 0120     		mov	r0, #1
 461              	.LVL28:
 462 01a8 FFF7FEFF 		bl	selectLCD
 463              	.LVL29:
 396:lcd.c         ****   lcdWindow1(xp, yp, xe, ye);
 464              		.loc 1 396 0
 465 01ac 281C     		mov	r0, r5
 466 01ae 311C     		mov	r1, r6
 467 01b0 3A1C     		mov	r2, r7
 468 01b2 231C     		mov	r3, r4
 469 01b4 FFF7C8FF 		bl	lcdWindow1
 399:lcd.c         ****   selectLCD(FALSE);
 470              		.loc 1 399 0
 471 01b8 0020     		mov	r0, #0
 472 01ba FFF7FEFF 		bl	selectLCD
 400:lcd.c         **** }
 473              		.loc 1 400 0
 474              		@ sp needed for prologue
 475 01be F0BC     		pop	{r4, r5, r6, r7}
 476 01c0 01BC     		pop	{r0}
 477 01c2 0047     		bx	r0
 478              		.cfi_endproc
 479              	.LFE10:
 480              		.size	lcdWindow, .-lcdWindow
 481              		.align	1
 482              		.global	lcdGotoxy
 483              		.code	16
 484              		.thumb_func
 485              		.type	lcdGotoxy, %function
 486              	lcdGotoxy:
 487              	.LFB9:
 375:lcd.c         **** {
 488              		.loc 1 375 0
 489              		.cfi_startproc
 490 01c4 00B5     		push	{lr}
 491              	.LCFI7:
 492              		.cfi_def_cfa_offset 4
 493              		.cfi_offset 14, -4
 494              	.LVL30:
 376:lcd.c         ****   lcd_x = x;
 495              		.loc 1 376 0
 496 01c6 064B     		ldr	r3, .L31
 375:lcd.c         **** {
 497              		.loc 1 375 0
 498 01c8 0006     		lsl	r0, r0, #24
 499              	.LVL31:
 500 01ca 0906     		lsl	r1, r1, #24
 501              	.LVL32:
 502 01cc 000E     		lsr	r0, r0, #24
 503 01ce 090E     		lsr	r1, r1, #24
 378:lcd.c         ****   lcdWindow(x, y, 129, 129);
ARM GAS  C:\Users\KOZLOV~1\AppData\Local\Temp\cctyslCN.s 			page 21


 504              		.loc 1 378 0
 505 01d0 8122     		mov	r2, #129
 376:lcd.c         ****   lcd_x = x;
 506              		.loc 1 376 0
 507 01d2 9870     		strb	r0, [r3, #2]
 377:lcd.c         ****   lcd_y = y;
 508              		.loc 1 377 0
 509 01d4 D970     		strb	r1, [r3, #3]
 378:lcd.c         ****   lcdWindow(x, y, 129, 129);
 510              		.loc 1 378 0
 511 01d6 131C     		mov	r3, r2
 512 01d8 FFF7FEFF 		bl	lcdWindow
 379:lcd.c         **** }
 513              		.loc 1 379 0
 514              		@ sp needed for prologue
 515 01dc 01BC     		pop	{r0}
 516 01de 0047     		bx	r0
 517              	.L32:
 518              		.align	2
 519              	.L31:
 520 01e0 00000000 		.word	.LANCHOR0
 521              		.cfi_endproc
 522              	.LFE9:
 523              		.size	lcdGotoxy, .-lcdGotoxy
 524              		.align	1
 525              		.global	lcdIcon
 526              		.code	16
 527              		.thumb_func
 528              		.type	lcdIcon, %function
 529              	lcdIcon:
 530              	.LFB8:
 326:lcd.c         **** {
 531              		.loc 1 326 0
 532              		.cfi_startproc
 533 01e4 F7B5     		push	{r0, r1, r2, r4, r5, r6, r7, lr}
 534              	.LCFI8:
 535              		.cfi_def_cfa_offset 32
 536              		.cfi_offset 0, -32
 537              		.cfi_offset 1, -28
 538              		.cfi_offset 2, -24
 539              		.cfi_offset 4, -20
 540              		.cfi_offset 5, -16
 541              		.cfi_offset 6, -12
 542              		.cfi_offset 7, -8
 543              		.cfi_offset 14, -4
 544              	.LVL33:
 326:lcd.c         **** {
 545              		.loc 1 326 0
 546 01e6 1E06     		lsl	r6, r3, #24
 547 01e8 089B     		ldr	r3, [sp, #32]
 548              	.LVL34:
 549 01ea 1B06     		lsl	r3, r3, #24
 550 01ec 1B0E     		lsr	r3, r3, #24
 551 01ee 0193     		str	r3, [sp, #4]
 552 01f0 099B     		ldr	r3, [sp, #36]
 553 01f2 1206     		lsl	r2, r2, #24
 554              	.LVL35:
ARM GAS  C:\Users\KOZLOV~1\AppData\Local\Temp\cctyslCN.s 			page 22


 555 01f4 1B06     		lsl	r3, r3, #24
 556 01f6 120E     		lsr	r2, r2, #24
 557 01f8 1B0E     		lsr	r3, r3, #24
 558 01fa 0706     		lsl	r7, r0, #24
 331:lcd.c         ****   selectLCD(TRUE);   
 559              		.loc 1 331 0
 560 01fc 0120     		mov	r0, #1
 561              	.LVL36:
 326:lcd.c         **** {
 562              		.loc 1 326 0
 563 01fe 0C06     		lsl	r4, r1, #24
 564 0200 3F0E     		lsr	r7, r7, #24
 565 0202 0092     		str	r2, [sp]
 566 0204 0293     		str	r3, [sp, #8]
 567 0206 0A9D     		ldr	r5, [sp, #40]
 331:lcd.c         ****   selectLCD(TRUE);   
 568              		.loc 1 331 0
 569 0208 FFF7FEFF 		bl	selectLCD
 570              	.LVL37:
 333:lcd.c         ****   lcdWindow1(x,y,x+xLen-1,y+yLen-1);
 571              		.loc 1 333 0
 572 020c 009B     		ldr	r3, [sp]
 326:lcd.c         **** {
 573              		.loc 1 326 0
 574 020e 240E     		lsr	r4, r4, #24
 333:lcd.c         ****   lcdWindow1(x,y,x+xLen-1,y+yLen-1);
 575              		.loc 1 333 0
 576 0210 7A1E     		sub	r2, r7, #1
 326:lcd.c         **** {
 577              		.loc 1 326 0
 578 0212 360E     		lsr	r6, r6, #24
 333:lcd.c         ****   lcdWindow1(x,y,x+xLen-1,y+yLen-1);
 579              		.loc 1 333 0
 580 0214 9A18     		add	r2, r3, r2
 581 0216 631E     		sub	r3, r4, #1
 582 0218 F318     		add	r3, r6, r3
 583 021a 1206     		lsl	r2, r2, #24
 584 021c 1B06     		lsl	r3, r3, #24
 585 021e 120E     		lsr	r2, r2, #24
 586 0220 211C     		mov	r1, r4
 587 0222 1B0E     		lsr	r3, r3, #24
 588 0224 381C     		mov	r0, r7
 589 0226 FFF78FFF 		bl	lcdWindow1
 335:lcd.c         ****   lcdWrcmd(LCD_CMD_RAMWR);    //write memory
 590              		.loc 1 335 0
 591 022a 2C20     		mov	r0, #44
 592 022c FFF7FEFF 		bl	lcdWrcmd
 337:lcd.c         ****   len = xLen*yLen;
 593              		.loc 1 337 0
 594 0230 009A     		ldr	r2, [sp]
 325:lcd.c         **** lcdIcon(tU8 x, tU8 y, tU8 xLen, tU8 yLen, tU8 compressionOn, tU8 escapeChar, const tU8* pData)
 595              		.loc 1 325 0
 596 0232 019C     		ldr	r4, [sp, #4]
 337:lcd.c         ****   len = xLen*yLen;
 597              		.loc 1 337 0
 598 0234 5643     		mul	r6, r2
 599              	.LVL38:
ARM GAS  C:\Users\KOZLOV~1\AppData\Local\Temp\cctyslCN.s 			page 23


 338:lcd.c         ****   if (compressionOn == FALSE)
 600              		.loc 1 338 0
 601 0236 002C     		cmp	r4, #0
 602 0238 04D0     		beq	.L44
 603 023a 1AE0     		b	.L45
 604              	.LVL39:
 605              	.L37:
 341:lcd.c         ****       lcdWrdata(*pData++);
 606              		.loc 1 341 0 discriminator 2
 607 023c 285D     		ldrb	r0, [r5, r4]
 608 023e FFF7FEFF 		bl	lcdWrdata
 340:lcd.c         ****     for(i=0; i<len; i++)
 609              		.loc 1 340 0 discriminator 2
 610 0242 0134     		add	r4, r4, #1
 611              	.LVL40:
 612              	.L44:
 340:lcd.c         ****     for(i=0; i<len; i++)
 613              		.loc 1 340 0 is_stmt 0 discriminator 1
 614 0244 B442     		cmp	r4, r6
 615 0246 F9D1     		bne	.L37
 616 0248 15E0     		b	.L38
 617              	.LVL41:
 618              	.L43:
 346:lcd.c         ****       if(*pData == escapeChar)
 619              		.loc 1 346 0 is_stmt 1
 620 024a 2878     		ldrb	r0, [r5]
 621 024c 029B     		ldr	r3, [sp, #8]
 622 024e 9842     		cmp	r0, r3
 623 0250 0BD1     		bne	.L39
 624              	.LVL42:
 349:lcd.c         ****         j = *pData++;
 625              		.loc 1 349 0
 626 0252 6C78     		ldrb	r4, [r5, #1]
 627              	.LVL43:
 350:lcd.c         ****         for(i=0;i<j;i++)
 628              		.loc 1 350 0
 629 0254 0027     		mov	r7, #0
 630 0256 03E0     		b	.L40
 631              	.LVL44:
 632              	.L41:
 351:lcd.c         ****           lcdWrdata(*pData);
 633              		.loc 1 351 0 discriminator 2
 634 0258 A878     		ldrb	r0, [r5, #2]
 635 025a FFF7FEFF 		bl	lcdWrdata
 350:lcd.c         ****         for(i=0;i<j;i++)
 636              		.loc 1 350 0 discriminator 2
 637 025e 0137     		add	r7, r7, #1
 638              	.LVL45:
 639              	.L40:
 350:lcd.c         ****         for(i=0;i<j;i++)
 640              		.loc 1 350 0 is_stmt 0 discriminator 1
 641 0260 A742     		cmp	r7, r4
 642 0262 F9D3     		bcc	.L41
 352:lcd.c         ****         pData++;
 643              		.loc 1 352 0 is_stmt 1
 644 0264 0335     		add	r5, r5, #3
 645              	.LVL46:
ARM GAS  C:\Users\KOZLOV~1\AppData\Local\Temp\cctyslCN.s 			page 24


 353:lcd.c         ****         len -= j;
 646              		.loc 1 353 0
 647 0266 361B     		sub	r6, r6, r4
 648              	.LVL47:
 649 0268 03E0     		b	.L45
 650              	.LVL48:
 651              	.L39:
 357:lcd.c         ****         lcdWrdata(*pData++);
 652              		.loc 1 357 0
 653 026a FFF7FEFF 		bl	lcdWrdata
 654 026e 0135     		add	r5, r5, #1
 655              	.LVL49:
 358:lcd.c         ****         len--;
 656              		.loc 1 358 0
 657 0270 013E     		sub	r6, r6, #1
 658              	.LVL50:
 659              	.L45:
 344:lcd.c         ****     while(len > 0)
 660              		.loc 1 344 0 discriminator 1
 661 0272 002E     		cmp	r6, #0
 662 0274 E9DC     		bgt	.L43
 663              	.LVL51:
 664              	.L38:
 363:lcd.c         ****   selectLCD(FALSE);
 665              		.loc 1 363 0
 666 0276 0020     		mov	r0, #0
 667 0278 FFF7FEFF 		bl	selectLCD
 364:lcd.c         **** }
 668              		.loc 1 364 0
 669              		@ sp needed for prologue
 670              	.LVL52:
 671 027c F7BC     		pop	{r0, r1, r2, r4, r5, r6, r7}
 672 027e 01BC     		pop	{r0}
 673 0280 0047     		bx	r0
 674              		.cfi_endproc
 675              	.LFE8:
 676              		.size	lcdIcon, .-lcdIcon
 677              		.align	1
 678              		.global	lcdRectBrd
 679              		.code	16
 680              		.thumb_func
 681              		.type	lcdRectBrd, %function
 682              	lcdRectBrd:
 683              	.LFB7:
 283:lcd.c         **** {
 684              		.loc 1 283 0
 685              		.cfi_startproc
 686 0282 FFB5     		push	{r0, r1, r2, r3, r4, r5, r6, r7, lr}
 687              	.LCFI9:
 688              		.cfi_def_cfa_offset 36
 689              		.cfi_offset 0, -36
 690              		.cfi_offset 1, -32
 691              		.cfi_offset 2, -28
 692              		.cfi_offset 3, -24
 693              		.cfi_offset 4, -20
 694              		.cfi_offset 5, -16
 695              		.cfi_offset 6, -12
ARM GAS  C:\Users\KOZLOV~1\AppData\Local\Temp\cctyslCN.s 			page 25


 696              		.cfi_offset 7, -8
 697              		.cfi_offset 14, -4
 698              	.LVL53:
 283:lcd.c         **** {
 699              		.loc 1 283 0
 700 0284 1B06     		lsl	r3, r3, #24
 701              	.LVL54:
 702 0286 1B0E     		lsr	r3, r3, #24
 703 0288 0093     		str	r3, [sp]
 704 028a 099B     		ldr	r3, [sp, #36]
 705 028c 1B06     		lsl	r3, r3, #24
 706 028e 1B0E     		lsr	r3, r3, #24
 707 0290 0393     		str	r3, [sp, #12]
 708 0292 0A9B     		ldr	r3, [sp, #40]
 709 0294 1B06     		lsl	r3, r3, #24
 710 0296 1B0E     		lsr	r3, r3, #24
 711 0298 0193     		str	r3, [sp, #4]
 712 029a 0B9B     		ldr	r3, [sp, #44]
 713 029c 1B06     		lsl	r3, r3, #24
 714 029e 0E06     		lsl	r6, r1, #24
 715 02a0 1B0E     		lsr	r3, r3, #24
 716 02a2 0406     		lsl	r4, r0, #24
 287:lcd.c         ****   selectLCD(TRUE);   
 717              		.loc 1 287 0
 718 02a4 0120     		mov	r0, #1
 719              	.LVL55:
 283:lcd.c         **** {
 720              		.loc 1 283 0
 721 02a6 240E     		lsr	r4, r4, #24
 722 02a8 1506     		lsl	r5, r2, #24
 723 02aa 360E     		lsr	r6, r6, #24
 724 02ac 0293     		str	r3, [sp, #8]
 287:lcd.c         ****   selectLCD(TRUE);   
 725              		.loc 1 287 0
 726 02ae FFF7FEFF 		bl	selectLCD
 727              	.LVL56:
 289:lcd.c         ****   lcdWindow1(x,y,x+xLen-1,y+yLen-1);
 728              		.loc 1 289 0
 729 02b2 0099     		ldr	r1, [sp]
 730 02b4 621E     		sub	r2, r4, #1
 283:lcd.c         **** {
 731              		.loc 1 283 0
 732 02b6 2D0E     		lsr	r5, r5, #24
 289:lcd.c         ****   lcdWindow1(x,y,x+xLen-1,y+yLen-1);
 733              		.loc 1 289 0
 734 02b8 731E     		sub	r3, r6, #1
 735 02ba CB18     		add	r3, r1, r3
 736 02bc AA18     		add	r2, r5, r2
 737 02be 1206     		lsl	r2, r2, #24
 738 02c0 1B06     		lsl	r3, r3, #24
 739 02c2 201C     		mov	r0, r4
 740 02c4 120E     		lsr	r2, r2, #24
 741 02c6 1B0E     		lsr	r3, r3, #24
 742 02c8 311C     		mov	r1, r6
 743 02ca FFF73DFF 		bl	lcdWindow1
 291:lcd.c         ****   lcdWrcmd(LCD_CMD_RAMWR);    //write memory
 744              		.loc 1 291 0
ARM GAS  C:\Users\KOZLOV~1\AppData\Local\Temp\cctyslCN.s 			page 26


 745 02ce 2C20     		mov	r0, #44
 746 02d0 FFF7FEFF 		bl	lcdWrcmd
 747              	.LVL57:
 293:lcd.c         ****   for(i=0; i<xLen; i++)
 748              		.loc 1 293 0
 749 02d4 0024     		mov	r4, #0
 750 02d6 03E0     		b	.L47
 751              	.LVL58:
 752              	.L48:
 294:lcd.c         ****     lcdWrdata(color2);
 753              		.loc 1 294 0 discriminator 2
 754 02d8 0198     		ldr	r0, [sp, #4]
 755 02da FFF7FEFF 		bl	lcdWrdata
 293:lcd.c         ****   for(i=0; i<xLen; i++)
 756              		.loc 1 293 0 discriminator 2
 757 02de 0134     		add	r4, r4, #1
 758              	.LVL59:
 759              	.L47:
 293:lcd.c         ****   for(i=0; i<xLen; i++)
 760              		.loc 1 293 0 is_stmt 0 discriminator 1
 761 02e0 AC42     		cmp	r4, r5
 762 02e2 F9D3     		bcc	.L48
 295:lcd.c         ****   for(j=1; j<(yLen-2); j++)
 763              		.loc 1 295 0 is_stmt 1
 764 02e4 009B     		ldr	r3, [sp]
 765 02e6 023B     		sub	r3, r3, #2
 293:lcd.c         ****   for(i=0; i<xLen; i++)
 766              		.loc 1 293 0
 767 02e8 0127     		mov	r7, #1
 295:lcd.c         ****   for(j=1; j<(yLen-2); j++)
 768              		.loc 1 295 0
 769 02ea 0093     		str	r3, [sp]
 770 02ec 0FE0     		b	.L49
 771              	.LVL60:
 772              	.L52:
 297:lcd.c         ****     lcdWrdata(color2);
 773              		.loc 1 297 0
 774 02ee 0198     		ldr	r0, [sp, #4]
 775 02f0 FFF7FEFF 		bl	lcdWrdata
 776              	.LVL61:
 298:lcd.c         ****     for(i=0; i<(xLen-2); i++)
 777              		.loc 1 298 0
 778 02f4 0026     		mov	r6, #0
 779 02f6 AC1E     		sub	r4, r5, #2
 780 02f8 03E0     		b	.L50
 781              	.LVL62:
 782              	.L51:
 299:lcd.c         ****       lcdWrdata(color1);
 783              		.loc 1 299 0 discriminator 2
 784 02fa 0398     		ldr	r0, [sp, #12]
 785 02fc FFF7FEFF 		bl	lcdWrdata
 298:lcd.c         ****     for(i=0; i<(xLen-2); i++)
 786              		.loc 1 298 0 discriminator 2
 787 0300 0136     		add	r6, r6, #1
 788              	.LVL63:
 789              	.L50:
 298:lcd.c         ****     for(i=0; i<(xLen-2); i++)
ARM GAS  C:\Users\KOZLOV~1\AppData\Local\Temp\cctyslCN.s 			page 27


 790              		.loc 1 298 0 is_stmt 0 discriminator 1
 791 0302 A642     		cmp	r6, r4
 792 0304 F9D3     		bcc	.L51
 300:lcd.c         ****     lcdWrdata(color3);
 793              		.loc 1 300 0 is_stmt 1
 794 0306 0298     		ldr	r0, [sp, #8]
 795 0308 FFF7FEFF 		bl	lcdWrdata
 295:lcd.c         ****   for(j=1; j<(yLen-2); j++)
 796              		.loc 1 295 0
 797 030c 0137     		add	r7, r7, #1
 798              	.LVL64:
 799              	.L49:
 295:lcd.c         ****   for(j=1; j<(yLen-2); j++)
 800              		.loc 1 295 0 is_stmt 0 discriminator 1
 801 030e 0099     		ldr	r1, [sp]
 802 0310 8F42     		cmp	r7, r1
 803 0312 ECD3     		bcc	.L52
 295:lcd.c         ****   for(j=1; j<(yLen-2); j++)
 804              		.loc 1 295 0
 805 0314 0024     		mov	r4, #0
 806 0316 03E0     		b	.L53
 807              	.LVL65:
 808              	.L54:
 303:lcd.c         ****     lcdWrdata(color3);
 809              		.loc 1 303 0 is_stmt 1 discriminator 2
 810 0318 0298     		ldr	r0, [sp, #8]
 811 031a FFF7FEFF 		bl	lcdWrdata
 302:lcd.c         ****   for(i=0; i<xLen; i++)
 812              		.loc 1 302 0 discriminator 2
 813 031e 0134     		add	r4, r4, #1
 814              	.LVL66:
 815              	.L53:
 302:lcd.c         ****   for(i=0; i<xLen; i++)
 816              		.loc 1 302 0 is_stmt 0 discriminator 1
 817 0320 AC42     		cmp	r4, r5
 818 0322 F9D3     		bcc	.L54
 306:lcd.c         ****   selectLCD(FALSE);
 819              		.loc 1 306 0 is_stmt 1
 820 0324 0020     		mov	r0, #0
 821 0326 FFF7FEFF 		bl	selectLCD
 307:lcd.c         **** }
 822              		.loc 1 307 0
 823              		@ sp needed for prologue
 824              	.LVL67:
 825              	.LVL68:
 826 032a FFBC     		pop	{r0, r1, r2, r3, r4, r5, r6, r7}
 827 032c 01BC     		pop	{r0}
 828 032e 0047     		bx	r0
 829              		.cfi_endproc
 830              	.LFE7:
 831              		.size	lcdRectBrd, .-lcdRectBrd
 832              		.align	1
 833              		.global	lcdRect
 834              		.code	16
 835              		.thumb_func
 836              		.type	lcdRect, %function
 837              	lcdRect:
ARM GAS  C:\Users\KOZLOV~1\AppData\Local\Temp\cctyslCN.s 			page 28


 838              	.LFB6:
 254:lcd.c         **** {
 839              		.loc 1 254 0
 840              		.cfi_startproc
 841 0330 F1B5     		push	{r0, r4, r5, r6, r7, lr}
 842              	.LCFI10:
 843              		.cfi_def_cfa_offset 24
 844              		.cfi_offset 0, -24
 845              		.cfi_offset 4, -20
 846              		.cfi_offset 5, -16
 847              		.cfi_offset 6, -12
 848              		.cfi_offset 7, -8
 849              		.cfi_offset 14, -4
 850              	.LVL69:
 254:lcd.c         **** {
 851              		.loc 1 254 0
 852 0332 1C06     		lsl	r4, r3, #24
 853 0334 069B     		ldr	r3, [sp, #24]
 854              	.LVL70:
 855 0336 0E06     		lsl	r6, r1, #24
 856 0338 0506     		lsl	r5, r0, #24
 857 033a 1B06     		lsl	r3, r3, #24
 858 033c 2D0E     		lsr	r5, r5, #24
 859 033e 1706     		lsl	r7, r2, #24
 860 0340 1B0E     		lsr	r3, r3, #24
 861 0342 360E     		lsr	r6, r6, #24
 259:lcd.c         ****   selectLCD(TRUE);   
 862              		.loc 1 259 0
 863 0344 0120     		mov	r0, #1
 864              	.LVL71:
 254:lcd.c         **** {
 865              		.loc 1 254 0
 866 0346 3F0E     		lsr	r7, r7, #24
 867 0348 240E     		lsr	r4, r4, #24
 868 034a 0093     		str	r3, [sp]
 259:lcd.c         ****   selectLCD(TRUE);   
 869              		.loc 1 259 0
 870 034c FFF7FEFF 		bl	selectLCD
 871              	.LVL72:
 261:lcd.c         ****   lcdWindow1(x,y,x+xLen-1,y+yLen-1);
 872              		.loc 1 261 0
 873 0350 6A1E     		sub	r2, r5, #1
 874 0352 731E     		sub	r3, r6, #1
 875 0354 E318     		add	r3, r4, r3
 876 0356 BA18     		add	r2, r7, r2
 877 0358 1206     		lsl	r2, r2, #24
 878 035a 1B06     		lsl	r3, r3, #24
 879 035c 281C     		mov	r0, r5
 880 035e 120E     		lsr	r2, r2, #24
 881 0360 1B0E     		lsr	r3, r3, #24
 882 0362 311C     		mov	r1, r6
 883 0364 FFF7F0FE 		bl	lcdWindow1
 263:lcd.c         ****   lcdWrcmd(LCD_CMD_RAMWR);    //write memory
 884              		.loc 1 263 0
 885 0368 2C20     		mov	r0, #44
 886 036a FFF7FEFF 		bl	lcdWrcmd
 265:lcd.c         ****   len = xLen*yLen;
ARM GAS  C:\Users\KOZLOV~1\AppData\Local\Temp\cctyslCN.s 			page 29


 887              		.loc 1 265 0
 888 036e 7C43     		mul	r4, r7
 889              	.LVL73:
 266:lcd.c         ****   for(i=0; i<len; i++)
 890              		.loc 1 266 0
 891 0370 0025     		mov	r5, #0
 892 0372 03E0     		b	.L56
 893              	.LVL74:
 894              	.L57:
 267:lcd.c         ****     lcdWrdata(color);
 895              		.loc 1 267 0 discriminator 2
 896 0374 0098     		ldr	r0, [sp]
 897 0376 FFF7FEFF 		bl	lcdWrdata
 266:lcd.c         ****   for(i=0; i<len; i++)
 898              		.loc 1 266 0 discriminator 2
 899 037a 0135     		add	r5, r5, #1
 900              	.LVL75:
 901              	.L56:
 266:lcd.c         ****   for(i=0; i<len; i++)
 902              		.loc 1 266 0 is_stmt 0 discriminator 1
 903 037c A542     		cmp	r5, r4
 904 037e F9D1     		bne	.L57
 270:lcd.c         ****   selectLCD(FALSE);
 905              		.loc 1 270 0 is_stmt 1
 906 0380 0020     		mov	r0, #0
 907 0382 FFF7FEFF 		bl	selectLCD
 271:lcd.c         **** }
 908              		.loc 1 271 0
 909              		@ sp needed for prologue
 910              	.LVL76:
 911              	.LVL77:
 912 0386 F1BC     		pop	{r0, r4, r5, r6, r7}
 913 0388 01BC     		pop	{r0}
 914 038a 0047     		bx	r0
 915              		.cfi_endproc
 916              	.LFE6:
 917              		.size	lcdRect, .-lcdRect
 918              		.align	1
 919              		.global	lcdLine
 920              		.code	16
 921              		.thumb_func
 922              		.type	lcdLine, %function
 923              	lcdLine:
 924              	.LFB5:
 217:lcd.c         **** {
 925              		.loc 1 217 0
 926              		.cfi_startproc
 927 038c F1B5     		push	{r0, r4, r5, r6, r7, lr}
 928              	.LCFI11:
 929              		.cfi_def_cfa_offset 24
 930              		.cfi_offset 0, -24
 931              		.cfi_offset 4, -20
 932              		.cfi_offset 5, -16
 933              		.cfi_offset 6, -12
 934              		.cfi_offset 7, -8
 935              		.cfi_offset 14, -4
 936              	.LVL78:
ARM GAS  C:\Users\KOZLOV~1\AppData\Local\Temp\cctyslCN.s 			page 30


 217:lcd.c         **** {
 937              		.loc 1 217 0
 938 038e 069F     		ldr	r7, [sp, #24]
 939 0390 1B06     		lsl	r3, r3, #24
 940              	.LVL79:
 941 0392 0506     		lsl	r5, r0, #24
 942 0394 0E06     		lsl	r6, r1, #24
 943 0396 1406     		lsl	r4, r2, #24
 944 0398 1B0E     		lsr	r3, r3, #24
 945 039a 3F06     		lsl	r7, r7, #24
 221:lcd.c         ****   selectLCD(TRUE);   
 946              		.loc 1 221 0
 947 039c 0120     		mov	r0, #1
 948              	.LVL80:
 217:lcd.c         **** {
 949              		.loc 1 217 0
 950 039e 3F0E     		lsr	r7, r7, #24
 951 03a0 2D0E     		lsr	r5, r5, #24
 952 03a2 360E     		lsr	r6, r6, #24
 953 03a4 240E     		lsr	r4, r4, #24
 954 03a6 0093     		str	r3, [sp]
 221:lcd.c         ****   selectLCD(TRUE);   
 955              		.loc 1 221 0
 956 03a8 FFF7FEFF 		bl	selectLCD
 957              	.LVL81:
 223:lcd.c         ****   if (vertical)
 958              		.loc 1 223 0
 959 03ac 002F     		cmp	r7, #0
 960 03ae 14D0     		beq	.L59
 225:lcd.c         ****     lcdWindow1(x,y,x,y+len-1);
 961              		.loc 1 225 0
 962 03b0 731E     		sub	r3, r6, #1
 963 03b2 E318     		add	r3, r4, r3
 964 03b4 1B06     		lsl	r3, r3, #24
 965 03b6 281C     		mov	r0, r5
 966 03b8 2A1C     		mov	r2, r5
 967 03ba 1B0E     		lsr	r3, r3, #24
 968 03bc 311C     		mov	r1, r6
 969 03be FFF7C3FE 		bl	lcdWindow1
 227:lcd.c         ****     lcdWrcmd(LCD_CMD_RAMWR);    //write memory
 970              		.loc 1 227 0
 971 03c2 2C20     		mov	r0, #44
 972 03c4 FFF7FEFF 		bl	lcdWrcmd
 973              	.LVL82:
 229:lcd.c         ****     for(i=0; i<len; i++)
 974              		.loc 1 229 0
 975 03c8 0025     		mov	r5, #0
 976 03ca 03E0     		b	.L60
 977              	.LVL83:
 978              	.L61:
 230:lcd.c         ****       lcdWrdata(color);
 979              		.loc 1 230 0 discriminator 2
 980 03cc 0098     		ldr	r0, [sp]
 981 03ce FFF7FEFF 		bl	lcdWrdata
 229:lcd.c         ****     for(i=0; i<len; i++)
 982              		.loc 1 229 0 discriminator 2
 983 03d2 0135     		add	r5, r5, #1
ARM GAS  C:\Users\KOZLOV~1\AppData\Local\Temp\cctyslCN.s 			page 31


 984              	.LVL84:
 985              	.L60:
 229:lcd.c         ****     for(i=0; i<len; i++)
 986              		.loc 1 229 0 is_stmt 0 discriminator 1
 987 03d4 A542     		cmp	r5, r4
 988 03d6 F9D3     		bcc	.L61
 989 03d8 13E0     		b	.L62
 990              	.LVL85:
 991              	.L59:
 234:lcd.c         ****     lcdWindow1(x,y,x+len-1,y);
 992              		.loc 1 234 0 is_stmt 1
 993 03da 6A1E     		sub	r2, r5, #1
 994 03dc A218     		add	r2, r4, r2
 995 03de 1206     		lsl	r2, r2, #24
 996 03e0 281C     		mov	r0, r5
 997 03e2 120E     		lsr	r2, r2, #24
 998 03e4 311C     		mov	r1, r6
 999 03e6 331C     		mov	r3, r6
 1000 03e8 FFF7AEFE 		bl	lcdWindow1
 236:lcd.c         ****     lcdWrcmd(LCD_CMD_RAMWR);    //write memory
 1001              		.loc 1 236 0
 1002 03ec 2C20     		mov	r0, #44
 1003 03ee FFF7FEFF 		bl	lcdWrcmd
 1004              	.LVL86:
 238:lcd.c         ****     for(i=0; i<len; i++)
 1005              		.loc 1 238 0
 1006 03f2 3D1C     		mov	r5, r7
 1007 03f4 03E0     		b	.L63
 1008              	.LVL87:
 1009              	.L64:
 239:lcd.c         ****       lcdWrdata(color);
 1010              		.loc 1 239 0 discriminator 2
 1011 03f6 0098     		ldr	r0, [sp]
 1012 03f8 FFF7FEFF 		bl	lcdWrdata
 238:lcd.c         ****     for(i=0; i<len; i++)
 1013              		.loc 1 238 0 discriminator 2
 1014 03fc 0135     		add	r5, r5, #1
 1015              	.LVL88:
 1016              	.L63:
 238:lcd.c         ****     for(i=0; i<len; i++)
 1017              		.loc 1 238 0 is_stmt 0 discriminator 1
 1018 03fe A542     		cmp	r5, r4
 1019 0400 F9D3     		bcc	.L64
 1020              	.L62:
 243:lcd.c         ****   selectLCD(FALSE);
 1021              		.loc 1 243 0 is_stmt 1
 1022 0402 0020     		mov	r0, #0
 1023 0404 FFF7FEFF 		bl	selectLCD
 244:lcd.c         **** }
 1024              		.loc 1 244 0
 1025              		@ sp needed for prologue
 1026              	.LVL89:
 1027 0408 F1BC     		pop	{r0, r4, r5, r6, r7}
 1028 040a 01BC     		pop	{r0}
 1029 040c 0047     		bx	r0
 1030              		.cfi_endproc
 1031              	.LFE5:
ARM GAS  C:\Users\KOZLOV~1\AppData\Local\Temp\cctyslCN.s 			page 32


 1032              		.size	lcdLine, .-lcdLine
 1033              		.align	1
 1034              		.global	lcdContrast
 1035              		.code	16
 1036              		.thumb_func
 1037              		.type	lcdContrast, %function
 1038              	lcdContrast:
 1039              	.LFB4:
 197:lcd.c         **** {
 1040              		.loc 1 197 0
 1041              		.cfi_startproc
 1042 040e 10B5     		push	{r4, lr}
 1043              	.LCFI12:
 1044              		.cfi_def_cfa_offset 8
 1045              		.cfi_offset 4, -8
 1046              		.cfi_offset 14, -4
 1047              	.LVL90:
 197:lcd.c         **** {
 1048              		.loc 1 197 0
 1049 0410 0406     		lsl	r4, r0, #24
 199:lcd.c         ****   selectLCD(TRUE);
 1050              		.loc 1 199 0
 1051 0412 0120     		mov	r0, #1
 1052              	.LVL91:
 1053 0414 FFF7FEFF 		bl	selectLCD
 197:lcd.c         **** {
 1054              		.loc 1 197 0
 1055 0418 240E     		lsr	r4, r4, #24
 202:lcd.c         ****   lcdWrcmd(LCD_CMD_SETCON);
 1056              		.loc 1 202 0
 1057 041a 2520     		mov	r0, #37
 1058 041c FFF7FEFF 		bl	lcdWrcmd
 203:lcd.c         **** 	lcdWrdata(cont);
 1059              		.loc 1 203 0
 1060 0420 201C     		mov	r0, r4
 1061 0422 FFF7FEFF 		bl	lcdWrdata
 206:lcd.c         ****   selectLCD(FALSE);
 1062              		.loc 1 206 0
 1063 0426 0020     		mov	r0, #0
 1064 0428 FFF7FEFF 		bl	selectLCD
 207:lcd.c         **** }
 1065              		.loc 1 207 0
 1066              		@ sp needed for prologue
 1067 042c 10BC     		pop	{r4}
 1068 042e 01BC     		pop	{r0}
 1069 0430 0047     		bx	r0
 1070              		.cfi_endproc
 1071              	.LFE4:
 1072              		.size	lcdContrast, .-lcdContrast
 1073              		.align	1
 1074              		.global	lcdClrscr
 1075              		.code	16
 1076              		.thumb_func
 1077              		.type	lcdClrscr, %function
 1078              	lcdClrscr:
 1079              	.LFB1:
 133:lcd.c         **** {
ARM GAS  C:\Users\KOZLOV~1\AppData\Local\Temp\cctyslCN.s 			page 33


 1080              		.loc 1 133 0
 1081              		.cfi_startproc
 1082 0432 30B5     		push	{r4, r5, lr}
 1083              	.LCFI13:
 1084              		.cfi_def_cfa_offset 12
 1085              		.cfi_offset 4, -12
 1086              		.cfi_offset 5, -8
 1087              		.cfi_offset 14, -4
 136:lcd.c         **** 	lcd_x = 0;
 1088              		.loc 1 136 0
 1089 0434 0E4D     		ldr	r5, .L69
 1090 0436 0023     		mov	r3, #0
 1091 0438 AB70     		strb	r3, [r5, #2]
 137:lcd.c         ****   lcd_y = 0;
 1092              		.loc 1 137 0
 1093 043a EB70     		strb	r3, [r5, #3]
 140:lcd.c         ****   selectLCD(TRUE);   
 1094              		.loc 1 140 0
 1095 043c 0120     		mov	r0, #1
 1096 043e FFF7FEFF 		bl	selectLCD
 142:lcd.c         ****   lcdWindow1(255,255,128,128);
 1097              		.loc 1 142 0
 1098 0442 FF20     		mov	r0, #255
 1099 0444 8022     		mov	r2, #128
 1100 0446 011C     		mov	r1, r0
 1101 0448 131C     		mov	r3, r2
 1102 044a FFF77DFE 		bl	lcdWindow1
 144:lcd.c         ****   lcdWrcmd(LCD_CMD_RAMWR);    //write memory
 1103              		.loc 1 144 0
 1104 044e 2C20     		mov	r0, #44
 1105 0450 FFF7FEFF 		bl	lcdWrcmd
 1106              	.LVL92:
 1107 0454 074C     		ldr	r4, .L69+4
 1108              	.LVL93:
 1109              	.L67:
 147:lcd.c         ****     lcdWrdata(bkgColor);
 1110              		.loc 1 147 0 discriminator 2
 1111 0456 2878     		ldrb	r0, [r5]
 1112 0458 013C     		sub	r4, r4, #1
 1113 045a FFF7FEFF 		bl	lcdWrdata
 146:lcd.c         ****   for(i=0; i<16900; i++)
 1114              		.loc 1 146 0 discriminator 2
 1115 045e 002C     		cmp	r4, #0
 1116 0460 F9D1     		bne	.L67
 150:lcd.c         ****   selectLCD(FALSE);
 1117              		.loc 1 150 0
 1118 0462 201C     		mov	r0, r4
 1119 0464 FFF7FEFF 		bl	selectLCD
 151:lcd.c         **** }
 1120              		.loc 1 151 0
 1121              		@ sp needed for prologue
 1122 0468 30BC     		pop	{r4, r5}
 1123 046a 01BC     		pop	{r0}
 1124 046c 0047     		bx	r0
 1125              	.L70:
 1126 046e C046     		.align	2
 1127              	.L69:
ARM GAS  C:\Users\KOZLOV~1\AppData\Local\Temp\cctyslCN.s 			page 34


 1128 0470 00000000 		.word	.LANCHOR0
 1129 0474 04420000 		.word	16900
 1130              		.cfi_endproc
 1131              	.LFE1:
 1132              		.size	lcdClrscr, .-lcdClrscr
 1133              		.align	1
 1134              		.global	lcdOff
 1135              		.code	16
 1136              		.thumb_func
 1137              		.type	lcdOff, %function
 1138              	lcdOff:
 1139              	.LFB2:
 162:lcd.c         **** {
 1140              		.loc 1 162 0
 1141              		.cfi_startproc
 1142 0478 00B5     		push	{lr}
 1143              	.LCFI14:
 1144              		.cfi_def_cfa_offset 4
 1145              		.cfi_offset 14, -4
 163:lcd.c         ****   lcdClrscr();
 1146              		.loc 1 163 0
 1147 047a FFF7FEFF 		bl	lcdClrscr
 166:lcd.c         ****   selectLCD(TRUE);   
 1148              		.loc 1 166 0
 1149 047e 0120     		mov	r0, #1
 1150 0480 FFF7FEFF 		bl	selectLCD
 168:lcd.c         ****   lcdWrcmd(LCD_CMD_SLEEPIN);
 1151              		.loc 1 168 0
 1152 0484 1020     		mov	r0, #16
 1153 0486 FFF7FEFF 		bl	lcdWrcmd
 171:lcd.c         ****   selectLCD(FALSE);
 1154              		.loc 1 171 0
 1155 048a 0020     		mov	r0, #0
 1156 048c FFF7FEFF 		bl	selectLCD
 172:lcd.c         **** }
 1157              		.loc 1 172 0
 1158              		@ sp needed for prologue
 1159 0490 01BC     		pop	{r0}
 1160 0492 0047     		bx	r0
 1161              		.cfi_endproc
 1162              	.LFE2:
 1163              		.size	lcdOff, .-lcdOff
 1164              		.align	1
 1165              		.global	lcdInit
 1166              		.code	16
 1167              		.thumb_func
 1168              		.type	lcdInit, %function
 1169              	lcdInit:
 1170              	.LFB0:
  70:lcd.c         **** {
 1171              		.loc 1 70 0
 1172              		.cfi_startproc
 1173 0494 10B5     		push	{r4, lr}
 1174              	.LCFI15:
 1175              		.cfi_def_cfa_offset 8
 1176              		.cfi_offset 4, -8
 1177              		.cfi_offset 14, -4
ARM GAS  C:\Users\KOZLOV~1\AppData\Local\Temp\cctyslCN.s 			page 35


  71:lcd.c         ****   bkgColor  = 0;
 1178              		.loc 1 71 0
 1179 0496 3A4B     		ldr	r3, .L73
 1180 0498 0024     		mov	r4, #0
 1181 049a 1C70     		strb	r4, [r3]
  72:lcd.c         ****   textColor = 0;
 1182              		.loc 1 72 0
 1183 049c 5C70     		strb	r4, [r3, #1]
  75:lcd.c         ****   initSpiForLcd();
 1184              		.loc 1 75 0
 1185 049e FFF7FEFF 		bl	initSpiForLcd
  78:lcd.c         ****   selectLCD(TRUE);
 1186              		.loc 1 78 0
 1187 04a2 0120     		mov	r0, #1
 1188 04a4 FFF7FEFF 		bl	selectLCD
  80:lcd.c         **** 	lcdWrcmd(LCD_CMD_SWRESET);
 1189              		.loc 1 80 0
 1190 04a8 0120     		mov	r0, #1
 1191 04aa FFF7FEFF 		bl	lcdWrcmd
  82:lcd.c         **** 	osSleep(1);
 1192              		.loc 1 82 0
 1193 04ae 0120     		mov	r0, #1
 1194 04b0 FFF7FEFF 		bl	osSleep
  83:lcd.c         **** 	lcdWrcmd(LCD_CMD_SLEEPOUT);
 1195              		.loc 1 83 0
 1196 04b4 1120     		mov	r0, #17
 1197 04b6 FFF7FEFF 		bl	lcdWrcmd
  84:lcd.c         **** 	lcdWrcmd(LCD_CMD_DISPON);
 1198              		.loc 1 84 0
 1199 04ba 2920     		mov	r0, #41
 1200 04bc FFF7FEFF 		bl	lcdWrcmd
  85:lcd.c         **** 	lcdWrcmd(LCD_CMD_BSTRON);
 1201              		.loc 1 85 0
 1202 04c0 0320     		mov	r0, #3
 1203 04c2 FFF7FEFF 		bl	lcdWrcmd
  86:lcd.c         **** 	osSleep(1);
 1204              		.loc 1 86 0
 1205 04c6 0120     		mov	r0, #1
 1206 04c8 FFF7FEFF 		bl	osSleep
  88:lcd.c         **** 	lcdWrcmd(LCD_CMD_MADCTL);   //Memory data acces control
 1207              		.loc 1 88 0
 1208 04cc 3620     		mov	r0, #54
 1209 04ce FFF7FEFF 		bl	lcdWrcmd
  89:lcd.c         **** 	lcdWrdata(MADCTL_HORIZ);    //X Mirror and BGR format
 1210              		.loc 1 89 0
 1211 04d2 4820     		mov	r0, #72
 1212 04d4 FFF7FEFF 		bl	lcdWrdata
  90:lcd.c         **** 	lcdWrcmd(LCD_CMD_COLMOD);   //Colour mode
 1213              		.loc 1 90 0
 1214 04d8 3A20     		mov	r0, #58
 1215 04da FFF7FEFF 		bl	lcdWrcmd
  91:lcd.c         **** 	lcdWrdata(0x02);            //256 colour mode select
 1216              		.loc 1 91 0
 1217 04de 0220     		mov	r0, #2
 1218 04e0 FFF7FEFF 		bl	lcdWrdata
  92:lcd.c         **** 	lcdWrcmd(LCD_CMD_INVON);    //Non Invert mode
 1219              		.loc 1 92 0
ARM GAS  C:\Users\KOZLOV~1\AppData\Local\Temp\cctyslCN.s 			page 36


 1220 04e4 2120     		mov	r0, #33
 1221 04e6 FFF7FEFF 		bl	lcdWrcmd
  94:lcd.c         **** 	lcdWrcmd(LCD_CMD_RGBSET);   //LUT write
 1222              		.loc 1 94 0
 1223 04ea 2D20     		mov	r0, #45
 1224 04ec FFF7FEFF 		bl	lcdWrcmd
  95:lcd.c         ****   lcdWrdata(0);               //Red
 1225              		.loc 1 95 0
 1226 04f0 201C     		mov	r0, r4
 1227 04f2 FFF7FEFF 		bl	lcdWrdata
  96:lcd.c         ****   lcdWrdata(2);
 1228              		.loc 1 96 0
 1229 04f6 0220     		mov	r0, #2
 1230 04f8 FFF7FEFF 		bl	lcdWrdata
  97:lcd.c         ****   lcdWrdata(4);
 1231              		.loc 1 97 0
 1232 04fc 0420     		mov	r0, #4
 1233 04fe FFF7FEFF 		bl	lcdWrdata
  98:lcd.c         ****   lcdWrdata(6);
 1234              		.loc 1 98 0
 1235 0502 0620     		mov	r0, #6
 1236 0504 FFF7FEFF 		bl	lcdWrdata
  99:lcd.c         ****   lcdWrdata(9);
 1237              		.loc 1 99 0
 1238 0508 0920     		mov	r0, #9
 1239 050a FFF7FEFF 		bl	lcdWrdata
 100:lcd.c         ****   lcdWrdata(11);
 1240              		.loc 1 100 0
 1241 050e 0B20     		mov	r0, #11
 1242 0510 FFF7FEFF 		bl	lcdWrdata
 101:lcd.c         ****   lcdWrdata(13);
 1243              		.loc 1 101 0
 1244 0514 0D20     		mov	r0, #13
 1245 0516 FFF7FEFF 		bl	lcdWrdata
 102:lcd.c         ****   lcdWrdata(15);
 1246              		.loc 1 102 0
 1247 051a 0F20     		mov	r0, #15
 1248 051c FFF7FEFF 		bl	lcdWrdata
 103:lcd.c         ****   lcdWrdata(0);               //Green
 1249              		.loc 1 103 0
 1250 0520 201C     		mov	r0, r4
 1251 0522 FFF7FEFF 		bl	lcdWrdata
 104:lcd.c         ****   lcdWrdata(2);
 1252              		.loc 1 104 0
 1253 0526 0220     		mov	r0, #2
 1254 0528 FFF7FEFF 		bl	lcdWrdata
 105:lcd.c         ****   lcdWrdata(4);
 1255              		.loc 1 105 0
 1256 052c 0420     		mov	r0, #4
 1257 052e FFF7FEFF 		bl	lcdWrdata
 106:lcd.c         ****   lcdWrdata(6);
 1258              		.loc 1 106 0
 1259 0532 0620     		mov	r0, #6
 1260 0534 FFF7FEFF 		bl	lcdWrdata
 107:lcd.c         ****   lcdWrdata(9);
 1261              		.loc 1 107 0
 1262 0538 0920     		mov	r0, #9
ARM GAS  C:\Users\KOZLOV~1\AppData\Local\Temp\cctyslCN.s 			page 37


 1263 053a FFF7FEFF 		bl	lcdWrdata
 108:lcd.c         ****   lcdWrdata(11);
 1264              		.loc 1 108 0
 1265 053e 0B20     		mov	r0, #11
 1266 0540 FFF7FEFF 		bl	lcdWrdata
 109:lcd.c         ****   lcdWrdata(13);
 1267              		.loc 1 109 0
 1268 0544 0D20     		mov	r0, #13
 1269 0546 FFF7FEFF 		bl	lcdWrdata
 110:lcd.c         ****   lcdWrdata(15);
 1270              		.loc 1 110 0
 1271 054a 0F20     		mov	r0, #15
 1272 054c FFF7FEFF 		bl	lcdWrdata
 111:lcd.c         ****   lcdWrdata(0);               //Blue
 1273              		.loc 1 111 0
 1274 0550 201C     		mov	r0, r4
 1275 0552 FFF7FEFF 		bl	lcdWrdata
 112:lcd.c         ****   lcdWrdata(6);
 1276              		.loc 1 112 0
 1277 0556 0620     		mov	r0, #6
 1278 0558 FFF7FEFF 		bl	lcdWrdata
 113:lcd.c         **** 	lcdWrdata(10);
 1279              		.loc 1 113 0
 1280 055c 0A20     		mov	r0, #10
 1281 055e FFF7FEFF 		bl	lcdWrdata
 114:lcd.c         **** 	lcdWrdata(15);
 1282              		.loc 1 114 0
 1283 0562 0F20     		mov	r0, #15
 1284 0564 FFF7FEFF 		bl	lcdWrdata
 117:lcd.c         ****   selectLCD(FALSE);
 1285              		.loc 1 117 0
 1286 0568 201C     		mov	r0, r4
 1287 056a FFF7FEFF 		bl	selectLCD
 119:lcd.c         **** 	lcdContrast(56);
 1288              		.loc 1 119 0
 1289 056e 3820     		mov	r0, #56
 1290 0570 FFF7FEFF 		bl	lcdContrast
 122:lcd.c         **** }
 1291              		.loc 1 122 0
 1292              		@ sp needed for prologue
 121:lcd.c         **** 	lcdClrscr();
 1293              		.loc 1 121 0
 1294 0574 FFF7FEFF 		bl	lcdClrscr
 122:lcd.c         **** }
 1295              		.loc 1 122 0
 1296 0578 10BC     		pop	{r4}
 1297 057a 01BC     		pop	{r0}
 1298 057c 0047     		bx	r0
 1299              	.L74:
 1300 057e C046     		.align	2
 1301              	.L73:
 1302 0580 00000000 		.word	.LANCHOR0
 1303              		.cfi_endproc
 1304              	.LFE0:
 1305              		.size	lcdInit, .-lcdInit
 1306              		.global	charMap
 1307              		.section	.rodata
ARM GAS  C:\Users\KOZLOV~1\AppData\Local\Temp\cctyslCN.s 			page 38


 1308              		.set	.LANCHOR1,. + 0
 1309              		.type	charMap, %object
 1310              		.size	charMap, 1372
 1311              	charMap:
 1312 0000 00       		.byte	0
 1313 0001 00       		.byte	0
 1314 0002 00       		.byte	0
 1315 0003 80       		.byte	-128
 1316 0004 C0       		.byte	-64
 1317 0005 E0       		.byte	-32
 1318 0006 F8       		.byte	-8
 1319 0007 FE       		.byte	-2
 1320 0008 F8       		.byte	-8
 1321 0009 E0       		.byte	-32
 1322 000a C0       		.byte	-64
 1323 000b 80       		.byte	-128
 1324 000c 00       		.byte	0
 1325 000d 00       		.byte	0
 1326 000e 00       		.byte	0
 1327 000f 00       		.byte	0
 1328 0010 00       		.byte	0
 1329 0011 02       		.byte	2
 1330 0012 06       		.byte	6
 1331 0013 0E       		.byte	14
 1332 0014 3E       		.byte	62
 1333 0015 FE       		.byte	-2
 1334 0016 3E       		.byte	62
 1335 0017 0E       		.byte	14
 1336 0018 06       		.byte	6
 1337 0019 02       		.byte	2
 1338 001a 00       		.byte	0
 1339 001b 00       		.byte	0
 1340 001c 00       		.byte	0
 1341 001d 00       		.byte	0
 1342 001e 00       		.byte	0
 1343 001f 00       		.byte	0
 1344 0020 00       		.byte	0
 1345 0021 00       		.byte	0
 1346 0022 00       		.byte	0
 1347 0023 00       		.byte	0
 1348 0024 00       		.byte	0
 1349 0025 00       		.byte	0
 1350 0026 00       		.byte	0
 1351 0027 00       		.byte	0
 1352 0028 00       		.byte	0
 1353 0029 00       		.byte	0
 1354 002a 00       		.byte	0
 1355 002b 00       		.byte	0
 1356 002c 00       		.byte	0
 1357 002d 18       		.byte	24
 1358 002e 3C       		.byte	60
 1359 002f 3C       		.byte	60
 1360 0030 3C       		.byte	60
 1361 0031 18       		.byte	24
 1362 0032 18       		.byte	24
 1363 0033 00       		.byte	0
 1364 0034 18       		.byte	24
ARM GAS  C:\Users\KOZLOV~1\AppData\Local\Temp\cctyslCN.s 			page 39


 1365 0035 18       		.byte	24
 1366 0036 00       		.byte	0
 1367 0037 00       		.byte	0
 1368 0038 00       		.byte	0
 1369 0039 66       		.byte	102
 1370 003a 66       		.byte	102
 1371 003b 66       		.byte	102
 1372 003c 24       		.byte	36
 1373 003d 00       		.byte	0
 1374 003e 00       		.byte	0
 1375 003f 00       		.byte	0
 1376 0040 00       		.byte	0
 1377 0041 00       		.byte	0
 1378 0042 00       		.byte	0
 1379 0043 00       		.byte	0
 1380 0044 00       		.byte	0
 1381 0045 00       		.byte	0
 1382 0046 00       		.byte	0
 1383 0047 00       		.byte	0
 1384 0048 00       		.byte	0
 1385 0049 6C       		.byte	108
 1386 004a 6C       		.byte	108
 1387 004b FE       		.byte	-2
 1388 004c 6C       		.byte	108
 1389 004d 6C       		.byte	108
 1390 004e 6C       		.byte	108
 1391 004f FE       		.byte	-2
 1392 0050 6C       		.byte	108
 1393 0051 6C       		.byte	108
 1394 0052 00       		.byte	0
 1395 0053 00       		.byte	0
 1396 0054 00       		.byte	0
 1397 0055 18       		.byte	24
 1398 0056 18       		.byte	24
 1399 0057 7C       		.byte	124
 1400 0058 C6       		.byte	-58
 1401 0059 C2       		.byte	-62
 1402 005a C0       		.byte	-64
 1403 005b 7C       		.byte	124
 1404 005c 06       		.byte	6
 1405 005d 86       		.byte	-122
 1406 005e C6       		.byte	-58
 1407 005f 7C       		.byte	124
 1408 0060 18       		.byte	24
 1409 0061 18       		.byte	24
 1410 0062 00       		.byte	0
 1411 0063 00       		.byte	0
 1412 0064 00       		.byte	0
 1413 0065 00       		.byte	0
 1414 0066 00       		.byte	0
 1415 0067 C2       		.byte	-62
 1416 0068 C6       		.byte	-58
 1417 0069 0C       		.byte	12
 1418 006a 18       		.byte	24
 1419 006b 30       		.byte	48
 1420 006c 66       		.byte	102
 1421 006d C6       		.byte	-58
ARM GAS  C:\Users\KOZLOV~1\AppData\Local\Temp\cctyslCN.s 			page 40


 1422 006e 00       		.byte	0
 1423 006f 00       		.byte	0
 1424 0070 00       		.byte	0
 1425 0071 00       		.byte	0
 1426 0072 00       		.byte	0
 1427 0073 38       		.byte	56
 1428 0074 6C       		.byte	108
 1429 0075 6C       		.byte	108
 1430 0076 38       		.byte	56
 1431 0077 76       		.byte	118
 1432 0078 DC       		.byte	-36
 1433 0079 CC       		.byte	-52
 1434 007a CC       		.byte	-52
 1435 007b 76       		.byte	118
 1436 007c 00       		.byte	0
 1437 007d 00       		.byte	0
 1438 007e 00       		.byte	0
 1439 007f 18       		.byte	24
 1440 0080 18       		.byte	24
 1441 0081 18       		.byte	24
 1442 0082 30       		.byte	48
 1443 0083 00       		.byte	0
 1444 0084 00       		.byte	0
 1445 0085 00       		.byte	0
 1446 0086 00       		.byte	0
 1447 0087 00       		.byte	0
 1448 0088 00       		.byte	0
 1449 0089 00       		.byte	0
 1450 008a 00       		.byte	0
 1451 008b 00       		.byte	0
 1452 008c 00       		.byte	0
 1453 008d 00       		.byte	0
 1454 008e 00       		.byte	0
 1455 008f 0C       		.byte	12
 1456 0090 18       		.byte	24
 1457 0091 30       		.byte	48
 1458 0092 30       		.byte	48
 1459 0093 30       		.byte	48
 1460 0094 30       		.byte	48
 1461 0095 30       		.byte	48
 1462 0096 18       		.byte	24
 1463 0097 0C       		.byte	12
 1464 0098 00       		.byte	0
 1465 0099 00       		.byte	0
 1466 009a 00       		.byte	0
 1467 009b 00       		.byte	0
 1468 009c 00       		.byte	0
 1469 009d 30       		.byte	48
 1470 009e 18       		.byte	24
 1471 009f 0C       		.byte	12
 1472 00a0 0C       		.byte	12
 1473 00a1 0C       		.byte	12
 1474 00a2 0C       		.byte	12
 1475 00a3 0C       		.byte	12
 1476 00a4 18       		.byte	24
 1477 00a5 30       		.byte	48
 1478 00a6 00       		.byte	0
ARM GAS  C:\Users\KOZLOV~1\AppData\Local\Temp\cctyslCN.s 			page 41


 1479 00a7 00       		.byte	0
 1480 00a8 00       		.byte	0
 1481 00a9 00       		.byte	0
 1482 00aa 00       		.byte	0
 1483 00ab 00       		.byte	0
 1484 00ac 00       		.byte	0
 1485 00ad 66       		.byte	102
 1486 00ae 3C       		.byte	60
 1487 00af FF       		.byte	-1
 1488 00b0 3C       		.byte	60
 1489 00b1 66       		.byte	102
 1490 00b2 00       		.byte	0
 1491 00b3 00       		.byte	0
 1492 00b4 00       		.byte	0
 1493 00b5 00       		.byte	0
 1494 00b6 00       		.byte	0
 1495 00b7 00       		.byte	0
 1496 00b8 00       		.byte	0
 1497 00b9 00       		.byte	0
 1498 00ba 00       		.byte	0
 1499 00bb 18       		.byte	24
 1500 00bc 18       		.byte	24
 1501 00bd 7E       		.byte	126
 1502 00be 18       		.byte	24
 1503 00bf 18       		.byte	24
 1504 00c0 00       		.byte	0
 1505 00c1 00       		.byte	0
 1506 00c2 00       		.byte	0
 1507 00c3 00       		.byte	0
 1508 00c4 00       		.byte	0
 1509 00c5 00       		.byte	0
 1510 00c6 00       		.byte	0
 1511 00c7 00       		.byte	0
 1512 00c8 00       		.byte	0
 1513 00c9 00       		.byte	0
 1514 00ca 00       		.byte	0
 1515 00cb 00       		.byte	0
 1516 00cc 00       		.byte	0
 1517 00cd 18       		.byte	24
 1518 00ce 18       		.byte	24
 1519 00cf 18       		.byte	24
 1520 00d0 30       		.byte	48
 1521 00d1 00       		.byte	0
 1522 00d2 00       		.byte	0
 1523 00d3 00       		.byte	0
 1524 00d4 00       		.byte	0
 1525 00d5 00       		.byte	0
 1526 00d6 00       		.byte	0
 1527 00d7 00       		.byte	0
 1528 00d8 00       		.byte	0
 1529 00d9 FE       		.byte	-2
 1530 00da 00       		.byte	0
 1531 00db 00       		.byte	0
 1532 00dc 00       		.byte	0
 1533 00dd 00       		.byte	0
 1534 00de 00       		.byte	0
 1535 00df 00       		.byte	0
ARM GAS  C:\Users\KOZLOV~1\AppData\Local\Temp\cctyslCN.s 			page 42


 1536 00e0 00       		.byte	0
 1537 00e1 00       		.byte	0
 1538 00e2 00       		.byte	0
 1539 00e3 00       		.byte	0
 1540 00e4 00       		.byte	0
 1541 00e5 00       		.byte	0
 1542 00e6 00       		.byte	0
 1543 00e7 00       		.byte	0
 1544 00e8 00       		.byte	0
 1545 00e9 00       		.byte	0
 1546 00ea 18       		.byte	24
 1547 00eb 18       		.byte	24
 1548 00ec 00       		.byte	0
 1549 00ed 00       		.byte	0
 1550 00ee 00       		.byte	0
 1551 00ef 00       		.byte	0
 1552 00f0 00       		.byte	0
 1553 00f1 02       		.byte	2
 1554 00f2 06       		.byte	6
 1555 00f3 0C       		.byte	12
 1556 00f4 18       		.byte	24
 1557 00f5 30       		.byte	48
 1558 00f6 60       		.byte	96
 1559 00f7 C0       		.byte	-64
 1560 00f8 80       		.byte	-128
 1561 00f9 00       		.byte	0
 1562 00fa 00       		.byte	0
 1563 00fb 00       		.byte	0
 1564 00fc 00       		.byte	0
 1565 00fd 00       		.byte	0
 1566 00fe 00       		.byte	0
 1567 00ff 38       		.byte	56
 1568 0100 6C       		.byte	108
 1569 0101 C6       		.byte	-58
 1570 0102 C6       		.byte	-58
 1571 0103 D6       		.byte	-42
 1572 0104 C6       		.byte	-58
 1573 0105 C6       		.byte	-58
 1574 0106 6C       		.byte	108
 1575 0107 38       		.byte	56
 1576 0108 00       		.byte	0
 1577 0109 00       		.byte	0
 1578 010a 00       		.byte	0
 1579 010b 00       		.byte	0
 1580 010c 00       		.byte	0
 1581 010d 18       		.byte	24
 1582 010e 38       		.byte	56
 1583 010f 78       		.byte	120
 1584 0110 18       		.byte	24
 1585 0111 18       		.byte	24
 1586 0112 18       		.byte	24
 1587 0113 18       		.byte	24
 1588 0114 18       		.byte	24
 1589 0115 7E       		.byte	126
 1590 0116 00       		.byte	0
 1591 0117 00       		.byte	0
 1592 0118 00       		.byte	0
ARM GAS  C:\Users\KOZLOV~1\AppData\Local\Temp\cctyslCN.s 			page 43


 1593 0119 00       		.byte	0
 1594 011a 00       		.byte	0
 1595 011b 7C       		.byte	124
 1596 011c C6       		.byte	-58
 1597 011d 06       		.byte	6
 1598 011e 0C       		.byte	12
 1599 011f 18       		.byte	24
 1600 0120 30       		.byte	48
 1601 0121 60       		.byte	96
 1602 0122 C6       		.byte	-58
 1603 0123 FE       		.byte	-2
 1604 0124 00       		.byte	0
 1605 0125 00       		.byte	0
 1606 0126 00       		.byte	0
 1607 0127 00       		.byte	0
 1608 0128 00       		.byte	0
 1609 0129 7C       		.byte	124
 1610 012a C6       		.byte	-58
 1611 012b 06       		.byte	6
 1612 012c 06       		.byte	6
 1613 012d 3C       		.byte	60
 1614 012e 06       		.byte	6
 1615 012f 06       		.byte	6
 1616 0130 C6       		.byte	-58
 1617 0131 7C       		.byte	124
 1618 0132 00       		.byte	0
 1619 0133 00       		.byte	0
 1620 0134 00       		.byte	0
 1621 0135 00       		.byte	0
 1622 0136 00       		.byte	0
 1623 0137 0C       		.byte	12
 1624 0138 1C       		.byte	28
 1625 0139 3C       		.byte	60
 1626 013a 6C       		.byte	108
 1627 013b CC       		.byte	-52
 1628 013c FE       		.byte	-2
 1629 013d 0C       		.byte	12
 1630 013e 0C       		.byte	12
 1631 013f 1E       		.byte	30
 1632 0140 00       		.byte	0
 1633 0141 00       		.byte	0
 1634 0142 00       		.byte	0
 1635 0143 00       		.byte	0
 1636 0144 00       		.byte	0
 1637 0145 FE       		.byte	-2
 1638 0146 C0       		.byte	-64
 1639 0147 C0       		.byte	-64
 1640 0148 C0       		.byte	-64
 1641 0149 FC       		.byte	-4
 1642 014a 06       		.byte	6
 1643 014b 06       		.byte	6
 1644 014c C6       		.byte	-58
 1645 014d 7C       		.byte	124
 1646 014e 00       		.byte	0
 1647 014f 00       		.byte	0
 1648 0150 00       		.byte	0
 1649 0151 00       		.byte	0
ARM GAS  C:\Users\KOZLOV~1\AppData\Local\Temp\cctyslCN.s 			page 44


 1650 0152 00       		.byte	0
 1651 0153 38       		.byte	56
 1652 0154 60       		.byte	96
 1653 0155 C0       		.byte	-64
 1654 0156 C0       		.byte	-64
 1655 0157 FC       		.byte	-4
 1656 0158 C6       		.byte	-58
 1657 0159 C6       		.byte	-58
 1658 015a C6       		.byte	-58
 1659 015b 7C       		.byte	124
 1660 015c 00       		.byte	0
 1661 015d 00       		.byte	0
 1662 015e 00       		.byte	0
 1663 015f 00       		.byte	0
 1664 0160 00       		.byte	0
 1665 0161 FE       		.byte	-2
 1666 0162 C6       		.byte	-58
 1667 0163 06       		.byte	6
 1668 0164 0C       		.byte	12
 1669 0165 18       		.byte	24
 1670 0166 30       		.byte	48
 1671 0167 30       		.byte	48
 1672 0168 30       		.byte	48
 1673 0169 30       		.byte	48
 1674 016a 00       		.byte	0
 1675 016b 00       		.byte	0
 1676 016c 00       		.byte	0
 1677 016d 00       		.byte	0
 1678 016e 00       		.byte	0
 1679 016f 7C       		.byte	124
 1680 0170 C6       		.byte	-58
 1681 0171 C6       		.byte	-58
 1682 0172 C6       		.byte	-58
 1683 0173 7C       		.byte	124
 1684 0174 C6       		.byte	-58
 1685 0175 C6       		.byte	-58
 1686 0176 C6       		.byte	-58
 1687 0177 7C       		.byte	124
 1688 0178 00       		.byte	0
 1689 0179 00       		.byte	0
 1690 017a 00       		.byte	0
 1691 017b 00       		.byte	0
 1692 017c 00       		.byte	0
 1693 017d 7C       		.byte	124
 1694 017e C6       		.byte	-58
 1695 017f C6       		.byte	-58
 1696 0180 C6       		.byte	-58
 1697 0181 7E       		.byte	126
 1698 0182 06       		.byte	6
 1699 0183 06       		.byte	6
 1700 0184 0C       		.byte	12
 1701 0185 78       		.byte	120
 1702 0186 00       		.byte	0
 1703 0187 00       		.byte	0
 1704 0188 00       		.byte	0
 1705 0189 00       		.byte	0
 1706 018a 00       		.byte	0
ARM GAS  C:\Users\KOZLOV~1\AppData\Local\Temp\cctyslCN.s 			page 45


 1707 018b 00       		.byte	0
 1708 018c 18       		.byte	24
 1709 018d 18       		.byte	24
 1710 018e 00       		.byte	0
 1711 018f 00       		.byte	0
 1712 0190 00       		.byte	0
 1713 0191 18       		.byte	24
 1714 0192 18       		.byte	24
 1715 0193 00       		.byte	0
 1716 0194 00       		.byte	0
 1717 0195 00       		.byte	0
 1718 0196 00       		.byte	0
 1719 0197 00       		.byte	0
 1720 0198 00       		.byte	0
 1721 0199 00       		.byte	0
 1722 019a 18       		.byte	24
 1723 019b 18       		.byte	24
 1724 019c 00       		.byte	0
 1725 019d 00       		.byte	0
 1726 019e 00       		.byte	0
 1727 019f 18       		.byte	24
 1728 01a0 18       		.byte	24
 1729 01a1 30       		.byte	48
 1730 01a2 00       		.byte	0
 1731 01a3 00       		.byte	0
 1732 01a4 00       		.byte	0
 1733 01a5 00       		.byte	0
 1734 01a6 00       		.byte	0
 1735 01a7 0C       		.byte	12
 1736 01a8 18       		.byte	24
 1737 01a9 30       		.byte	48
 1738 01aa 60       		.byte	96
 1739 01ab C0       		.byte	-64
 1740 01ac 60       		.byte	96
 1741 01ad 30       		.byte	48
 1742 01ae 18       		.byte	24
 1743 01af 0C       		.byte	12
 1744 01b0 00       		.byte	0
 1745 01b1 00       		.byte	0
 1746 01b2 00       		.byte	0
 1747 01b3 00       		.byte	0
 1748 01b4 00       		.byte	0
 1749 01b5 00       		.byte	0
 1750 01b6 00       		.byte	0
 1751 01b7 00       		.byte	0
 1752 01b8 7E       		.byte	126
 1753 01b9 00       		.byte	0
 1754 01ba 00       		.byte	0
 1755 01bb 7E       		.byte	126
 1756 01bc 00       		.byte	0
 1757 01bd 00       		.byte	0
 1758 01be 00       		.byte	0
 1759 01bf 00       		.byte	0
 1760 01c0 00       		.byte	0
 1761 01c1 00       		.byte	0
 1762 01c2 00       		.byte	0
 1763 01c3 60       		.byte	96
ARM GAS  C:\Users\KOZLOV~1\AppData\Local\Temp\cctyslCN.s 			page 46


 1764 01c4 30       		.byte	48
 1765 01c5 18       		.byte	24
 1766 01c6 0C       		.byte	12
 1767 01c7 06       		.byte	6
 1768 01c8 0C       		.byte	12
 1769 01c9 18       		.byte	24
 1770 01ca 30       		.byte	48
 1771 01cb 60       		.byte	96
 1772 01cc 00       		.byte	0
 1773 01cd 00       		.byte	0
 1774 01ce 00       		.byte	0
 1775 01cf 00       		.byte	0
 1776 01d0 00       		.byte	0
 1777 01d1 7C       		.byte	124
 1778 01d2 C6       		.byte	-58
 1779 01d3 C6       		.byte	-58
 1780 01d4 0C       		.byte	12
 1781 01d5 18       		.byte	24
 1782 01d6 18       		.byte	24
 1783 01d7 00       		.byte	0
 1784 01d8 18       		.byte	24
 1785 01d9 18       		.byte	24
 1786 01da 00       		.byte	0
 1787 01db 00       		.byte	0
 1788 01dc 00       		.byte	0
 1789 01dd 00       		.byte	0
 1790 01de 00       		.byte	0
 1791 01df 7C       		.byte	124
 1792 01e0 C6       		.byte	-58
 1793 01e1 C6       		.byte	-58
 1794 01e2 DE       		.byte	-34
 1795 01e3 DE       		.byte	-34
 1796 01e4 DE       		.byte	-34
 1797 01e5 DC       		.byte	-36
 1798 01e6 C0       		.byte	-64
 1799 01e7 7C       		.byte	124
 1800 01e8 00       		.byte	0
 1801 01e9 00       		.byte	0
 1802 01ea 00       		.byte	0
 1803 01eb 00       		.byte	0
 1804 01ec 00       		.byte	0
 1805 01ed 10       		.byte	16
 1806 01ee 38       		.byte	56
 1807 01ef 6C       		.byte	108
 1808 01f0 C6       		.byte	-58
 1809 01f1 C6       		.byte	-58
 1810 01f2 FE       		.byte	-2
 1811 01f3 C6       		.byte	-58
 1812 01f4 C6       		.byte	-58
 1813 01f5 C6       		.byte	-58
 1814 01f6 00       		.byte	0
 1815 01f7 00       		.byte	0
 1816 01f8 00       		.byte	0
 1817 01f9 00       		.byte	0
 1818 01fa 00       		.byte	0
 1819 01fb FC       		.byte	-4
 1820 01fc 66       		.byte	102
ARM GAS  C:\Users\KOZLOV~1\AppData\Local\Temp\cctyslCN.s 			page 47


 1821 01fd 66       		.byte	102
 1822 01fe 66       		.byte	102
 1823 01ff 7C       		.byte	124
 1824 0200 66       		.byte	102
 1825 0201 66       		.byte	102
 1826 0202 66       		.byte	102
 1827 0203 FC       		.byte	-4
 1828 0204 00       		.byte	0
 1829 0205 00       		.byte	0
 1830 0206 00       		.byte	0
 1831 0207 00       		.byte	0
 1832 0208 00       		.byte	0
 1833 0209 3C       		.byte	60
 1834 020a 66       		.byte	102
 1835 020b C2       		.byte	-62
 1836 020c C0       		.byte	-64
 1837 020d C0       		.byte	-64
 1838 020e C0       		.byte	-64
 1839 020f C2       		.byte	-62
 1840 0210 66       		.byte	102
 1841 0211 3C       		.byte	60
 1842 0212 00       		.byte	0
 1843 0213 00       		.byte	0
 1844 0214 00       		.byte	0
 1845 0215 00       		.byte	0
 1846 0216 00       		.byte	0
 1847 0217 F8       		.byte	-8
 1848 0218 6C       		.byte	108
 1849 0219 66       		.byte	102
 1850 021a 66       		.byte	102
 1851 021b 66       		.byte	102
 1852 021c 66       		.byte	102
 1853 021d 66       		.byte	102
 1854 021e 6C       		.byte	108
 1855 021f F8       		.byte	-8
 1856 0220 00       		.byte	0
 1857 0221 00       		.byte	0
 1858 0222 00       		.byte	0
 1859 0223 00       		.byte	0
 1860 0224 00       		.byte	0
 1861 0225 FE       		.byte	-2
 1862 0226 66       		.byte	102
 1863 0227 62       		.byte	98
 1864 0228 68       		.byte	104
 1865 0229 78       		.byte	120
 1866 022a 68       		.byte	104
 1867 022b 62       		.byte	98
 1868 022c 66       		.byte	102
 1869 022d FE       		.byte	-2
 1870 022e 00       		.byte	0
 1871 022f 00       		.byte	0
 1872 0230 00       		.byte	0
 1873 0231 00       		.byte	0
 1874 0232 00       		.byte	0
 1875 0233 FE       		.byte	-2
 1876 0234 66       		.byte	102
 1877 0235 62       		.byte	98
ARM GAS  C:\Users\KOZLOV~1\AppData\Local\Temp\cctyslCN.s 			page 48


 1878 0236 68       		.byte	104
 1879 0237 78       		.byte	120
 1880 0238 68       		.byte	104
 1881 0239 60       		.byte	96
 1882 023a 60       		.byte	96
 1883 023b F0       		.byte	-16
 1884 023c 00       		.byte	0
 1885 023d 00       		.byte	0
 1886 023e 00       		.byte	0
 1887 023f 00       		.byte	0
 1888 0240 00       		.byte	0
 1889 0241 3C       		.byte	60
 1890 0242 66       		.byte	102
 1891 0243 C2       		.byte	-62
 1892 0244 C0       		.byte	-64
 1893 0245 C0       		.byte	-64
 1894 0246 DE       		.byte	-34
 1895 0247 C6       		.byte	-58
 1896 0248 66       		.byte	102
 1897 0249 3A       		.byte	58
 1898 024a 00       		.byte	0
 1899 024b 00       		.byte	0
 1900 024c 00       		.byte	0
 1901 024d 00       		.byte	0
 1902 024e 00       		.byte	0
 1903 024f C6       		.byte	-58
 1904 0250 C6       		.byte	-58
 1905 0251 C6       		.byte	-58
 1906 0252 C6       		.byte	-58
 1907 0253 FE       		.byte	-2
 1908 0254 C6       		.byte	-58
 1909 0255 C6       		.byte	-58
 1910 0256 C6       		.byte	-58
 1911 0257 C6       		.byte	-58
 1912 0258 00       		.byte	0
 1913 0259 00       		.byte	0
 1914 025a 00       		.byte	0
 1915 025b 00       		.byte	0
 1916 025c 00       		.byte	0
 1917 025d 3C       		.byte	60
 1918 025e 18       		.byte	24
 1919 025f 18       		.byte	24
 1920 0260 18       		.byte	24
 1921 0261 18       		.byte	24
 1922 0262 18       		.byte	24
 1923 0263 18       		.byte	24
 1924 0264 18       		.byte	24
 1925 0265 3C       		.byte	60
 1926 0266 00       		.byte	0
 1927 0267 00       		.byte	0
 1928 0268 00       		.byte	0
 1929 0269 00       		.byte	0
 1930 026a 00       		.byte	0
 1931 026b 1E       		.byte	30
 1932 026c 0C       		.byte	12
 1933 026d 0C       		.byte	12
 1934 026e 0C       		.byte	12
ARM GAS  C:\Users\KOZLOV~1\AppData\Local\Temp\cctyslCN.s 			page 49


 1935 026f 0C       		.byte	12
 1936 0270 0C       		.byte	12
 1937 0271 CC       		.byte	-52
 1938 0272 CC       		.byte	-52
 1939 0273 78       		.byte	120
 1940 0274 00       		.byte	0
 1941 0275 00       		.byte	0
 1942 0276 00       		.byte	0
 1943 0277 00       		.byte	0
 1944 0278 00       		.byte	0
 1945 0279 E6       		.byte	-26
 1946 027a 66       		.byte	102
 1947 027b 6C       		.byte	108
 1948 027c 6C       		.byte	108
 1949 027d 78       		.byte	120
 1950 027e 6C       		.byte	108
 1951 027f 6C       		.byte	108
 1952 0280 66       		.byte	102
 1953 0281 E6       		.byte	-26
 1954 0282 00       		.byte	0
 1955 0283 00       		.byte	0
 1956 0284 00       		.byte	0
 1957 0285 00       		.byte	0
 1958 0286 00       		.byte	0
 1959 0287 F0       		.byte	-16
 1960 0288 60       		.byte	96
 1961 0289 60       		.byte	96
 1962 028a 60       		.byte	96
 1963 028b 60       		.byte	96
 1964 028c 60       		.byte	96
 1965 028d 62       		.byte	98
 1966 028e 66       		.byte	102
 1967 028f FE       		.byte	-2
 1968 0290 00       		.byte	0
 1969 0291 00       		.byte	0
 1970 0292 00       		.byte	0
 1971 0293 00       		.byte	0
 1972 0294 00       		.byte	0
 1973 0295 C6       		.byte	-58
 1974 0296 EE       		.byte	-18
 1975 0297 FE       		.byte	-2
 1976 0298 D6       		.byte	-42
 1977 0299 C6       		.byte	-58
 1978 029a C6       		.byte	-58
 1979 029b C6       		.byte	-58
 1980 029c C6       		.byte	-58
 1981 029d C6       		.byte	-58
 1982 029e 00       		.byte	0
 1983 029f 00       		.byte	0
 1984 02a0 00       		.byte	0
 1985 02a1 00       		.byte	0
 1986 02a2 00       		.byte	0
 1987 02a3 C6       		.byte	-58
 1988 02a4 E6       		.byte	-26
 1989 02a5 F6       		.byte	-10
 1990 02a6 FE       		.byte	-2
 1991 02a7 DE       		.byte	-34
ARM GAS  C:\Users\KOZLOV~1\AppData\Local\Temp\cctyslCN.s 			page 50


 1992 02a8 CE       		.byte	-50
 1993 02a9 C6       		.byte	-58
 1994 02aa C6       		.byte	-58
 1995 02ab C6       		.byte	-58
 1996 02ac 00       		.byte	0
 1997 02ad 00       		.byte	0
 1998 02ae 00       		.byte	0
 1999 02af 00       		.byte	0
 2000 02b0 00       		.byte	0
 2001 02b1 7C       		.byte	124
 2002 02b2 C6       		.byte	-58
 2003 02b3 C6       		.byte	-58
 2004 02b4 C6       		.byte	-58
 2005 02b5 C6       		.byte	-58
 2006 02b6 C6       		.byte	-58
 2007 02b7 C6       		.byte	-58
 2008 02b8 C6       		.byte	-58
 2009 02b9 7C       		.byte	124
 2010 02ba 00       		.byte	0
 2011 02bb 00       		.byte	0
 2012 02bc 00       		.byte	0
 2013 02bd 00       		.byte	0
 2014 02be 00       		.byte	0
 2015 02bf FC       		.byte	-4
 2016 02c0 66       		.byte	102
 2017 02c1 66       		.byte	102
 2018 02c2 66       		.byte	102
 2019 02c3 7C       		.byte	124
 2020 02c4 60       		.byte	96
 2021 02c5 60       		.byte	96
 2022 02c6 60       		.byte	96
 2023 02c7 F0       		.byte	-16
 2024 02c8 00       		.byte	0
 2025 02c9 00       		.byte	0
 2026 02ca 00       		.byte	0
 2027 02cb 00       		.byte	0
 2028 02cc 00       		.byte	0
 2029 02cd 7C       		.byte	124
 2030 02ce C6       		.byte	-58
 2031 02cf C6       		.byte	-58
 2032 02d0 C6       		.byte	-58
 2033 02d1 C6       		.byte	-58
 2034 02d2 C6       		.byte	-58
 2035 02d3 D6       		.byte	-42
 2036 02d4 DE       		.byte	-34
 2037 02d5 7C       		.byte	124
 2038 02d6 0E       		.byte	14
 2039 02d7 00       		.byte	0
 2040 02d8 00       		.byte	0
 2041 02d9 00       		.byte	0
 2042 02da 00       		.byte	0
 2043 02db FC       		.byte	-4
 2044 02dc 66       		.byte	102
 2045 02dd 66       		.byte	102
 2046 02de 66       		.byte	102
 2047 02df 7C       		.byte	124
 2048 02e0 6C       		.byte	108
ARM GAS  C:\Users\KOZLOV~1\AppData\Local\Temp\cctyslCN.s 			page 51


 2049 02e1 66       		.byte	102
 2050 02e2 66       		.byte	102
 2051 02e3 E6       		.byte	-26
 2052 02e4 00       		.byte	0
 2053 02e5 00       		.byte	0
 2054 02e6 00       		.byte	0
 2055 02e7 00       		.byte	0
 2056 02e8 00       		.byte	0
 2057 02e9 7C       		.byte	124
 2058 02ea C6       		.byte	-58
 2059 02eb C6       		.byte	-58
 2060 02ec 60       		.byte	96
 2061 02ed 38       		.byte	56
 2062 02ee 0C       		.byte	12
 2063 02ef C6       		.byte	-58
 2064 02f0 C6       		.byte	-58
 2065 02f1 7C       		.byte	124
 2066 02f2 00       		.byte	0
 2067 02f3 00       		.byte	0
 2068 02f4 00       		.byte	0
 2069 02f5 00       		.byte	0
 2070 02f6 00       		.byte	0
 2071 02f7 7E       		.byte	126
 2072 02f8 7E       		.byte	126
 2073 02f9 5A       		.byte	90
 2074 02fa 18       		.byte	24
 2075 02fb 18       		.byte	24
 2076 02fc 18       		.byte	24
 2077 02fd 18       		.byte	24
 2078 02fe 18       		.byte	24
 2079 02ff 3C       		.byte	60
 2080 0300 00       		.byte	0
 2081 0301 00       		.byte	0
 2082 0302 00       		.byte	0
 2083 0303 00       		.byte	0
 2084 0304 00       		.byte	0
 2085 0305 C6       		.byte	-58
 2086 0306 C6       		.byte	-58
 2087 0307 C6       		.byte	-58
 2088 0308 C6       		.byte	-58
 2089 0309 C6       		.byte	-58
 2090 030a C6       		.byte	-58
 2091 030b C6       		.byte	-58
 2092 030c C6       		.byte	-58
 2093 030d 7C       		.byte	124
 2094 030e 00       		.byte	0
 2095 030f 00       		.byte	0
 2096 0310 00       		.byte	0
 2097 0311 00       		.byte	0
 2098 0312 00       		.byte	0
 2099 0313 C6       		.byte	-58
 2100 0314 C6       		.byte	-58
 2101 0315 C6       		.byte	-58
 2102 0316 C6       		.byte	-58
 2103 0317 C6       		.byte	-58
 2104 0318 C6       		.byte	-58
 2105 0319 6C       		.byte	108
ARM GAS  C:\Users\KOZLOV~1\AppData\Local\Temp\cctyslCN.s 			page 52


 2106 031a 38       		.byte	56
 2107 031b 10       		.byte	16
 2108 031c 00       		.byte	0
 2109 031d 00       		.byte	0
 2110 031e 00       		.byte	0
 2111 031f 00       		.byte	0
 2112 0320 00       		.byte	0
 2113 0321 C6       		.byte	-58
 2114 0322 C6       		.byte	-58
 2115 0323 C6       		.byte	-58
 2116 0324 C6       		.byte	-58
 2117 0325 D6       		.byte	-42
 2118 0326 D6       		.byte	-42
 2119 0327 FE       		.byte	-2
 2120 0328 6C       		.byte	108
 2121 0329 6C       		.byte	108
 2122 032a 00       		.byte	0
 2123 032b 00       		.byte	0
 2124 032c 00       		.byte	0
 2125 032d 00       		.byte	0
 2126 032e 00       		.byte	0
 2127 032f C6       		.byte	-58
 2128 0330 C6       		.byte	-58
 2129 0331 C6       		.byte	-58
 2130 0332 7C       		.byte	124
 2131 0333 38       		.byte	56
 2132 0334 7C       		.byte	124
 2133 0335 C6       		.byte	-58
 2134 0336 C6       		.byte	-58
 2135 0337 C6       		.byte	-58
 2136 0338 00       		.byte	0
 2137 0339 00       		.byte	0
 2138 033a 00       		.byte	0
 2139 033b 00       		.byte	0
 2140 033c 00       		.byte	0
 2141 033d 66       		.byte	102
 2142 033e 66       		.byte	102
 2143 033f 66       		.byte	102
 2144 0340 66       		.byte	102
 2145 0341 3C       		.byte	60
 2146 0342 18       		.byte	24
 2147 0343 18       		.byte	24
 2148 0344 18       		.byte	24
 2149 0345 3C       		.byte	60
 2150 0346 00       		.byte	0
 2151 0347 00       		.byte	0
 2152 0348 00       		.byte	0
 2153 0349 00       		.byte	0
 2154 034a 00       		.byte	0
 2155 034b FE       		.byte	-2
 2156 034c C6       		.byte	-58
 2157 034d 8C       		.byte	-116
 2158 034e 18       		.byte	24
 2159 034f 30       		.byte	48
 2160 0350 60       		.byte	96
 2161 0351 C2       		.byte	-62
 2162 0352 C6       		.byte	-58
ARM GAS  C:\Users\KOZLOV~1\AppData\Local\Temp\cctyslCN.s 			page 53


 2163 0353 FE       		.byte	-2
 2164 0354 00       		.byte	0
 2165 0355 00       		.byte	0
 2166 0356 00       		.byte	0
 2167 0357 00       		.byte	0
 2168 0358 00       		.byte	0
 2169 0359 3C       		.byte	60
 2170 035a 30       		.byte	48
 2171 035b 30       		.byte	48
 2172 035c 30       		.byte	48
 2173 035d 30       		.byte	48
 2174 035e 30       		.byte	48
 2175 035f 30       		.byte	48
 2176 0360 30       		.byte	48
 2177 0361 3C       		.byte	60
 2178 0362 00       		.byte	0
 2179 0363 00       		.byte	0
 2180 0364 00       		.byte	0
 2181 0365 00       		.byte	0
 2182 0366 00       		.byte	0
 2183 0367 80       		.byte	-128
 2184 0368 C0       		.byte	-64
 2185 0369 E0       		.byte	-32
 2186 036a 70       		.byte	112
 2187 036b 38       		.byte	56
 2188 036c 1C       		.byte	28
 2189 036d 0E       		.byte	14
 2190 036e 06       		.byte	6
 2191 036f 02       		.byte	2
 2192 0370 00       		.byte	0
 2193 0371 00       		.byte	0
 2194 0372 00       		.byte	0
 2195 0373 00       		.byte	0
 2196 0374 00       		.byte	0
 2197 0375 3C       		.byte	60
 2198 0376 0C       		.byte	12
 2199 0377 0C       		.byte	12
 2200 0378 0C       		.byte	12
 2201 0379 0C       		.byte	12
 2202 037a 0C       		.byte	12
 2203 037b 0C       		.byte	12
 2204 037c 0C       		.byte	12
 2205 037d 3C       		.byte	60
 2206 037e 00       		.byte	0
 2207 037f 00       		.byte	0
 2208 0380 10       		.byte	16
 2209 0381 38       		.byte	56
 2210 0382 6C       		.byte	108
 2211 0383 C6       		.byte	-58
 2212 0384 00       		.byte	0
 2213 0385 00       		.byte	0
 2214 0386 00       		.byte	0
 2215 0387 00       		.byte	0
 2216 0388 00       		.byte	0
 2217 0389 00       		.byte	0
 2218 038a 00       		.byte	0
 2219 038b 00       		.byte	0
ARM GAS  C:\Users\KOZLOV~1\AppData\Local\Temp\cctyslCN.s 			page 54


 2220 038c 00       		.byte	0
 2221 038d 00       		.byte	0
 2222 038e 00       		.byte	0
 2223 038f 00       		.byte	0
 2224 0390 00       		.byte	0
 2225 0391 00       		.byte	0
 2226 0392 00       		.byte	0
 2227 0393 00       		.byte	0
 2228 0394 00       		.byte	0
 2229 0395 00       		.byte	0
 2230 0396 00       		.byte	0
 2231 0397 00       		.byte	0
 2232 0398 00       		.byte	0
 2233 0399 00       		.byte	0
 2234 039a 00       		.byte	0
 2235 039b FF       		.byte	-1
 2236 039c 00       		.byte	0
 2237 039d 30       		.byte	48
 2238 039e 18       		.byte	24
 2239 039f 0C       		.byte	12
 2240 03a0 00       		.byte	0
 2241 03a1 00       		.byte	0
 2242 03a2 00       		.byte	0
 2243 03a3 00       		.byte	0
 2244 03a4 00       		.byte	0
 2245 03a5 00       		.byte	0
 2246 03a6 00       		.byte	0
 2247 03a7 00       		.byte	0
 2248 03a8 00       		.byte	0
 2249 03a9 00       		.byte	0
 2250 03aa 00       		.byte	0
 2251 03ab 00       		.byte	0
 2252 03ac 00       		.byte	0
 2253 03ad 00       		.byte	0
 2254 03ae 00       		.byte	0
 2255 03af 00       		.byte	0
 2256 03b0 78       		.byte	120
 2257 03b1 0C       		.byte	12
 2258 03b2 7C       		.byte	124
 2259 03b3 CC       		.byte	-52
 2260 03b4 CC       		.byte	-52
 2261 03b5 76       		.byte	118
 2262 03b6 00       		.byte	0
 2263 03b7 00       		.byte	0
 2264 03b8 00       		.byte	0
 2265 03b9 00       		.byte	0
 2266 03ba 00       		.byte	0
 2267 03bb E0       		.byte	-32
 2268 03bc 60       		.byte	96
 2269 03bd 60       		.byte	96
 2270 03be 78       		.byte	120
 2271 03bf 6C       		.byte	108
 2272 03c0 66       		.byte	102
 2273 03c1 66       		.byte	102
 2274 03c2 66       		.byte	102
 2275 03c3 7C       		.byte	124
 2276 03c4 00       		.byte	0
ARM GAS  C:\Users\KOZLOV~1\AppData\Local\Temp\cctyslCN.s 			page 55


 2277 03c5 00       		.byte	0
 2278 03c6 00       		.byte	0
 2279 03c7 00       		.byte	0
 2280 03c8 00       		.byte	0
 2281 03c9 00       		.byte	0
 2282 03ca 00       		.byte	0
 2283 03cb 00       		.byte	0
 2284 03cc 7C       		.byte	124
 2285 03cd C6       		.byte	-58
 2286 03ce C0       		.byte	-64
 2287 03cf C0       		.byte	-64
 2288 03d0 C6       		.byte	-58
 2289 03d1 7C       		.byte	124
 2290 03d2 00       		.byte	0
 2291 03d3 00       		.byte	0
 2292 03d4 00       		.byte	0
 2293 03d5 00       		.byte	0
 2294 03d6 00       		.byte	0
 2295 03d7 1C       		.byte	28
 2296 03d8 0C       		.byte	12
 2297 03d9 0C       		.byte	12
 2298 03da 3C       		.byte	60
 2299 03db 6C       		.byte	108
 2300 03dc CC       		.byte	-52
 2301 03dd CC       		.byte	-52
 2302 03de CC       		.byte	-52
 2303 03df 76       		.byte	118
 2304 03e0 00       		.byte	0
 2305 03e1 00       		.byte	0
 2306 03e2 00       		.byte	0
 2307 03e3 00       		.byte	0
 2308 03e4 00       		.byte	0
 2309 03e5 00       		.byte	0
 2310 03e6 00       		.byte	0
 2311 03e7 00       		.byte	0
 2312 03e8 7C       		.byte	124
 2313 03e9 C6       		.byte	-58
 2314 03ea FE       		.byte	-2
 2315 03eb C0       		.byte	-64
 2316 03ec C6       		.byte	-58
 2317 03ed 7C       		.byte	124
 2318 03ee 00       		.byte	0
 2319 03ef 00       		.byte	0
 2320 03f0 00       		.byte	0
 2321 03f1 00       		.byte	0
 2322 03f2 00       		.byte	0
 2323 03f3 1C       		.byte	28
 2324 03f4 36       		.byte	54
 2325 03f5 32       		.byte	50
 2326 03f6 30       		.byte	48
 2327 03f7 7C       		.byte	124
 2328 03f8 30       		.byte	48
 2329 03f9 30       		.byte	48
 2330 03fa 30       		.byte	48
 2331 03fb 78       		.byte	120
 2332 03fc 00       		.byte	0
 2333 03fd 00       		.byte	0
ARM GAS  C:\Users\KOZLOV~1\AppData\Local\Temp\cctyslCN.s 			page 56


 2334 03fe 00       		.byte	0
 2335 03ff 00       		.byte	0
 2336 0400 00       		.byte	0
 2337 0401 00       		.byte	0
 2338 0402 00       		.byte	0
 2339 0403 00       		.byte	0
 2340 0404 76       		.byte	118
 2341 0405 CC       		.byte	-52
 2342 0406 CC       		.byte	-52
 2343 0407 CC       		.byte	-52
 2344 0408 7C       		.byte	124
 2345 0409 0C       		.byte	12
 2346 040a CC       		.byte	-52
 2347 040b 78       		.byte	120
 2348 040c 00       		.byte	0
 2349 040d 00       		.byte	0
 2350 040e 00       		.byte	0
 2351 040f E0       		.byte	-32
 2352 0410 60       		.byte	96
 2353 0411 60       		.byte	96
 2354 0412 6C       		.byte	108
 2355 0413 76       		.byte	118
 2356 0414 66       		.byte	102
 2357 0415 66       		.byte	102
 2358 0416 66       		.byte	102
 2359 0417 E6       		.byte	-26
 2360 0418 00       		.byte	0
 2361 0419 00       		.byte	0
 2362 041a 00       		.byte	0
 2363 041b 00       		.byte	0
 2364 041c 00       		.byte	0
 2365 041d 18       		.byte	24
 2366 041e 18       		.byte	24
 2367 041f 00       		.byte	0
 2368 0420 38       		.byte	56
 2369 0421 18       		.byte	24
 2370 0422 18       		.byte	24
 2371 0423 18       		.byte	24
 2372 0424 18       		.byte	24
 2373 0425 3C       		.byte	60
 2374 0426 00       		.byte	0
 2375 0427 00       		.byte	0
 2376 0428 00       		.byte	0
 2377 0429 00       		.byte	0
 2378 042a 00       		.byte	0
 2379 042b 06       		.byte	6
 2380 042c 06       		.byte	6
 2381 042d 00       		.byte	0
 2382 042e 0E       		.byte	14
 2383 042f 06       		.byte	6
 2384 0430 06       		.byte	6
 2385 0431 06       		.byte	6
 2386 0432 06       		.byte	6
 2387 0433 66       		.byte	102
 2388 0434 66       		.byte	102
 2389 0435 3C       		.byte	60
 2390 0436 00       		.byte	0
ARM GAS  C:\Users\KOZLOV~1\AppData\Local\Temp\cctyslCN.s 			page 57


 2391 0437 00       		.byte	0
 2392 0438 00       		.byte	0
 2393 0439 E0       		.byte	-32
 2394 043a 60       		.byte	96
 2395 043b 60       		.byte	96
 2396 043c 66       		.byte	102
 2397 043d 6C       		.byte	108
 2398 043e 78       		.byte	120
 2399 043f 6C       		.byte	108
 2400 0440 66       		.byte	102
 2401 0441 E6       		.byte	-26
 2402 0442 00       		.byte	0
 2403 0443 00       		.byte	0
 2404 0444 00       		.byte	0
 2405 0445 00       		.byte	0
 2406 0446 00       		.byte	0
 2407 0447 38       		.byte	56
 2408 0448 18       		.byte	24
 2409 0449 18       		.byte	24
 2410 044a 18       		.byte	24
 2411 044b 18       		.byte	24
 2412 044c 18       		.byte	24
 2413 044d 18       		.byte	24
 2414 044e 18       		.byte	24
 2415 044f 3C       		.byte	60
 2416 0450 00       		.byte	0
 2417 0451 00       		.byte	0
 2418 0452 00       		.byte	0
 2419 0453 00       		.byte	0
 2420 0454 00       		.byte	0
 2421 0455 00       		.byte	0
 2422 0456 00       		.byte	0
 2423 0457 00       		.byte	0
 2424 0458 EC       		.byte	-20
 2425 0459 FE       		.byte	-2
 2426 045a D6       		.byte	-42
 2427 045b D6       		.byte	-42
 2428 045c D6       		.byte	-42
 2429 045d D6       		.byte	-42
 2430 045e 00       		.byte	0
 2431 045f 00       		.byte	0
 2432 0460 00       		.byte	0
 2433 0461 00       		.byte	0
 2434 0462 00       		.byte	0
 2435 0463 00       		.byte	0
 2436 0464 00       		.byte	0
 2437 0465 00       		.byte	0
 2438 0466 DC       		.byte	-36
 2439 0467 66       		.byte	102
 2440 0468 66       		.byte	102
 2441 0469 66       		.byte	102
 2442 046a 66       		.byte	102
 2443 046b 66       		.byte	102
 2444 046c 00       		.byte	0
 2445 046d 00       		.byte	0
 2446 046e 00       		.byte	0
 2447 046f 00       		.byte	0
ARM GAS  C:\Users\KOZLOV~1\AppData\Local\Temp\cctyslCN.s 			page 58


 2448 0470 00       		.byte	0
 2449 0471 00       		.byte	0
 2450 0472 00       		.byte	0
 2451 0473 00       		.byte	0
 2452 0474 7C       		.byte	124
 2453 0475 C6       		.byte	-58
 2454 0476 C6       		.byte	-58
 2455 0477 C6       		.byte	-58
 2456 0478 C6       		.byte	-58
 2457 0479 7C       		.byte	124
 2458 047a 00       		.byte	0
 2459 047b 00       		.byte	0
 2460 047c 00       		.byte	0
 2461 047d 00       		.byte	0
 2462 047e 00       		.byte	0
 2463 047f 00       		.byte	0
 2464 0480 00       		.byte	0
 2465 0481 00       		.byte	0
 2466 0482 DC       		.byte	-36
 2467 0483 66       		.byte	102
 2468 0484 66       		.byte	102
 2469 0485 66       		.byte	102
 2470 0486 7C       		.byte	124
 2471 0487 60       		.byte	96
 2472 0488 60       		.byte	96
 2473 0489 F0       		.byte	-16
 2474 048a 00       		.byte	0
 2475 048b 00       		.byte	0
 2476 048c 00       		.byte	0
 2477 048d 00       		.byte	0
 2478 048e 00       		.byte	0
 2479 048f 00       		.byte	0
 2480 0490 76       		.byte	118
 2481 0491 CC       		.byte	-52
 2482 0492 CC       		.byte	-52
 2483 0493 CC       		.byte	-52
 2484 0494 7C       		.byte	124
 2485 0495 0C       		.byte	12
 2486 0496 0C       		.byte	12
 2487 0497 1E       		.byte	30
 2488 0498 00       		.byte	0
 2489 0499 00       		.byte	0
 2490 049a 00       		.byte	0
 2491 049b 00       		.byte	0
 2492 049c 00       		.byte	0
 2493 049d 00       		.byte	0
 2494 049e DC       		.byte	-36
 2495 049f 76       		.byte	118
 2496 04a0 66       		.byte	102
 2497 04a1 60       		.byte	96
 2498 04a2 60       		.byte	96
 2499 04a3 F0       		.byte	-16
 2500 04a4 00       		.byte	0
 2501 04a5 00       		.byte	0
 2502 04a6 00       		.byte	0
 2503 04a7 00       		.byte	0
 2504 04a8 00       		.byte	0
ARM GAS  C:\Users\KOZLOV~1\AppData\Local\Temp\cctyslCN.s 			page 59


 2505 04a9 00       		.byte	0
 2506 04aa 00       		.byte	0
 2507 04ab 00       		.byte	0
 2508 04ac 7C       		.byte	124
 2509 04ad C6       		.byte	-58
 2510 04ae 70       		.byte	112
 2511 04af 1C       		.byte	28
 2512 04b0 C6       		.byte	-58
 2513 04b1 7C       		.byte	124
 2514 04b2 00       		.byte	0
 2515 04b3 00       		.byte	0
 2516 04b4 00       		.byte	0
 2517 04b5 00       		.byte	0
 2518 04b6 00       		.byte	0
 2519 04b7 10       		.byte	16
 2520 04b8 30       		.byte	48
 2521 04b9 30       		.byte	48
 2522 04ba FC       		.byte	-4
 2523 04bb 30       		.byte	48
 2524 04bc 30       		.byte	48
 2525 04bd 30       		.byte	48
 2526 04be 36       		.byte	54
 2527 04bf 1C       		.byte	28
 2528 04c0 00       		.byte	0
 2529 04c1 00       		.byte	0
 2530 04c2 00       		.byte	0
 2531 04c3 00       		.byte	0
 2532 04c4 00       		.byte	0
 2533 04c5 00       		.byte	0
 2534 04c6 00       		.byte	0
 2535 04c7 00       		.byte	0
 2536 04c8 CC       		.byte	-52
 2537 04c9 CC       		.byte	-52
 2538 04ca CC       		.byte	-52
 2539 04cb CC       		.byte	-52
 2540 04cc CC       		.byte	-52
 2541 04cd 76       		.byte	118
 2542 04ce 00       		.byte	0
 2543 04cf 00       		.byte	0
 2544 04d0 00       		.byte	0
 2545 04d1 00       		.byte	0
 2546 04d2 00       		.byte	0
 2547 04d3 00       		.byte	0
 2548 04d4 00       		.byte	0
 2549 04d5 00       		.byte	0
 2550 04d6 C6       		.byte	-58
 2551 04d7 C6       		.byte	-58
 2552 04d8 C6       		.byte	-58
 2553 04d9 6C       		.byte	108
 2554 04da 38       		.byte	56
 2555 04db 10       		.byte	16
 2556 04dc 00       		.byte	0
 2557 04dd 00       		.byte	0
 2558 04de 00       		.byte	0
 2559 04df 00       		.byte	0
 2560 04e0 00       		.byte	0
 2561 04e1 00       		.byte	0
ARM GAS  C:\Users\KOZLOV~1\AppData\Local\Temp\cctyslCN.s 			page 60


 2562 04e2 00       		.byte	0
 2563 04e3 00       		.byte	0
 2564 04e4 C6       		.byte	-58
 2565 04e5 C6       		.byte	-58
 2566 04e6 D6       		.byte	-42
 2567 04e7 D6       		.byte	-42
 2568 04e8 FE       		.byte	-2
 2569 04e9 6C       		.byte	108
 2570 04ea 00       		.byte	0
 2571 04eb 00       		.byte	0
 2572 04ec 00       		.byte	0
 2573 04ed 00       		.byte	0
 2574 04ee 00       		.byte	0
 2575 04ef 00       		.byte	0
 2576 04f0 00       		.byte	0
 2577 04f1 00       		.byte	0
 2578 04f2 C6       		.byte	-58
 2579 04f3 6C       		.byte	108
 2580 04f4 38       		.byte	56
 2581 04f5 38       		.byte	56
 2582 04f6 6C       		.byte	108
 2583 04f7 C6       		.byte	-58
 2584 04f8 00       		.byte	0
 2585 04f9 00       		.byte	0
 2586 04fa 00       		.byte	0
 2587 04fb 00       		.byte	0
 2588 04fc 00       		.byte	0
 2589 04fd 00       		.byte	0
 2590 04fe 00       		.byte	0
 2591 04ff 00       		.byte	0
 2592 0500 C6       		.byte	-58
 2593 0501 C6       		.byte	-58
 2594 0502 C6       		.byte	-58
 2595 0503 C6       		.byte	-58
 2596 0504 7E       		.byte	126
 2597 0505 06       		.byte	6
 2598 0506 0C       		.byte	12
 2599 0507 78       		.byte	120
 2600 0508 00       		.byte	0
 2601 0509 00       		.byte	0
 2602 050a 00       		.byte	0
 2603 050b 00       		.byte	0
 2604 050c 00       		.byte	0
 2605 050d 00       		.byte	0
 2606 050e FE       		.byte	-2
 2607 050f CC       		.byte	-52
 2608 0510 18       		.byte	24
 2609 0511 30       		.byte	48
 2610 0512 66       		.byte	102
 2611 0513 FE       		.byte	-2
 2612 0514 00       		.byte	0
 2613 0515 00       		.byte	0
 2614 0516 00       		.byte	0
 2615 0517 00       		.byte	0
 2616 0518 00       		.byte	0
 2617 0519 0E       		.byte	14
 2618 051a 18       		.byte	24
ARM GAS  C:\Users\KOZLOV~1\AppData\Local\Temp\cctyslCN.s 			page 61


 2619 051b 18       		.byte	24
 2620 051c 18       		.byte	24
 2621 051d 70       		.byte	112
 2622 051e 18       		.byte	24
 2623 051f 18       		.byte	24
 2624 0520 18       		.byte	24
 2625 0521 0E       		.byte	14
 2626 0522 00       		.byte	0
 2627 0523 00       		.byte	0
 2628 0524 00       		.byte	0
 2629 0525 00       		.byte	0
 2630 0526 00       		.byte	0
 2631 0527 18       		.byte	24
 2632 0528 18       		.byte	24
 2633 0529 18       		.byte	24
 2634 052a 18       		.byte	24
 2635 052b 18       		.byte	24
 2636 052c 18       		.byte	24
 2637 052d 18       		.byte	24
 2638 052e 18       		.byte	24
 2639 052f 18       		.byte	24
 2640 0530 00       		.byte	0
 2641 0531 00       		.byte	0
 2642 0532 00       		.byte	0
 2643 0533 00       		.byte	0
 2644 0534 00       		.byte	0
 2645 0535 70       		.byte	112
 2646 0536 18       		.byte	24
 2647 0537 18       		.byte	24
 2648 0538 18       		.byte	24
 2649 0539 0E       		.byte	14
 2650 053a 18       		.byte	24
 2651 053b 18       		.byte	24
 2652 053c 18       		.byte	24
 2653 053d 70       		.byte	112
 2654 053e 00       		.byte	0
 2655 053f 00       		.byte	0
 2656 0540 00       		.byte	0
 2657 0541 76       		.byte	118
 2658 0542 DC       		.byte	-36
 2659 0543 00       		.byte	0
 2660 0544 00       		.byte	0
 2661 0545 00       		.byte	0
 2662 0546 00       		.byte	0
 2663 0547 00       		.byte	0
 2664 0548 00       		.byte	0
 2665 0549 00       		.byte	0
 2666 054a 00       		.byte	0
 2667 054b 00       		.byte	0
 2668 054c 00       		.byte	0
 2669 054d 00       		.byte	0
 2670 054e 00       		.byte	0
 2671 054f 00       		.byte	0
 2672 0550 00       		.byte	0
 2673 0551 00       		.byte	0
 2674 0552 00       		.byte	0
 2675 0553 10       		.byte	16
ARM GAS  C:\Users\KOZLOV~1\AppData\Local\Temp\cctyslCN.s 			page 62


 2676 0554 38       		.byte	56
 2677 0555 6C       		.byte	108
 2678 0556 C6       		.byte	-58
 2679 0557 C6       		.byte	-58
 2680 0558 FE       		.byte	-2
 2681 0559 00       		.byte	0
 2682 055a 00       		.byte	0
 2683 055b 00       		.byte	0
 2684              		.bss
 2685              		.set	.LANCHOR0,. + 0
 2686              		.type	bkgColor, %object
 2687              		.size	bkgColor, 1
 2688              	bkgColor:
 2689 0000 00       		.space	1
 2690              		.type	textColor, %object
 2691              		.size	textColor, 1
 2692              	textColor:
 2693 0001 00       		.space	1
 2694              		.type	lcd_x, %object
 2695              		.size	lcd_x, 1
 2696              	lcd_x:
 2697 0002 00       		.space	1
 2698              		.type	lcd_y, %object
 2699              		.size	lcd_y, 1
 2700              	lcd_y:
 2701 0003 00       		.space	1
 2702              		.type	setcolmark, %object
 2703              		.size	setcolmark, 1
 2704              	setcolmark:
 2705 0004 00       		.space	1
 2706              		.text
 2707              	.Letext0:
 2708              		.file 2 "./startup/../pre_emptive_os/api/general.h"
 2709              		.file 3 "ascii.h"
 2710              		.section	.debug_info,"",%progbits
 2711              	.Ldebug_info0:
 2712 0000 0E060000 		.4byte	0x60e
 2713 0004 0200     		.2byte	0x2
 2714 0006 00000000 		.4byte	.Ldebug_abbrev0
 2715 000a 04       		.byte	0x4
 2716 000b 01       		.uleb128 0x1
 2717 000c 84010000 		.4byte	.LASF45
 2718 0010 01       		.byte	0x1
 2719 0011 7E010000 		.4byte	.LASF46
 2720 0015 69000000 		.4byte	.LASF47
 2721 0019 00000000 		.4byte	.Ltext0
 2722 001d 84050000 		.4byte	.Letext0
 2723 0021 00000000 		.4byte	.Ldebug_line0
 2724 0025 02       		.uleb128 0x2
 2725 0026 74553800 		.ascii	"tU8\000"
 2726 002a 02       		.byte	0x2
 2727 002b 47       		.byte	0x47
 2728 002c 30000000 		.4byte	0x30
 2729 0030 03       		.uleb128 0x3
 2730 0031 01       		.byte	0x1
 2731 0032 08       		.byte	0x8
 2732 0033 1F010000 		.4byte	.LASF0
ARM GAS  C:\Users\KOZLOV~1\AppData\Local\Temp\cctyslCN.s 			page 63


 2733 0037 03       		.uleb128 0x3
 2734 0038 02       		.byte	0x2
 2735 0039 07       		.byte	0x7
 2736 003a 6B010000 		.4byte	.LASF1
 2737 003e 04       		.uleb128 0x4
 2738 003f B7000000 		.4byte	.LASF2
 2739 0043 02       		.byte	0x2
 2740 0044 49       		.byte	0x49
 2741 0045 49000000 		.4byte	0x49
 2742 0049 03       		.uleb128 0x3
 2743 004a 04       		.byte	0x4
 2744 004b 07       		.byte	0x7
 2745 004c 4A010000 		.4byte	.LASF3
 2746 0050 03       		.uleb128 0x3
 2747 0051 01       		.byte	0x1
 2748 0052 06       		.byte	0x6
 2749 0053 35010000 		.4byte	.LASF4
 2750 0057 03       		.uleb128 0x3
 2751 0058 02       		.byte	0x2
 2752 0059 05       		.byte	0x5
 2753 005a 3D000000 		.4byte	.LASF5
 2754 005e 04       		.uleb128 0x4
 2755 005f 10010000 		.4byte	.LASF6
 2756 0063 02       		.byte	0x2
 2757 0064 4C       		.byte	0x4c
 2758 0065 69000000 		.4byte	0x69
 2759 0069 05       		.uleb128 0x5
 2760 006a 04       		.byte	0x4
 2761 006b 05       		.byte	0x5
 2762 006c 696E7400 		.ascii	"int\000"
 2763 0070 04       		.uleb128 0x4
 2764 0071 57010000 		.4byte	.LASF7
 2765 0075 02       		.byte	0x2
 2766 0076 4D       		.byte	0x4d
 2767 0077 30000000 		.4byte	0x30
 2768 007b 06       		.uleb128 0x6
 2769 007c 04       		.byte	0x4
 2770 007d 25000000 		.4byte	0x25
 2771 0081 03       		.uleb128 0x3
 2772 0082 04       		.byte	0x4
 2773 0083 07       		.byte	0x7
 2774 0084 95010000 		.4byte	.LASF8
 2775 0088 07       		.uleb128 0x7
 2776 0089 E5010000 		.4byte	.LASF48
 2777 008d 01       		.byte	0x1
 2778 008e AF01     		.2byte	0x1af
 2779 0090 01       		.byte	0x1
 2780 0091 01       		.byte	0x1
 2781 0092 08       		.uleb128 0x8
 2782 0093 01       		.byte	0x1
 2783 0094 60000000 		.4byte	.LASF10
 2784 0098 01       		.byte	0x1
 2785 0099 B6       		.byte	0xb6
 2786 009a 01       		.byte	0x1
 2787 009b 00000000 		.4byte	.LFB3
 2788 009f 0C000000 		.4byte	.LFE3
 2789 00a3 02       		.byte	0x2
ARM GAS  C:\Users\KOZLOV~1\AppData\Local\Temp\cctyslCN.s 			page 64


 2790 00a4 7D       		.byte	0x7d
 2791 00a5 00       		.sleb128 0
 2792 00a6 C5000000 		.4byte	0xc5
 2793 00aa 09       		.uleb128 0x9
 2794 00ab 626B6700 		.ascii	"bkg\000"
 2795 00af 01       		.byte	0x1
 2796 00b0 B6       		.byte	0xb6
 2797 00b1 25000000 		.4byte	0x25
 2798 00b5 01       		.byte	0x1
 2799 00b6 50       		.byte	0x50
 2800 00b7 0A       		.uleb128 0xa
 2801 00b8 12000000 		.4byte	.LASF9
 2802 00bc 01       		.byte	0x1
 2803 00bd B6       		.byte	0xb6
 2804 00be 25000000 		.4byte	0x25
 2805 00c2 01       		.byte	0x1
 2806 00c3 51       		.byte	0x51
 2807 00c4 00       		.byte	0
 2808 00c5 0B       		.uleb128 0xb
 2809 00c6 01       		.byte	0x1
 2810 00c7 C9010000 		.4byte	.LASF11
 2811 00cb 01       		.byte	0x1
 2812 00cc 1B02     		.2byte	0x21b
 2813 00ce 01       		.byte	0x1
 2814 00cf 0C000000 		.4byte	.LFB16
 2815 00d3 1C000000 		.4byte	.LFE16
 2816 00d7 00000000 		.4byte	.LLST0
 2817 00db F0000000 		.4byte	0xf0
 2818 00df 0C       		.uleb128 0xc
 2819 00e0 90010000 		.4byte	.LASF12
 2820 00e4 01       		.byte	0x1
 2821 00e5 1B02     		.2byte	0x21b
 2822 00e7 25000000 		.4byte	0x25
 2823 00eb 20000000 		.4byte	.LLST1
 2824 00ef 00       		.byte	0
 2825 00f0 0B       		.uleb128 0xb
 2826 00f1 01       		.byte	0x1
 2827 00f2 A6000000 		.4byte	.LASF13
 2828 00f6 01       		.byte	0x1
 2829 00f7 2802     		.2byte	0x228
 2830 00f9 01       		.byte	0x1
 2831 00fa 1C000000 		.4byte	.LFB17
 2832 00fe 2C000000 		.4byte	.LFE17
 2833 0102 33000000 		.4byte	.LLST2
 2834 0106 1B010000 		.4byte	0x11b
 2835 010a 0C       		.uleb128 0xc
 2836 010b 90010000 		.4byte	.LASF12
 2837 010f 01       		.byte	0x1
 2838 0110 2802     		.2byte	0x228
 2839 0112 25000000 		.4byte	0x25
 2840 0116 53000000 		.4byte	.LLST3
 2841 011a 00       		.byte	0
 2842 011b 0B       		.uleb128 0xb
 2843 011c 01       		.byte	0x1
 2844 011d C8000000 		.4byte	.LASF14
 2845 0121 01       		.byte	0x1
 2846 0122 C001     		.2byte	0x1c0
ARM GAS  C:\Users\KOZLOV~1\AppData\Local\Temp\cctyslCN.s 			page 65


 2847 0124 01       		.byte	0x1
 2848 0125 2C000000 		.4byte	.LFB13
 2849 0129 DC000000 		.4byte	.LFE13
 2850 012d 66000000 		.4byte	.LLST4
 2851 0131 8C010000 		.4byte	0x18c
 2852 0135 0C       		.uleb128 0xc
 2853 0136 90010000 		.4byte	.LASF12
 2854 013a 01       		.byte	0x1
 2855 013b C001     		.2byte	0x1c0
 2856 013d 25000000 		.4byte	0x25
 2857 0141 86000000 		.4byte	.LLST5
 2858 0145 0D       		.uleb128 0xd
 2859 0146 3C000000 		.4byte	.LBB4
 2860 014a BE000000 		.4byte	.LBE4
 2861 014e 0E       		.uleb128 0xe
 2862 014f 06010000 		.4byte	.LASF15
 2863 0153 01       		.byte	0x1
 2864 0154 C701     		.2byte	0x1c7
 2865 0156 3E000000 		.4byte	0x3e
 2866 015a B3000000 		.4byte	.LLST6
 2867 015e 0F       		.uleb128 0xf
 2868 015f 6900     		.ascii	"i\000"
 2869 0161 01       		.byte	0x1
 2870 0162 C801     		.2byte	0x1c8
 2871 0164 25000000 		.4byte	0x25
 2872 0168 D2000000 		.4byte	.LLST7
 2873 016c 0F       		.uleb128 0xf
 2874 016d 6A00     		.ascii	"j\000"
 2875 016f 01       		.byte	0x1
 2876 0170 C801     		.2byte	0x1c8
 2877 0172 25000000 		.4byte	0x25
 2878 0176 E6000000 		.4byte	.LLST8
 2879 017a 0E       		.uleb128 0xe
 2880 017b 26000000 		.4byte	.LASF16
 2881 017f 01       		.byte	0x1
 2882 0180 C801     		.2byte	0x1c8
 2883 0182 25000000 		.4byte	0x25
 2884 0186 FA000000 		.4byte	.LLST9
 2885 018a 00       		.byte	0
 2886 018b 00       		.byte	0
 2887 018c 0B       		.uleb128 0xb
 2888 018d 01       		.byte	0x1
 2889 018e D0000000 		.4byte	.LASF17
 2890 0192 01       		.byte	0x1
 2891 0193 F201     		.2byte	0x1f2
 2892 0195 01       		.byte	0x1
 2893 0196 DC000000 		.4byte	.LFB14
 2894 019a 30010000 		.4byte	.LFE14
 2895 019e 18010000 		.4byte	.LLST10
 2896 01a2 C7010000 		.4byte	0x1c7
 2897 01a6 0C       		.uleb128 0xc
 2898 01a7 90010000 		.4byte	.LASF12
 2899 01ab 01       		.byte	0x1
 2900 01ac F201     		.2byte	0x1f2
 2901 01ae 25000000 		.4byte	0x25
 2902 01b2 38010000 		.4byte	.LLST11
 2903 01b6 10       		.uleb128 0x10
ARM GAS  C:\Users\KOZLOV~1\AppData\Local\Temp\cctyslCN.s 			page 66


 2904 01b7 88000000 		.4byte	0x88
 2905 01bb E6000000 		.4byte	.LBB5
 2906 01bf 00010000 		.4byte	.LBE5
 2907 01c3 01       		.byte	0x1
 2908 01c4 F501     		.2byte	0x1f5
 2909 01c6 00       		.byte	0
 2910 01c7 0B       		.uleb128 0xb
 2911 01c8 01       		.byte	0x1
 2912 01c9 58000000 		.4byte	.LASF18
 2913 01cd 01       		.byte	0x1
 2914 01ce 0D02     		.2byte	0x20d
 2915 01d0 01       		.byte	0x1
 2916 01d1 30010000 		.4byte	.LFB15
 2917 01d5 48010000 		.4byte	.LFE15
 2918 01d9 4B010000 		.4byte	.LLST12
 2919 01dd F0010000 		.4byte	0x1f0
 2920 01e1 11       		.uleb128 0x11
 2921 01e2 7300     		.ascii	"s\000"
 2922 01e4 01       		.byte	0x1
 2923 01e5 0D02     		.2byte	0x20d
 2924 01e7 7B000000 		.4byte	0x7b
 2925 01eb 6B010000 		.4byte	.LLST13
 2926 01ef 00       		.byte	0
 2927 01f0 12       		.uleb128 0x12
 2928 01f1 32000000 		.4byte	.LASF49
 2929 01f5 01       		.byte	0x1
 2930 01f6 9C01     		.2byte	0x19c
 2931 01f8 01       		.byte	0x1
 2932 01f9 48010000 		.4byte	.LFB11
 2933 01fd 94010000 		.4byte	.LFE11
 2934 0201 89010000 		.4byte	.LLST14
 2935 0205 46020000 		.4byte	0x246
 2936 0209 11       		.uleb128 0x11
 2937 020a 787000   		.ascii	"xp\000"
 2938 020d 01       		.byte	0x1
 2939 020e 9C01     		.2byte	0x19c
 2940 0210 25000000 		.4byte	0x25
 2941 0214 A9010000 		.4byte	.LLST15
 2942 0218 11       		.uleb128 0x11
 2943 0219 797000   		.ascii	"yp\000"
 2944 021c 01       		.byte	0x1
 2945 021d 9C01     		.2byte	0x19c
 2946 021f 25000000 		.4byte	0x25
 2947 0223 BC010000 		.4byte	.LLST16
 2948 0227 11       		.uleb128 0x11
 2949 0228 786500   		.ascii	"xe\000"
 2950 022b 01       		.byte	0x1
 2951 022c 9C01     		.2byte	0x19c
 2952 022e 25000000 		.4byte	0x25
 2953 0232 CF010000 		.4byte	.LLST17
 2954 0236 11       		.uleb128 0x11
 2955 0237 796500   		.ascii	"ye\000"
 2956 023a 01       		.byte	0x1
 2957 023b 9C01     		.2byte	0x19c
 2958 023d 25000000 		.4byte	0x25
 2959 0241 E2010000 		.4byte	.LLST18
 2960 0245 00       		.byte	0
ARM GAS  C:\Users\KOZLOV~1\AppData\Local\Temp\cctyslCN.s 			page 67


 2961 0246 0B       		.uleb128 0xb
 2962 0247 01       		.byte	0x1
 2963 0248 08000000 		.4byte	.LASF19
 2964 024c 01       		.byte	0x1
 2965 024d 8701     		.2byte	0x187
 2966 024f 01       		.byte	0x1
 2967 0250 94010000 		.4byte	.LFB10
 2968 0254 C4010000 		.4byte	.LFE10
 2969 0258 F5010000 		.4byte	.LLST19
 2970 025c 9D020000 		.4byte	0x29d
 2971 0260 11       		.uleb128 0x11
 2972 0261 787000   		.ascii	"xp\000"
 2973 0264 01       		.byte	0x1
 2974 0265 8701     		.2byte	0x187
 2975 0267 25000000 		.4byte	0x25
 2976 026b 15020000 		.4byte	.LLST20
 2977 026f 11       		.uleb128 0x11
 2978 0270 797000   		.ascii	"yp\000"
 2979 0273 01       		.byte	0x1
 2980 0274 8701     		.2byte	0x187
 2981 0276 25000000 		.4byte	0x25
 2982 027a 28020000 		.4byte	.LLST21
 2983 027e 11       		.uleb128 0x11
 2984 027f 786500   		.ascii	"xe\000"
 2985 0282 01       		.byte	0x1
 2986 0283 8701     		.2byte	0x187
 2987 0285 25000000 		.4byte	0x25
 2988 0289 3B020000 		.4byte	.LLST22
 2989 028d 11       		.uleb128 0x11
 2990 028e 796500   		.ascii	"ye\000"
 2991 0291 01       		.byte	0x1
 2992 0292 8701     		.2byte	0x187
 2993 0294 25000000 		.4byte	0x25
 2994 0298 4E020000 		.4byte	.LLST23
 2995 029c 00       		.byte	0
 2996 029d 0B       		.uleb128 0xb
 2997 029e 01       		.byte	0x1
 2998 029f 15010000 		.4byte	.LASF20
 2999 02a3 01       		.byte	0x1
 3000 02a4 7601     		.2byte	0x176
 3001 02a6 01       		.byte	0x1
 3002 02a7 C4010000 		.4byte	.LFB9
 3003 02ab E4010000 		.4byte	.LFE9
 3004 02af 61020000 		.4byte	.LLST24
 3005 02b3 D4020000 		.4byte	0x2d4
 3006 02b7 11       		.uleb128 0x11
 3007 02b8 7800     		.ascii	"x\000"
 3008 02ba 01       		.byte	0x1
 3009 02bb 7601     		.2byte	0x176
 3010 02bd 25000000 		.4byte	0x25
 3011 02c1 81020000 		.4byte	.LLST25
 3012 02c5 11       		.uleb128 0x11
 3013 02c6 7900     		.ascii	"y\000"
 3014 02c8 01       		.byte	0x1
 3015 02c9 7601     		.2byte	0x176
 3016 02cb 25000000 		.4byte	0x25
 3017 02cf 94020000 		.4byte	.LLST26
ARM GAS  C:\Users\KOZLOV~1\AppData\Local\Temp\cctyslCN.s 			page 68


 3018 02d3 00       		.byte	0
 3019 02d4 0B       		.uleb128 0xb
 3020 02d5 01       		.byte	0x1
 3021 02d6 00000000 		.4byte	.LASF21
 3022 02da 01       		.byte	0x1
 3023 02db 4501     		.2byte	0x145
 3024 02dd 01       		.byte	0x1
 3025 02de E4010000 		.4byte	.LFB8
 3026 02e2 82020000 		.4byte	.LFE8
 3027 02e6 A7020000 		.4byte	.LLST27
 3028 02ea 85030000 		.4byte	0x385
 3029 02ee 11       		.uleb128 0x11
 3030 02ef 7800     		.ascii	"x\000"
 3031 02f1 01       		.byte	0x1
 3032 02f2 4501     		.2byte	0x145
 3033 02f4 25000000 		.4byte	0x25
 3034 02f8 C7020000 		.4byte	.LLST28
 3035 02fc 11       		.uleb128 0x11
 3036 02fd 7900     		.ascii	"y\000"
 3037 02ff 01       		.byte	0x1
 3038 0300 4501     		.2byte	0x145
 3039 0302 25000000 		.4byte	0x25
 3040 0306 DA020000 		.4byte	.LLST29
 3041 030a 0C       		.uleb128 0xc
 3042 030b C4010000 		.4byte	.LASF22
 3043 030f 01       		.byte	0x1
 3044 0310 4501     		.2byte	0x145
 3045 0312 25000000 		.4byte	0x25
 3046 0316 ED020000 		.4byte	.LLST30
 3047 031a 0C       		.uleb128 0xc
 3048 031b D2010000 		.4byte	.LASF23
 3049 031f 01       		.byte	0x1
 3050 0320 4501     		.2byte	0x145
 3051 0322 25000000 		.4byte	0x25
 3052 0326 00030000 		.4byte	.LLST31
 3053 032a 13       		.uleb128 0x13
 3054 032b 5D010000 		.4byte	.LASF24
 3055 032f 01       		.byte	0x1
 3056 0330 4501     		.2byte	0x145
 3057 0332 25000000 		.4byte	0x25
 3058 0336 02       		.byte	0x2
 3059 0337 91       		.byte	0x91
 3060 0338 00       		.sleb128 0
 3061 0339 13       		.uleb128 0x13
 3062 033a FB000000 		.4byte	.LASF25
 3063 033e 01       		.byte	0x1
 3064 033f 4501     		.2byte	0x145
 3065 0341 25000000 		.4byte	0x25
 3066 0345 02       		.byte	0x2
 3067 0346 91       		.byte	0x91
 3068 0347 04       		.sleb128 4
 3069 0348 0C       		.uleb128 0xc
 3070 0349 17000000 		.4byte	.LASF26
 3071 034d 01       		.byte	0x1
 3072 034e 4501     		.2byte	0x145
 3073 0350 85030000 		.4byte	0x385
 3074 0354 13030000 		.4byte	.LLST32
ARM GAS  C:\Users\KOZLOV~1\AppData\Local\Temp\cctyslCN.s 			page 69


 3075 0358 0F       		.uleb128 0xf
 3076 0359 6900     		.ascii	"i\000"
 3077 035b 01       		.byte	0x1
 3078 035c 4701     		.2byte	0x147
 3079 035e 3E000000 		.4byte	0x3e
 3080 0362 57030000 		.4byte	.LLST33
 3081 0366 0F       		.uleb128 0xf
 3082 0367 6A00     		.ascii	"j\000"
 3083 0369 01       		.byte	0x1
 3084 036a 4701     		.2byte	0x147
 3085 036c 3E000000 		.4byte	0x3e
 3086 0370 81030000 		.4byte	.LLST34
 3087 0374 0F       		.uleb128 0xf
 3088 0375 6C656E00 		.ascii	"len\000"
 3089 0379 01       		.byte	0x1
 3090 037a 4801     		.2byte	0x148
 3091 037c 5E000000 		.4byte	0x5e
 3092 0380 94030000 		.4byte	.LLST35
 3093 0384 00       		.byte	0
 3094 0385 06       		.uleb128 0x6
 3095 0386 04       		.byte	0x4
 3096 0387 8B030000 		.4byte	0x38b
 3097 038b 14       		.uleb128 0x14
 3098 038c 25000000 		.4byte	0x25
 3099 0390 0B       		.uleb128 0xb
 3100 0391 01       		.byte	0x1
 3101 0392 DB000000 		.4byte	.LASF27
 3102 0396 01       		.byte	0x1
 3103 0397 1A01     		.2byte	0x11a
 3104 0399 01       		.byte	0x1
 3105 039a 82020000 		.4byte	.LFB7
 3106 039e 30030000 		.4byte	.LFE7
 3107 03a2 A7030000 		.4byte	.LLST36
 3108 03a6 30040000 		.4byte	0x430
 3109 03aa 11       		.uleb128 0x11
 3110 03ab 7800     		.ascii	"x\000"
 3111 03ad 01       		.byte	0x1
 3112 03ae 1A01     		.2byte	0x11a
 3113 03b0 25000000 		.4byte	0x25
 3114 03b4 C7030000 		.4byte	.LLST37
 3115 03b8 11       		.uleb128 0x11
 3116 03b9 7900     		.ascii	"y\000"
 3117 03bb 01       		.byte	0x1
 3118 03bc 1A01     		.2byte	0x11a
 3119 03be 25000000 		.4byte	0x25
 3120 03c2 DA030000 		.4byte	.LLST38
 3121 03c6 0C       		.uleb128 0xc
 3122 03c7 C4010000 		.4byte	.LASF22
 3123 03cb 01       		.byte	0x1
 3124 03cc 1A01     		.2byte	0x11a
 3125 03ce 25000000 		.4byte	0x25
 3126 03d2 ED030000 		.4byte	.LLST39
 3127 03d6 0C       		.uleb128 0xc
 3128 03d7 D2010000 		.4byte	.LASF23
 3129 03db 01       		.byte	0x1
 3130 03dc 1A01     		.2byte	0x11a
 3131 03de 25000000 		.4byte	0x25
ARM GAS  C:\Users\KOZLOV~1\AppData\Local\Temp\cctyslCN.s 			page 70


 3132 03e2 00040000 		.4byte	.LLST40
 3133 03e6 13       		.uleb128 0x13
 3134 03e7 AF010000 		.4byte	.LASF28
 3135 03eb 01       		.byte	0x1
 3136 03ec 1A01     		.2byte	0x11a
 3137 03ee 25000000 		.4byte	0x25
 3138 03f2 02       		.byte	0x2
 3139 03f3 91       		.byte	0x91
 3140 03f4 00       		.sleb128 0
 3141 03f5 13       		.uleb128 0x13
 3142 03f6 B6010000 		.4byte	.LASF29
 3143 03fa 01       		.byte	0x1
 3144 03fb 1A01     		.2byte	0x11a
 3145 03fd 25000000 		.4byte	0x25
 3146 0401 02       		.byte	0x2
 3147 0402 91       		.byte	0x91
 3148 0403 04       		.sleb128 4
 3149 0404 13       		.uleb128 0x13
 3150 0405 BD010000 		.4byte	.LASF30
 3151 0409 01       		.byte	0x1
 3152 040a 1A01     		.2byte	0x11a
 3153 040c 25000000 		.4byte	0x25
 3154 0410 02       		.byte	0x2
 3155 0411 91       		.byte	0x91
 3156 0412 08       		.sleb128 8
 3157 0413 0F       		.uleb128 0xf
 3158 0414 6900     		.ascii	"i\000"
 3159 0416 01       		.byte	0x1
 3160 0417 1C01     		.2byte	0x11c
 3161 0419 3E000000 		.4byte	0x3e
 3162 041d 13040000 		.4byte	.LLST41
 3163 0421 0F       		.uleb128 0xf
 3164 0422 6A00     		.ascii	"j\000"
 3165 0424 01       		.byte	0x1
 3166 0425 1C01     		.2byte	0x11c
 3167 0427 3E000000 		.4byte	0x3e
 3168 042b 54040000 		.4byte	.LLST42
 3169 042f 00       		.byte	0
 3170 0430 15       		.uleb128 0x15
 3171 0431 01       		.byte	0x1
 3172 0432 DD010000 		.4byte	.LASF31
 3173 0436 01       		.byte	0x1
 3174 0437 FD       		.byte	0xfd
 3175 0438 01       		.byte	0x1
 3176 0439 30030000 		.4byte	.LFB6
 3177 043d 8C030000 		.4byte	.LFE6
 3178 0441 67040000 		.4byte	.LLST43
 3179 0445 AD040000 		.4byte	0x4ad
 3180 0449 16       		.uleb128 0x16
 3181 044a 7800     		.ascii	"x\000"
 3182 044c 01       		.byte	0x1
 3183 044d FD       		.byte	0xfd
 3184 044e 25000000 		.4byte	0x25
 3185 0452 87040000 		.4byte	.LLST44
 3186 0456 16       		.uleb128 0x16
 3187 0457 7900     		.ascii	"y\000"
 3188 0459 01       		.byte	0x1
ARM GAS  C:\Users\KOZLOV~1\AppData\Local\Temp\cctyslCN.s 			page 71


 3189 045a FD       		.byte	0xfd
 3190 045b 25000000 		.4byte	0x25
 3191 045f 9A040000 		.4byte	.LLST45
 3192 0463 17       		.uleb128 0x17
 3193 0464 C4010000 		.4byte	.LASF22
 3194 0468 01       		.byte	0x1
 3195 0469 FD       		.byte	0xfd
 3196 046a 25000000 		.4byte	0x25
 3197 046e AD040000 		.4byte	.LLST46
 3198 0472 17       		.uleb128 0x17
 3199 0473 D2010000 		.4byte	.LASF23
 3200 0477 01       		.byte	0x1
 3201 0478 FD       		.byte	0xfd
 3202 0479 25000000 		.4byte	0x25
 3203 047d C0040000 		.4byte	.LLST47
 3204 0481 0A       		.uleb128 0xa
 3205 0482 47000000 		.4byte	.LASF32
 3206 0486 01       		.byte	0x1
 3207 0487 FD       		.byte	0xfd
 3208 0488 25000000 		.4byte	0x25
 3209 048c 02       		.byte	0x2
 3210 048d 91       		.byte	0x91
 3211 048e 00       		.sleb128 0
 3212 048f 18       		.uleb128 0x18
 3213 0490 6900     		.ascii	"i\000"
 3214 0492 01       		.byte	0x1
 3215 0493 FF       		.byte	0xff
 3216 0494 3E000000 		.4byte	0x3e
 3217 0498 D3040000 		.4byte	.LLST48
 3218 049c 0F       		.uleb128 0xf
 3219 049d 6C656E00 		.ascii	"len\000"
 3220 04a1 01       		.byte	0x1
 3221 04a2 0001     		.2byte	0x100
 3222 04a4 3E000000 		.4byte	0x3e
 3223 04a8 F2040000 		.4byte	.LLST49
 3224 04ac 00       		.byte	0
 3225 04ad 15       		.uleb128 0x15
 3226 04ae 01       		.byte	0x1
 3227 04af A7010000 		.4byte	.LASF33
 3228 04b3 01       		.byte	0x1
 3229 04b4 D8       		.byte	0xd8
 3230 04b5 01       		.byte	0x1
 3231 04b6 8C030000 		.4byte	.LFB5
 3232 04ba 0E040000 		.4byte	.LFE5
 3233 04be 05050000 		.4byte	.LLST50
 3234 04c2 1A050000 		.4byte	0x51a
 3235 04c6 16       		.uleb128 0x16
 3236 04c7 7800     		.ascii	"x\000"
 3237 04c9 01       		.byte	0x1
 3238 04ca D8       		.byte	0xd8
 3239 04cb 25000000 		.4byte	0x25
 3240 04cf 25050000 		.4byte	.LLST51
 3241 04d3 16       		.uleb128 0x16
 3242 04d4 7900     		.ascii	"y\000"
 3243 04d6 01       		.byte	0x1
 3244 04d7 D8       		.byte	0xd8
 3245 04d8 25000000 		.4byte	0x25
ARM GAS  C:\Users\KOZLOV~1\AppData\Local\Temp\cctyslCN.s 			page 72


 3246 04dc 38050000 		.4byte	.LLST52
 3247 04e0 16       		.uleb128 0x16
 3248 04e1 6C656E00 		.ascii	"len\000"
 3249 04e5 01       		.byte	0x1
 3250 04e6 D8       		.byte	0xd8
 3251 04e7 25000000 		.4byte	0x25
 3252 04eb 4B050000 		.4byte	.LLST53
 3253 04ef 17       		.uleb128 0x17
 3254 04f0 47000000 		.4byte	.LASF32
 3255 04f4 01       		.byte	0x1
 3256 04f5 D8       		.byte	0xd8
 3257 04f6 25000000 		.4byte	0x25
 3258 04fa 5E050000 		.4byte	.LLST54
 3259 04fe 0A       		.uleb128 0xa
 3260 04ff 41010000 		.4byte	.LASF34
 3261 0503 01       		.byte	0x1
 3262 0504 D8       		.byte	0xd8
 3263 0505 70000000 		.4byte	0x70
 3264 0509 02       		.byte	0x2
 3265 050a 91       		.byte	0x91
 3266 050b 00       		.sleb128 0
 3267 050c 18       		.uleb128 0x18
 3268 050d 6900     		.ascii	"i\000"
 3269 050f 01       		.byte	0x1
 3270 0510 DA       		.byte	0xda
 3271 0511 3E000000 		.4byte	0x3e
 3272 0515 71050000 		.4byte	.LLST55
 3273 0519 00       		.byte	0
 3274 051a 15       		.uleb128 0x15
 3275 051b 01       		.byte	0x1
 3276 051c BC000000 		.4byte	.LASF35
 3277 0520 01       		.byte	0x1
 3278 0521 C4       		.byte	0xc4
 3279 0522 01       		.byte	0x1
 3280 0523 0E040000 		.4byte	.LFB4
 3281 0527 32040000 		.4byte	.LFE4
 3282 052b A7050000 		.4byte	.LLST56
 3283 052f 43050000 		.4byte	0x543
 3284 0533 17       		.uleb128 0x17
 3285 0534 EC000000 		.4byte	.LASF36
 3286 0538 01       		.byte	0x1
 3287 0539 C4       		.byte	0xc4
 3288 053a 25000000 		.4byte	0x25
 3289 053e C7050000 		.4byte	.LLST57
 3290 0542 00       		.byte	0
 3291 0543 15       		.uleb128 0x15
 3292 0544 01       		.byte	0x1
 3293 0545 F1000000 		.4byte	.LASF37
 3294 0549 01       		.byte	0x1
 3295 054a 84       		.byte	0x84
 3296 054b 01       		.byte	0x1
 3297 054c 32040000 		.4byte	.LFB1
 3298 0550 78040000 		.4byte	.LFE1
 3299 0554 DA050000 		.4byte	.LLST58
 3300 0558 6A050000 		.4byte	0x56a
 3301 055c 18       		.uleb128 0x18
 3302 055d 6900     		.ascii	"i\000"
ARM GAS  C:\Users\KOZLOV~1\AppData\Local\Temp\cctyslCN.s 			page 73


 3303 055f 01       		.byte	0x1
 3304 0560 86       		.byte	0x86
 3305 0561 3E000000 		.4byte	0x3e
 3306 0565 FA050000 		.4byte	.LLST59
 3307 0569 00       		.byte	0
 3308 056a 19       		.uleb128 0x19
 3309 056b 01       		.byte	0x1
 3310 056c B0000000 		.4byte	.LASF38
 3311 0570 01       		.byte	0x1
 3312 0571 A1       		.byte	0xa1
 3313 0572 01       		.byte	0x1
 3314 0573 78040000 		.4byte	.LFB2
 3315 0577 94040000 		.4byte	.LFE2
 3316 057b 0E060000 		.4byte	.LLST60
 3317 057f 19       		.uleb128 0x19
 3318 0580 01       		.byte	0x1
 3319 0581 9E000000 		.4byte	.LASF39
 3320 0585 01       		.byte	0x1
 3321 0586 45       		.byte	0x45
 3322 0587 01       		.byte	0x1
 3323 0588 94040000 		.4byte	.LFB0
 3324 058c 84050000 		.4byte	.LFE0
 3325 0590 2E060000 		.4byte	.LLST61
 3326 0594 1A       		.uleb128 0x1a
 3327 0595 D7010000 		.4byte	.LASF40
 3328 0599 01       		.byte	0x1
 3329 059a 30       		.byte	0x30
 3330 059b 25000000 		.4byte	0x25
 3331 059f 05       		.byte	0x5
 3332 05a0 03       		.byte	0x3
 3333 05a1 02000000 		.4byte	lcd_x
 3334 05a5 1A       		.uleb128 0x1a
 3335 05a6 E6000000 		.4byte	.LASF41
 3336 05aa 01       		.byte	0x1
 3337 05ab 31       		.byte	0x31
 3338 05ac 25000000 		.4byte	0x25
 3339 05b0 05       		.byte	0x5
 3340 05b1 03       		.byte	0x3
 3341 05b2 03000000 		.4byte	lcd_y
 3342 05b6 1A       		.uleb128 0x1a
 3343 05b7 1D000000 		.4byte	.LASF42
 3344 05bb 01       		.byte	0x1
 3345 05bc 32       		.byte	0x32
 3346 05bd 25000000 		.4byte	0x25
 3347 05c1 05       		.byte	0x5
 3348 05c2 03       		.byte	0x3
 3349 05c3 00000000 		.4byte	bkgColor
 3350 05c7 1A       		.uleb128 0x1a
 3351 05c8 94000000 		.4byte	.LASF43
 3352 05cc 01       		.byte	0x1
 3353 05cd 33       		.byte	0x33
 3354 05ce 25000000 		.4byte	0x25
 3355 05d2 05       		.byte	0x5
 3356 05d3 03       		.byte	0x3
 3357 05d4 01000000 		.4byte	textColor
 3358 05d8 1A       		.uleb128 0x1a
 3359 05d9 4D000000 		.4byte	.LASF44
ARM GAS  C:\Users\KOZLOV~1\AppData\Local\Temp\cctyslCN.s 			page 74


 3360 05dd 01       		.byte	0x1
 3361 05de 34       		.byte	0x34
 3362 05df 25000000 		.4byte	0x25
 3363 05e3 05       		.byte	0x5
 3364 05e4 03       		.byte	0x3
 3365 05e5 04000000 		.4byte	setcolmark
 3366 05e9 1B       		.uleb128 0x1b
 3367 05ea 25000000 		.4byte	0x25
 3368 05ee FA050000 		.4byte	0x5fa
 3369 05f2 1C       		.uleb128 0x1c
 3370 05f3 81000000 		.4byte	0x81
 3371 05f7 5B05     		.2byte	0x55b
 3372 05f9 00       		.byte	0
 3373 05fa 1D       		.uleb128 0x1d
 3374 05fb 2D010000 		.4byte	.LASF50
 3375 05ff 03       		.byte	0x3
 3376 0600 01       		.byte	0x1
 3377 0601 0C060000 		.4byte	0x60c
 3378 0605 01       		.byte	0x1
 3379 0606 05       		.byte	0x5
 3380 0607 03       		.byte	0x3
 3381 0608 00000000 		.4byte	charMap
 3382 060c 14       		.uleb128 0x14
 3383 060d E9050000 		.4byte	0x5e9
 3384 0611 00       		.byte	0
 3385              		.section	.debug_abbrev,"",%progbits
 3386              	.Ldebug_abbrev0:
 3387 0000 01       		.uleb128 0x1
 3388 0001 11       		.uleb128 0x11
 3389 0002 01       		.byte	0x1
 3390 0003 25       		.uleb128 0x25
 3391 0004 0E       		.uleb128 0xe
 3392 0005 13       		.uleb128 0x13
 3393 0006 0B       		.uleb128 0xb
 3394 0007 03       		.uleb128 0x3
 3395 0008 0E       		.uleb128 0xe
 3396 0009 1B       		.uleb128 0x1b
 3397 000a 0E       		.uleb128 0xe
 3398 000b 11       		.uleb128 0x11
 3399 000c 01       		.uleb128 0x1
 3400 000d 12       		.uleb128 0x12
 3401 000e 01       		.uleb128 0x1
 3402 000f 10       		.uleb128 0x10
 3403 0010 06       		.uleb128 0x6
 3404 0011 00       		.byte	0
 3405 0012 00       		.byte	0
 3406 0013 02       		.uleb128 0x2
 3407 0014 16       		.uleb128 0x16
 3408 0015 00       		.byte	0
 3409 0016 03       		.uleb128 0x3
 3410 0017 08       		.uleb128 0x8
 3411 0018 3A       		.uleb128 0x3a
 3412 0019 0B       		.uleb128 0xb
 3413 001a 3B       		.uleb128 0x3b
 3414 001b 0B       		.uleb128 0xb
 3415 001c 49       		.uleb128 0x49
 3416 001d 13       		.uleb128 0x13
ARM GAS  C:\Users\KOZLOV~1\AppData\Local\Temp\cctyslCN.s 			page 75


 3417 001e 00       		.byte	0
 3418 001f 00       		.byte	0
 3419 0020 03       		.uleb128 0x3
 3420 0021 24       		.uleb128 0x24
 3421 0022 00       		.byte	0
 3422 0023 0B       		.uleb128 0xb
 3423 0024 0B       		.uleb128 0xb
 3424 0025 3E       		.uleb128 0x3e
 3425 0026 0B       		.uleb128 0xb
 3426 0027 03       		.uleb128 0x3
 3427 0028 0E       		.uleb128 0xe
 3428 0029 00       		.byte	0
 3429 002a 00       		.byte	0
 3430 002b 04       		.uleb128 0x4
 3431 002c 16       		.uleb128 0x16
 3432 002d 00       		.byte	0
 3433 002e 03       		.uleb128 0x3
 3434 002f 0E       		.uleb128 0xe
 3435 0030 3A       		.uleb128 0x3a
 3436 0031 0B       		.uleb128 0xb
 3437 0032 3B       		.uleb128 0x3b
 3438 0033 0B       		.uleb128 0xb
 3439 0034 49       		.uleb128 0x49
 3440 0035 13       		.uleb128 0x13
 3441 0036 00       		.byte	0
 3442 0037 00       		.byte	0
 3443 0038 05       		.uleb128 0x5
 3444 0039 24       		.uleb128 0x24
 3445 003a 00       		.byte	0
 3446 003b 0B       		.uleb128 0xb
 3447 003c 0B       		.uleb128 0xb
 3448 003d 3E       		.uleb128 0x3e
 3449 003e 0B       		.uleb128 0xb
 3450 003f 03       		.uleb128 0x3
 3451 0040 08       		.uleb128 0x8
 3452 0041 00       		.byte	0
 3453 0042 00       		.byte	0
 3454 0043 06       		.uleb128 0x6
 3455 0044 0F       		.uleb128 0xf
 3456 0045 00       		.byte	0
 3457 0046 0B       		.uleb128 0xb
 3458 0047 0B       		.uleb128 0xb
 3459 0048 49       		.uleb128 0x49
 3460 0049 13       		.uleb128 0x13
 3461 004a 00       		.byte	0
 3462 004b 00       		.byte	0
 3463 004c 07       		.uleb128 0x7
 3464 004d 2E       		.uleb128 0x2e
 3465 004e 00       		.byte	0
 3466 004f 03       		.uleb128 0x3
 3467 0050 0E       		.uleb128 0xe
 3468 0051 3A       		.uleb128 0x3a
 3469 0052 0B       		.uleb128 0xb
 3470 0053 3B       		.uleb128 0x3b
 3471 0054 05       		.uleb128 0x5
 3472 0055 27       		.uleb128 0x27
 3473 0056 0C       		.uleb128 0xc
ARM GAS  C:\Users\KOZLOV~1\AppData\Local\Temp\cctyslCN.s 			page 76


 3474 0057 20       		.uleb128 0x20
 3475 0058 0B       		.uleb128 0xb
 3476 0059 00       		.byte	0
 3477 005a 00       		.byte	0
 3478 005b 08       		.uleb128 0x8
 3479 005c 2E       		.uleb128 0x2e
 3480 005d 01       		.byte	0x1
 3481 005e 3F       		.uleb128 0x3f
 3482 005f 0C       		.uleb128 0xc
 3483 0060 03       		.uleb128 0x3
 3484 0061 0E       		.uleb128 0xe
 3485 0062 3A       		.uleb128 0x3a
 3486 0063 0B       		.uleb128 0xb
 3487 0064 3B       		.uleb128 0x3b
 3488 0065 0B       		.uleb128 0xb
 3489 0066 27       		.uleb128 0x27
 3490 0067 0C       		.uleb128 0xc
 3491 0068 11       		.uleb128 0x11
 3492 0069 01       		.uleb128 0x1
 3493 006a 12       		.uleb128 0x12
 3494 006b 01       		.uleb128 0x1
 3495 006c 40       		.uleb128 0x40
 3496 006d 0A       		.uleb128 0xa
 3497 006e 01       		.uleb128 0x1
 3498 006f 13       		.uleb128 0x13
 3499 0070 00       		.byte	0
 3500 0071 00       		.byte	0
 3501 0072 09       		.uleb128 0x9
 3502 0073 05       		.uleb128 0x5
 3503 0074 00       		.byte	0
 3504 0075 03       		.uleb128 0x3
 3505 0076 08       		.uleb128 0x8
 3506 0077 3A       		.uleb128 0x3a
 3507 0078 0B       		.uleb128 0xb
 3508 0079 3B       		.uleb128 0x3b
 3509 007a 0B       		.uleb128 0xb
 3510 007b 49       		.uleb128 0x49
 3511 007c 13       		.uleb128 0x13
 3512 007d 02       		.uleb128 0x2
 3513 007e 0A       		.uleb128 0xa
 3514 007f 00       		.byte	0
 3515 0080 00       		.byte	0
 3516 0081 0A       		.uleb128 0xa
 3517 0082 05       		.uleb128 0x5
 3518 0083 00       		.byte	0
 3519 0084 03       		.uleb128 0x3
 3520 0085 0E       		.uleb128 0xe
 3521 0086 3A       		.uleb128 0x3a
 3522 0087 0B       		.uleb128 0xb
 3523 0088 3B       		.uleb128 0x3b
 3524 0089 0B       		.uleb128 0xb
 3525 008a 49       		.uleb128 0x49
 3526 008b 13       		.uleb128 0x13
 3527 008c 02       		.uleb128 0x2
 3528 008d 0A       		.uleb128 0xa
 3529 008e 00       		.byte	0
 3530 008f 00       		.byte	0
ARM GAS  C:\Users\KOZLOV~1\AppData\Local\Temp\cctyslCN.s 			page 77


 3531 0090 0B       		.uleb128 0xb
 3532 0091 2E       		.uleb128 0x2e
 3533 0092 01       		.byte	0x1
 3534 0093 3F       		.uleb128 0x3f
 3535 0094 0C       		.uleb128 0xc
 3536 0095 03       		.uleb128 0x3
 3537 0096 0E       		.uleb128 0xe
 3538 0097 3A       		.uleb128 0x3a
 3539 0098 0B       		.uleb128 0xb
 3540 0099 3B       		.uleb128 0x3b
 3541 009a 05       		.uleb128 0x5
 3542 009b 27       		.uleb128 0x27
 3543 009c 0C       		.uleb128 0xc
 3544 009d 11       		.uleb128 0x11
 3545 009e 01       		.uleb128 0x1
 3546 009f 12       		.uleb128 0x12
 3547 00a0 01       		.uleb128 0x1
 3548 00a1 40       		.uleb128 0x40
 3549 00a2 06       		.uleb128 0x6
 3550 00a3 01       		.uleb128 0x1
 3551 00a4 13       		.uleb128 0x13
 3552 00a5 00       		.byte	0
 3553 00a6 00       		.byte	0
 3554 00a7 0C       		.uleb128 0xc
 3555 00a8 05       		.uleb128 0x5
 3556 00a9 00       		.byte	0
 3557 00aa 03       		.uleb128 0x3
 3558 00ab 0E       		.uleb128 0xe
 3559 00ac 3A       		.uleb128 0x3a
 3560 00ad 0B       		.uleb128 0xb
 3561 00ae 3B       		.uleb128 0x3b
 3562 00af 05       		.uleb128 0x5
 3563 00b0 49       		.uleb128 0x49
 3564 00b1 13       		.uleb128 0x13
 3565 00b2 02       		.uleb128 0x2
 3566 00b3 06       		.uleb128 0x6
 3567 00b4 00       		.byte	0
 3568 00b5 00       		.byte	0
 3569 00b6 0D       		.uleb128 0xd
 3570 00b7 0B       		.uleb128 0xb
 3571 00b8 01       		.byte	0x1
 3572 00b9 11       		.uleb128 0x11
 3573 00ba 01       		.uleb128 0x1
 3574 00bb 12       		.uleb128 0x12
 3575 00bc 01       		.uleb128 0x1
 3576 00bd 00       		.byte	0
 3577 00be 00       		.byte	0
 3578 00bf 0E       		.uleb128 0xe
 3579 00c0 34       		.uleb128 0x34
 3580 00c1 00       		.byte	0
 3581 00c2 03       		.uleb128 0x3
 3582 00c3 0E       		.uleb128 0xe
 3583 00c4 3A       		.uleb128 0x3a
 3584 00c5 0B       		.uleb128 0xb
 3585 00c6 3B       		.uleb128 0x3b
 3586 00c7 05       		.uleb128 0x5
 3587 00c8 49       		.uleb128 0x49
ARM GAS  C:\Users\KOZLOV~1\AppData\Local\Temp\cctyslCN.s 			page 78


 3588 00c9 13       		.uleb128 0x13
 3589 00ca 02       		.uleb128 0x2
 3590 00cb 06       		.uleb128 0x6
 3591 00cc 00       		.byte	0
 3592 00cd 00       		.byte	0
 3593 00ce 0F       		.uleb128 0xf
 3594 00cf 34       		.uleb128 0x34
 3595 00d0 00       		.byte	0
 3596 00d1 03       		.uleb128 0x3
 3597 00d2 08       		.uleb128 0x8
 3598 00d3 3A       		.uleb128 0x3a
 3599 00d4 0B       		.uleb128 0xb
 3600 00d5 3B       		.uleb128 0x3b
 3601 00d6 05       		.uleb128 0x5
 3602 00d7 49       		.uleb128 0x49
 3603 00d8 13       		.uleb128 0x13
 3604 00d9 02       		.uleb128 0x2
 3605 00da 06       		.uleb128 0x6
 3606 00db 00       		.byte	0
 3607 00dc 00       		.byte	0
 3608 00dd 10       		.uleb128 0x10
 3609 00de 1D       		.uleb128 0x1d
 3610 00df 00       		.byte	0
 3611 00e0 31       		.uleb128 0x31
 3612 00e1 13       		.uleb128 0x13
 3613 00e2 11       		.uleb128 0x11
 3614 00e3 01       		.uleb128 0x1
 3615 00e4 12       		.uleb128 0x12
 3616 00e5 01       		.uleb128 0x1
 3617 00e6 58       		.uleb128 0x58
 3618 00e7 0B       		.uleb128 0xb
 3619 00e8 59       		.uleb128 0x59
 3620 00e9 05       		.uleb128 0x5
 3621 00ea 00       		.byte	0
 3622 00eb 00       		.byte	0
 3623 00ec 11       		.uleb128 0x11
 3624 00ed 05       		.uleb128 0x5
 3625 00ee 00       		.byte	0
 3626 00ef 03       		.uleb128 0x3
 3627 00f0 08       		.uleb128 0x8
 3628 00f1 3A       		.uleb128 0x3a
 3629 00f2 0B       		.uleb128 0xb
 3630 00f3 3B       		.uleb128 0x3b
 3631 00f4 05       		.uleb128 0x5
 3632 00f5 49       		.uleb128 0x49
 3633 00f6 13       		.uleb128 0x13
 3634 00f7 02       		.uleb128 0x2
 3635 00f8 06       		.uleb128 0x6
 3636 00f9 00       		.byte	0
 3637 00fa 00       		.byte	0
 3638 00fb 12       		.uleb128 0x12
 3639 00fc 2E       		.uleb128 0x2e
 3640 00fd 01       		.byte	0x1
 3641 00fe 03       		.uleb128 0x3
 3642 00ff 0E       		.uleb128 0xe
 3643 0100 3A       		.uleb128 0x3a
 3644 0101 0B       		.uleb128 0xb
ARM GAS  C:\Users\KOZLOV~1\AppData\Local\Temp\cctyslCN.s 			page 79


 3645 0102 3B       		.uleb128 0x3b
 3646 0103 05       		.uleb128 0x5
 3647 0104 27       		.uleb128 0x27
 3648 0105 0C       		.uleb128 0xc
 3649 0106 11       		.uleb128 0x11
 3650 0107 01       		.uleb128 0x1
 3651 0108 12       		.uleb128 0x12
 3652 0109 01       		.uleb128 0x1
 3653 010a 40       		.uleb128 0x40
 3654 010b 06       		.uleb128 0x6
 3655 010c 01       		.uleb128 0x1
 3656 010d 13       		.uleb128 0x13
 3657 010e 00       		.byte	0
 3658 010f 00       		.byte	0
 3659 0110 13       		.uleb128 0x13
 3660 0111 05       		.uleb128 0x5
 3661 0112 00       		.byte	0
 3662 0113 03       		.uleb128 0x3
 3663 0114 0E       		.uleb128 0xe
 3664 0115 3A       		.uleb128 0x3a
 3665 0116 0B       		.uleb128 0xb
 3666 0117 3B       		.uleb128 0x3b
 3667 0118 05       		.uleb128 0x5
 3668 0119 49       		.uleb128 0x49
 3669 011a 13       		.uleb128 0x13
 3670 011b 02       		.uleb128 0x2
 3671 011c 0A       		.uleb128 0xa
 3672 011d 00       		.byte	0
 3673 011e 00       		.byte	0
 3674 011f 14       		.uleb128 0x14
 3675 0120 26       		.uleb128 0x26
 3676 0121 00       		.byte	0
 3677 0122 49       		.uleb128 0x49
 3678 0123 13       		.uleb128 0x13
 3679 0124 00       		.byte	0
 3680 0125 00       		.byte	0
 3681 0126 15       		.uleb128 0x15
 3682 0127 2E       		.uleb128 0x2e
 3683 0128 01       		.byte	0x1
 3684 0129 3F       		.uleb128 0x3f
 3685 012a 0C       		.uleb128 0xc
 3686 012b 03       		.uleb128 0x3
 3687 012c 0E       		.uleb128 0xe
 3688 012d 3A       		.uleb128 0x3a
 3689 012e 0B       		.uleb128 0xb
 3690 012f 3B       		.uleb128 0x3b
 3691 0130 0B       		.uleb128 0xb
 3692 0131 27       		.uleb128 0x27
 3693 0132 0C       		.uleb128 0xc
 3694 0133 11       		.uleb128 0x11
 3695 0134 01       		.uleb128 0x1
 3696 0135 12       		.uleb128 0x12
 3697 0136 01       		.uleb128 0x1
 3698 0137 40       		.uleb128 0x40
 3699 0138 06       		.uleb128 0x6
 3700 0139 01       		.uleb128 0x1
 3701 013a 13       		.uleb128 0x13
ARM GAS  C:\Users\KOZLOV~1\AppData\Local\Temp\cctyslCN.s 			page 80


 3702 013b 00       		.byte	0
 3703 013c 00       		.byte	0
 3704 013d 16       		.uleb128 0x16
 3705 013e 05       		.uleb128 0x5
 3706 013f 00       		.byte	0
 3707 0140 03       		.uleb128 0x3
 3708 0141 08       		.uleb128 0x8
 3709 0142 3A       		.uleb128 0x3a
 3710 0143 0B       		.uleb128 0xb
 3711 0144 3B       		.uleb128 0x3b
 3712 0145 0B       		.uleb128 0xb
 3713 0146 49       		.uleb128 0x49
 3714 0147 13       		.uleb128 0x13
 3715 0148 02       		.uleb128 0x2
 3716 0149 06       		.uleb128 0x6
 3717 014a 00       		.byte	0
 3718 014b 00       		.byte	0
 3719 014c 17       		.uleb128 0x17
 3720 014d 05       		.uleb128 0x5
 3721 014e 00       		.byte	0
 3722 014f 03       		.uleb128 0x3
 3723 0150 0E       		.uleb128 0xe
 3724 0151 3A       		.uleb128 0x3a
 3725 0152 0B       		.uleb128 0xb
 3726 0153 3B       		.uleb128 0x3b
 3727 0154 0B       		.uleb128 0xb
 3728 0155 49       		.uleb128 0x49
 3729 0156 13       		.uleb128 0x13
 3730 0157 02       		.uleb128 0x2
 3731 0158 06       		.uleb128 0x6
 3732 0159 00       		.byte	0
 3733 015a 00       		.byte	0
 3734 015b 18       		.uleb128 0x18
 3735 015c 34       		.uleb128 0x34
 3736 015d 00       		.byte	0
 3737 015e 03       		.uleb128 0x3
 3738 015f 08       		.uleb128 0x8
 3739 0160 3A       		.uleb128 0x3a
 3740 0161 0B       		.uleb128 0xb
 3741 0162 3B       		.uleb128 0x3b
 3742 0163 0B       		.uleb128 0xb
 3743 0164 49       		.uleb128 0x49
 3744 0165 13       		.uleb128 0x13
 3745 0166 02       		.uleb128 0x2
 3746 0167 06       		.uleb128 0x6
 3747 0168 00       		.byte	0
 3748 0169 00       		.byte	0
 3749 016a 19       		.uleb128 0x19
 3750 016b 2E       		.uleb128 0x2e
 3751 016c 00       		.byte	0
 3752 016d 3F       		.uleb128 0x3f
 3753 016e 0C       		.uleb128 0xc
 3754 016f 03       		.uleb128 0x3
 3755 0170 0E       		.uleb128 0xe
 3756 0171 3A       		.uleb128 0x3a
 3757 0172 0B       		.uleb128 0xb
 3758 0173 3B       		.uleb128 0x3b
ARM GAS  C:\Users\KOZLOV~1\AppData\Local\Temp\cctyslCN.s 			page 81


 3759 0174 0B       		.uleb128 0xb
 3760 0175 27       		.uleb128 0x27
 3761 0176 0C       		.uleb128 0xc
 3762 0177 11       		.uleb128 0x11
 3763 0178 01       		.uleb128 0x1
 3764 0179 12       		.uleb128 0x12
 3765 017a 01       		.uleb128 0x1
 3766 017b 40       		.uleb128 0x40
 3767 017c 06       		.uleb128 0x6
 3768 017d 00       		.byte	0
 3769 017e 00       		.byte	0
 3770 017f 1A       		.uleb128 0x1a
 3771 0180 34       		.uleb128 0x34
 3772 0181 00       		.byte	0
 3773 0182 03       		.uleb128 0x3
 3774 0183 0E       		.uleb128 0xe
 3775 0184 3A       		.uleb128 0x3a
 3776 0185 0B       		.uleb128 0xb
 3777 0186 3B       		.uleb128 0x3b
 3778 0187 0B       		.uleb128 0xb
 3779 0188 49       		.uleb128 0x49
 3780 0189 13       		.uleb128 0x13
 3781 018a 02       		.uleb128 0x2
 3782 018b 0A       		.uleb128 0xa
 3783 018c 00       		.byte	0
 3784 018d 00       		.byte	0
 3785 018e 1B       		.uleb128 0x1b
 3786 018f 01       		.uleb128 0x1
 3787 0190 01       		.byte	0x1
 3788 0191 49       		.uleb128 0x49
 3789 0192 13       		.uleb128 0x13
 3790 0193 01       		.uleb128 0x1
 3791 0194 13       		.uleb128 0x13
 3792 0195 00       		.byte	0
 3793 0196 00       		.byte	0
 3794 0197 1C       		.uleb128 0x1c
 3795 0198 21       		.uleb128 0x21
 3796 0199 00       		.byte	0
 3797 019a 49       		.uleb128 0x49
 3798 019b 13       		.uleb128 0x13
 3799 019c 2F       		.uleb128 0x2f
 3800 019d 05       		.uleb128 0x5
 3801 019e 00       		.byte	0
 3802 019f 00       		.byte	0
 3803 01a0 1D       		.uleb128 0x1d
 3804 01a1 34       		.uleb128 0x34
 3805 01a2 00       		.byte	0
 3806 01a3 03       		.uleb128 0x3
 3807 01a4 0E       		.uleb128 0xe
 3808 01a5 3A       		.uleb128 0x3a
 3809 01a6 0B       		.uleb128 0xb
 3810 01a7 3B       		.uleb128 0x3b
 3811 01a8 0B       		.uleb128 0xb
 3812 01a9 49       		.uleb128 0x49
 3813 01aa 13       		.uleb128 0x13
 3814 01ab 3F       		.uleb128 0x3f
 3815 01ac 0C       		.uleb128 0xc
ARM GAS  C:\Users\KOZLOV~1\AppData\Local\Temp\cctyslCN.s 			page 82


 3816 01ad 02       		.uleb128 0x2
 3817 01ae 0A       		.uleb128 0xa
 3818 01af 00       		.byte	0
 3819 01b0 00       		.byte	0
 3820 01b1 00       		.byte	0
 3821              		.section	.debug_loc,"",%progbits
 3822              	.Ldebug_loc0:
 3823              	.LLST0:
 3824 0000 0C000000 		.4byte	.LFB16-.Ltext0
 3825 0004 0E000000 		.4byte	.LCFI0-.Ltext0
 3826 0008 0200     		.2byte	0x2
 3827 000a 7D       		.byte	0x7d
 3828 000b 00       		.sleb128 0
 3829 000c 0E000000 		.4byte	.LCFI0-.Ltext0
 3830 0010 1C000000 		.4byte	.LFE16-.Ltext0
 3831 0014 0200     		.2byte	0x2
 3832 0016 7D       		.byte	0x7d
 3833 0017 04       		.sleb128 4
 3834 0018 00000000 		.4byte	0
 3835 001c 00000000 		.4byte	0
 3836              	.LLST1:
 3837 0020 0E000000 		.4byte	.LVL1-.Ltext0
 3838 0024 14000000 		.4byte	.LVL2-.Ltext0
 3839 0028 0100     		.2byte	0x1
 3840 002a 50       		.byte	0x50
 3841 002b 00000000 		.4byte	0
 3842 002f 00000000 		.4byte	0
 3843              	.LLST2:
 3844 0033 1C000000 		.4byte	.LFB17-.Ltext0
 3845 0037 1E000000 		.4byte	.LCFI1-.Ltext0
 3846 003b 0200     		.2byte	0x2
 3847 003d 7D       		.byte	0x7d
 3848 003e 00       		.sleb128 0
 3849 003f 1E000000 		.4byte	.LCFI1-.Ltext0
 3850 0043 2C000000 		.4byte	.LFE17-.Ltext0
 3851 0047 0200     		.2byte	0x2
 3852 0049 7D       		.byte	0x7d
 3853 004a 04       		.sleb128 4
 3854 004b 00000000 		.4byte	0
 3855 004f 00000000 		.4byte	0
 3856              	.LLST3:
 3857 0053 1E000000 		.4byte	.LVL3-.Ltext0
 3858 0057 24000000 		.4byte	.LVL4-.Ltext0
 3859 005b 0100     		.2byte	0x1
 3860 005d 50       		.byte	0x50
 3861 005e 00000000 		.4byte	0
 3862 0062 00000000 		.4byte	0
 3863              	.LLST4:
 3864 0066 2C000000 		.4byte	.LFB13-.Ltext0
 3865 006a 2E000000 		.4byte	.LCFI2-.Ltext0
 3866 006e 0200     		.2byte	0x2
 3867 0070 7D       		.byte	0x7d
 3868 0071 00       		.sleb128 0
 3869 0072 2E000000 		.4byte	.LCFI2-.Ltext0
 3870 0076 DC000000 		.4byte	.LFE13-.Ltext0
 3871 007a 0200     		.2byte	0x2
 3872 007c 7D       		.byte	0x7d
ARM GAS  C:\Users\KOZLOV~1\AppData\Local\Temp\cctyslCN.s 			page 83


 3873 007d 18       		.sleb128 24
 3874 007e 00000000 		.4byte	0
 3875 0082 00000000 		.4byte	0
 3876              	.LLST5:
 3877 0086 2E000000 		.4byte	.LVL5-.Ltext0
 3878 008a 34000000 		.4byte	.LVL6-.Ltext0
 3879 008e 0100     		.2byte	0x1
 3880 0090 50       		.byte	0x50
 3881 0091 3C000000 		.4byte	.LVL7-.Ltext0
 3882 0095 3E000000 		.4byte	.LVL8-.Ltext0
 3883 0099 0300     		.2byte	0x3
 3884 009b 74       		.byte	0x74
 3885 009c 62       		.sleb128 -30
 3886 009d 9F       		.byte	0x9f
 3887 009e 3E000000 		.4byte	.LVL8-.Ltext0
 3888 00a2 40000000 		.4byte	.LVL9-.Ltext0
 3889 00a6 0300     		.2byte	0x3
 3890 00a8 74       		.byte	0x74
 3891 00a9 00       		.sleb128 0
 3892 00aa 9F       		.byte	0x9f
 3893 00ab 00000000 		.4byte	0
 3894 00af 00000000 		.4byte	0
 3895              	.LLST6:
 3896 00b3 4C000000 		.4byte	.LVL10-.Ltext0
 3897 00b7 4F000000 		.4byte	.LVL11-1-.Ltext0
 3898 00bb 0100     		.2byte	0x1
 3899 00bd 51       		.byte	0x51
 3900 00be 4F000000 		.4byte	.LVL11-1-.Ltext0
 3901 00c2 90000000 		.4byte	.LVL13-.Ltext0
 3902 00c6 0200     		.2byte	0x2
 3903 00c8 91       		.byte	0x91
 3904 00c9 00       		.sleb128 0
 3905 00ca 00000000 		.4byte	0
 3906 00ce 00000000 		.4byte	0
 3907              	.LLST7:
 3908 00d2 8E000000 		.4byte	.LVL12-.Ltext0
 3909 00d6 90000000 		.4byte	.LVL13-.Ltext0
 3910 00da 0200     		.2byte	0x2
 3911 00dc 30       		.byte	0x30
 3912 00dd 9F       		.byte	0x9f
 3913 00de 00000000 		.4byte	0
 3914 00e2 00000000 		.4byte	0
 3915              	.LLST8:
 3916 00e6 98000000 		.4byte	.LVL14-.Ltext0
 3917 00ea 9C000000 		.4byte	.LVL15-.Ltext0
 3918 00ee 0200     		.2byte	0x2
 3919 00f0 30       		.byte	0x30
 3920 00f1 9F       		.byte	0x9f
 3921 00f2 00000000 		.4byte	0
 3922 00f6 00000000 		.4byte	0
 3923              	.LLST9:
 3924 00fa 98000000 		.4byte	.LVL14-.Ltext0
 3925 00fe 9C000000 		.4byte	.LVL15-.Ltext0
 3926 0102 0100     		.2byte	0x1
 3927 0104 54       		.byte	0x54
 3928 0105 B4000000 		.4byte	.LVL16-.Ltext0
 3929 0109 BE000000 		.4byte	.LVL17-.Ltext0
ARM GAS  C:\Users\KOZLOV~1\AppData\Local\Temp\cctyslCN.s 			page 84


 3930 010d 0100     		.2byte	0x1
 3931 010f 54       		.byte	0x54
 3932 0110 00000000 		.4byte	0
 3933 0114 00000000 		.4byte	0
 3934              	.LLST10:
 3935 0118 DC000000 		.4byte	.LFB14-.Ltext0
 3936 011c DE000000 		.4byte	.LCFI3-.Ltext0
 3937 0120 0200     		.2byte	0x2
 3938 0122 7D       		.byte	0x7d
 3939 0123 00       		.sleb128 0
 3940 0124 DE000000 		.4byte	.LCFI3-.Ltext0
 3941 0128 30010000 		.4byte	.LFE14-.Ltext0
 3942 012c 0200     		.2byte	0x2
 3943 012e 7D       		.byte	0x7d
 3944 012f 04       		.sleb128 4
 3945 0130 00000000 		.4byte	0
 3946 0134 00000000 		.4byte	0
 3947              	.LLST11:
 3948 0138 DE000000 		.4byte	.LVL18-.Ltext0
 3949 013c E0000000 		.4byte	.LVL19-.Ltext0
 3950 0140 0100     		.2byte	0x1
 3951 0142 50       		.byte	0x50
 3952 0143 00000000 		.4byte	0
 3953 0147 00000000 		.4byte	0
 3954              	.LLST12:
 3955 014b 30010000 		.4byte	.LFB15-.Ltext0
 3956 014f 32010000 		.4byte	.LCFI4-.Ltext0
 3957 0153 0200     		.2byte	0x2
 3958 0155 7D       		.byte	0x7d
 3959 0156 00       		.sleb128 0
 3960 0157 32010000 		.4byte	.LCFI4-.Ltext0
 3961 015b 48010000 		.4byte	.LFE15-.Ltext0
 3962 015f 0200     		.2byte	0x2
 3963 0161 7D       		.byte	0x7d
 3964 0162 08       		.sleb128 8
 3965 0163 00000000 		.4byte	0
 3966 0167 00000000 		.4byte	0
 3967              	.LLST13:
 3968 016b 32010000 		.4byte	.LVL20-.Ltext0
 3969 016f 36010000 		.4byte	.LVL21-.Ltext0
 3970 0173 0100     		.2byte	0x1
 3971 0175 50       		.byte	0x50
 3972 0176 36010000 		.4byte	.LVL21-.Ltext0
 3973 017a 42010000 		.4byte	.LVL23-.Ltext0
 3974 017e 0100     		.2byte	0x1
 3975 0180 54       		.byte	0x54
 3976 0181 00000000 		.4byte	0
 3977 0185 00000000 		.4byte	0
 3978              	.LLST14:
 3979 0189 48010000 		.4byte	.LFB11-.Ltext0
 3980 018d 4A010000 		.4byte	.LCFI5-.Ltext0
 3981 0191 0200     		.2byte	0x2
 3982 0193 7D       		.byte	0x7d
 3983 0194 00       		.sleb128 0
 3984 0195 4A010000 		.4byte	.LCFI5-.Ltext0
 3985 0199 94010000 		.4byte	.LFE11-.Ltext0
 3986 019d 0200     		.2byte	0x2
ARM GAS  C:\Users\KOZLOV~1\AppData\Local\Temp\cctyslCN.s 			page 85


 3987 019f 7D       		.byte	0x7d
 3988 01a0 14       		.sleb128 20
 3989 01a1 00000000 		.4byte	0
 3990 01a5 00000000 		.4byte	0
 3991              	.LLST15:
 3992 01a9 4A010000 		.4byte	.LVL24-.Ltext0
 3993 01ad 52010000 		.4byte	.LVL25-.Ltext0
 3994 01b1 0100     		.2byte	0x1
 3995 01b3 50       		.byte	0x50
 3996 01b4 00000000 		.4byte	0
 3997 01b8 00000000 		.4byte	0
 3998              	.LLST16:
 3999 01bc 4A010000 		.4byte	.LVL24-.Ltext0
 4000 01c0 5D010000 		.4byte	.LVL26-1-.Ltext0
 4001 01c4 0100     		.2byte	0x1
 4002 01c6 51       		.byte	0x51
 4003 01c7 00000000 		.4byte	0
 4004 01cb 00000000 		.4byte	0
 4005              	.LLST17:
 4006 01cf 4A010000 		.4byte	.LVL24-.Ltext0
 4007 01d3 5D010000 		.4byte	.LVL26-1-.Ltext0
 4008 01d7 0100     		.2byte	0x1
 4009 01d9 52       		.byte	0x52
 4010 01da 00000000 		.4byte	0
 4011 01de 00000000 		.4byte	0
 4012              	.LLST18:
 4013 01e2 4A010000 		.4byte	.LVL24-.Ltext0
 4014 01e6 5D010000 		.4byte	.LVL26-1-.Ltext0
 4015 01ea 0100     		.2byte	0x1
 4016 01ec 53       		.byte	0x53
 4017 01ed 00000000 		.4byte	0
 4018 01f1 00000000 		.4byte	0
 4019              	.LLST19:
 4020 01f5 94010000 		.4byte	.LFB10-.Ltext0
 4021 01f9 96010000 		.4byte	.LCFI6-.Ltext0
 4022 01fd 0200     		.2byte	0x2
 4023 01ff 7D       		.byte	0x7d
 4024 0200 00       		.sleb128 0
 4025 0201 96010000 		.4byte	.LCFI6-.Ltext0
 4026 0205 C4010000 		.4byte	.LFE10-.Ltext0
 4027 0209 0200     		.2byte	0x2
 4028 020b 7D       		.byte	0x7d
 4029 020c 14       		.sleb128 20
 4030 020d 00000000 		.4byte	0
 4031 0211 00000000 		.4byte	0
 4032              	.LLST20:
 4033 0215 96010000 		.4byte	.LVL27-.Ltext0
 4034 0219 A8010000 		.4byte	.LVL28-.Ltext0
 4035 021d 0100     		.2byte	0x1
 4036 021f 50       		.byte	0x50
 4037 0220 00000000 		.4byte	0
 4038 0224 00000000 		.4byte	0
 4039              	.LLST21:
 4040 0228 96010000 		.4byte	.LVL27-.Ltext0
 4041 022c AB010000 		.4byte	.LVL29-1-.Ltext0
 4042 0230 0100     		.2byte	0x1
 4043 0232 51       		.byte	0x51
ARM GAS  C:\Users\KOZLOV~1\AppData\Local\Temp\cctyslCN.s 			page 86


 4044 0233 00000000 		.4byte	0
 4045 0237 00000000 		.4byte	0
 4046              	.LLST22:
 4047 023b 96010000 		.4byte	.LVL27-.Ltext0
 4048 023f AB010000 		.4byte	.LVL29-1-.Ltext0
 4049 0243 0100     		.2byte	0x1
 4050 0245 52       		.byte	0x52
 4051 0246 00000000 		.4byte	0
 4052 024a 00000000 		.4byte	0
 4053              	.LLST23:
 4054 024e 96010000 		.4byte	.LVL27-.Ltext0
 4055 0252 AB010000 		.4byte	.LVL29-1-.Ltext0
 4056 0256 0100     		.2byte	0x1
 4057 0258 53       		.byte	0x53
 4058 0259 00000000 		.4byte	0
 4059 025d 00000000 		.4byte	0
 4060              	.LLST24:
 4061 0261 C4010000 		.4byte	.LFB9-.Ltext0
 4062 0265 C6010000 		.4byte	.LCFI7-.Ltext0
 4063 0269 0200     		.2byte	0x2
 4064 026b 7D       		.byte	0x7d
 4065 026c 00       		.sleb128 0
 4066 026d C6010000 		.4byte	.LCFI7-.Ltext0
 4067 0271 E4010000 		.4byte	.LFE9-.Ltext0
 4068 0275 0200     		.2byte	0x2
 4069 0277 7D       		.byte	0x7d
 4070 0278 04       		.sleb128 4
 4071 0279 00000000 		.4byte	0
 4072 027d 00000000 		.4byte	0
 4073              	.LLST25:
 4074 0281 C6010000 		.4byte	.LVL30-.Ltext0
 4075 0285 CA010000 		.4byte	.LVL31-.Ltext0
 4076 0289 0100     		.2byte	0x1
 4077 028b 50       		.byte	0x50
 4078 028c 00000000 		.4byte	0
 4079 0290 00000000 		.4byte	0
 4080              	.LLST26:
 4081 0294 C6010000 		.4byte	.LVL30-.Ltext0
 4082 0298 CC010000 		.4byte	.LVL32-.Ltext0
 4083 029c 0100     		.2byte	0x1
 4084 029e 51       		.byte	0x51
 4085 029f 00000000 		.4byte	0
 4086 02a3 00000000 		.4byte	0
 4087              	.LLST27:
 4088 02a7 E4010000 		.4byte	.LFB8-.Ltext0
 4089 02ab E6010000 		.4byte	.LCFI8-.Ltext0
 4090 02af 0200     		.2byte	0x2
 4091 02b1 7D       		.byte	0x7d
 4092 02b2 00       		.sleb128 0
 4093 02b3 E6010000 		.4byte	.LCFI8-.Ltext0
 4094 02b7 82020000 		.4byte	.LFE8-.Ltext0
 4095 02bb 0200     		.2byte	0x2
 4096 02bd 7D       		.byte	0x7d
 4097 02be 20       		.sleb128 32
 4098 02bf 00000000 		.4byte	0
 4099 02c3 00000000 		.4byte	0
 4100              	.LLST28:
ARM GAS  C:\Users\KOZLOV~1\AppData\Local\Temp\cctyslCN.s 			page 87


 4101 02c7 E6010000 		.4byte	.LVL33-.Ltext0
 4102 02cb FE010000 		.4byte	.LVL36-.Ltext0
 4103 02cf 0100     		.2byte	0x1
 4104 02d1 50       		.byte	0x50
 4105 02d2 00000000 		.4byte	0
 4106 02d6 00000000 		.4byte	0
 4107              	.LLST29:
 4108 02da E6010000 		.4byte	.LVL33-.Ltext0
 4109 02de 0B020000 		.4byte	.LVL37-1-.Ltext0
 4110 02e2 0100     		.2byte	0x1
 4111 02e4 51       		.byte	0x51
 4112 02e5 00000000 		.4byte	0
 4113 02e9 00000000 		.4byte	0
 4114              	.LLST30:
 4115 02ed E6010000 		.4byte	.LVL33-.Ltext0
 4116 02f1 F4010000 		.4byte	.LVL35-.Ltext0
 4117 02f5 0100     		.2byte	0x1
 4118 02f7 52       		.byte	0x52
 4119 02f8 00000000 		.4byte	0
 4120 02fc 00000000 		.4byte	0
 4121              	.LLST31:
 4122 0300 E6010000 		.4byte	.LVL33-.Ltext0
 4123 0304 EA010000 		.4byte	.LVL34-.Ltext0
 4124 0308 0100     		.2byte	0x1
 4125 030a 53       		.byte	0x53
 4126 030b 00000000 		.4byte	0
 4127 030f 00000000 		.4byte	0
 4128              	.LLST32:
 4129 0313 E6010000 		.4byte	.LVL33-.Ltext0
 4130 0317 3C020000 		.4byte	.LVL39-.Ltext0
 4131 031b 0200     		.2byte	0x2
 4132 031d 91       		.byte	0x91
 4133 031e 08       		.sleb128 8
 4134 031f 4A020000 		.4byte	.LVL41-.Ltext0
 4135 0323 52020000 		.4byte	.LVL42-.Ltext0
 4136 0327 0100     		.2byte	0x1
 4137 0329 55       		.byte	0x55
 4138 032a 52020000 		.4byte	.LVL42-.Ltext0
 4139 032e 54020000 		.4byte	.LVL43-.Ltext0
 4140 0332 0300     		.2byte	0x3
 4141 0334 75       		.byte	0x75
 4142 0335 01       		.sleb128 1
 4143 0336 9F       		.byte	0x9f
 4144 0337 54020000 		.4byte	.LVL43-.Ltext0
 4145 033b 66020000 		.4byte	.LVL46-.Ltext0
 4146 033f 0300     		.2byte	0x3
 4147 0341 75       		.byte	0x75
 4148 0342 02       		.sleb128 2
 4149 0343 9F       		.byte	0x9f
 4150 0344 66020000 		.4byte	.LVL46-.Ltext0
 4151 0348 76020000 		.4byte	.LVL51-.Ltext0
 4152 034c 0100     		.2byte	0x1
 4153 034e 55       		.byte	0x55
 4154 034f 00000000 		.4byte	0
 4155 0353 00000000 		.4byte	0
 4156              	.LLST33:
 4157 0357 3C020000 		.4byte	.LVL39-.Ltext0
ARM GAS  C:\Users\KOZLOV~1\AppData\Local\Temp\cctyslCN.s 			page 88


 4158 035b 4A020000 		.4byte	.LVL41-.Ltext0
 4159 035f 0100     		.2byte	0x1
 4160 0361 54       		.byte	0x54
 4161 0362 54020000 		.4byte	.LVL43-.Ltext0
 4162 0366 58020000 		.4byte	.LVL44-.Ltext0
 4163 036a 0200     		.2byte	0x2
 4164 036c 30       		.byte	0x30
 4165 036d 9F       		.byte	0x9f
 4166 036e 58020000 		.4byte	.LVL44-.Ltext0
 4167 0372 6A020000 		.4byte	.LVL48-.Ltext0
 4168 0376 0100     		.2byte	0x1
 4169 0378 57       		.byte	0x57
 4170 0379 00000000 		.4byte	0
 4171 037d 00000000 		.4byte	0
 4172              	.LLST34:
 4173 0381 54020000 		.4byte	.LVL43-.Ltext0
 4174 0385 6A020000 		.4byte	.LVL48-.Ltext0
 4175 0389 0100     		.2byte	0x1
 4176 038b 54       		.byte	0x54
 4177 038c 00000000 		.4byte	0
 4178 0390 00000000 		.4byte	0
 4179              	.LLST35:
 4180 0394 36020000 		.4byte	.LVL38-.Ltext0
 4181 0398 7C020000 		.4byte	.LVL52-.Ltext0
 4182 039c 0100     		.2byte	0x1
 4183 039e 56       		.byte	0x56
 4184 039f 00000000 		.4byte	0
 4185 03a3 00000000 		.4byte	0
 4186              	.LLST36:
 4187 03a7 82020000 		.4byte	.LFB7-.Ltext0
 4188 03ab 84020000 		.4byte	.LCFI9-.Ltext0
 4189 03af 0200     		.2byte	0x2
 4190 03b1 7D       		.byte	0x7d
 4191 03b2 00       		.sleb128 0
 4192 03b3 84020000 		.4byte	.LCFI9-.Ltext0
 4193 03b7 30030000 		.4byte	.LFE7-.Ltext0
 4194 03bb 0200     		.2byte	0x2
 4195 03bd 7D       		.byte	0x7d
 4196 03be 24       		.sleb128 36
 4197 03bf 00000000 		.4byte	0
 4198 03c3 00000000 		.4byte	0
 4199              	.LLST37:
 4200 03c7 84020000 		.4byte	.LVL53-.Ltext0
 4201 03cb A6020000 		.4byte	.LVL55-.Ltext0
 4202 03cf 0100     		.2byte	0x1
 4203 03d1 50       		.byte	0x50
 4204 03d2 00000000 		.4byte	0
 4205 03d6 00000000 		.4byte	0
 4206              	.LLST38:
 4207 03da 84020000 		.4byte	.LVL53-.Ltext0
 4208 03de B1020000 		.4byte	.LVL56-1-.Ltext0
 4209 03e2 0100     		.2byte	0x1
 4210 03e4 51       		.byte	0x51
 4211 03e5 00000000 		.4byte	0
 4212 03e9 00000000 		.4byte	0
 4213              	.LLST39:
 4214 03ed 84020000 		.4byte	.LVL53-.Ltext0
ARM GAS  C:\Users\KOZLOV~1\AppData\Local\Temp\cctyslCN.s 			page 89


 4215 03f1 B1020000 		.4byte	.LVL56-1-.Ltext0
 4216 03f5 0100     		.2byte	0x1
 4217 03f7 52       		.byte	0x52
 4218 03f8 00000000 		.4byte	0
 4219 03fc 00000000 		.4byte	0
 4220              	.LLST40:
 4221 0400 84020000 		.4byte	.LVL53-.Ltext0
 4222 0404 86020000 		.4byte	.LVL54-.Ltext0
 4223 0408 0100     		.2byte	0x1
 4224 040a 53       		.byte	0x53
 4225 040b 00000000 		.4byte	0
 4226 040f 00000000 		.4byte	0
 4227              	.LLST41:
 4228 0413 D4020000 		.4byte	.LVL57-.Ltext0
 4229 0417 D8020000 		.4byte	.LVL58-.Ltext0
 4230 041b 0200     		.2byte	0x2
 4231 041d 30       		.byte	0x30
 4232 041e 9F       		.byte	0x9f
 4233 041f D8020000 		.4byte	.LVL58-.Ltext0
 4234 0423 EE020000 		.4byte	.LVL60-.Ltext0
 4235 0427 0100     		.2byte	0x1
 4236 0429 54       		.byte	0x54
 4237 042a F4020000 		.4byte	.LVL61-.Ltext0
 4238 042e FA020000 		.4byte	.LVL62-.Ltext0
 4239 0432 0200     		.2byte	0x2
 4240 0434 30       		.byte	0x30
 4241 0435 9F       		.byte	0x9f
 4242 0436 FA020000 		.4byte	.LVL62-.Ltext0
 4243 043a 0E030000 		.4byte	.LVL64-.Ltext0
 4244 043e 0100     		.2byte	0x1
 4245 0440 56       		.byte	0x56
 4246 0441 18030000 		.4byte	.LVL65-.Ltext0
 4247 0445 2A030000 		.4byte	.LVL67-.Ltext0
 4248 0449 0100     		.2byte	0x1
 4249 044b 54       		.byte	0x54
 4250 044c 00000000 		.4byte	0
 4251 0450 00000000 		.4byte	0
 4252              	.LLST42:
 4253 0454 EE020000 		.4byte	.LVL60-.Ltext0
 4254 0458 2A030000 		.4byte	.LVL68-.Ltext0
 4255 045c 0100     		.2byte	0x1
 4256 045e 57       		.byte	0x57
 4257 045f 00000000 		.4byte	0
 4258 0463 00000000 		.4byte	0
 4259              	.LLST43:
 4260 0467 30030000 		.4byte	.LFB6-.Ltext0
 4261 046b 32030000 		.4byte	.LCFI10-.Ltext0
 4262 046f 0200     		.2byte	0x2
 4263 0471 7D       		.byte	0x7d
 4264 0472 00       		.sleb128 0
 4265 0473 32030000 		.4byte	.LCFI10-.Ltext0
 4266 0477 8C030000 		.4byte	.LFE6-.Ltext0
 4267 047b 0200     		.2byte	0x2
 4268 047d 7D       		.byte	0x7d
 4269 047e 18       		.sleb128 24
 4270 047f 00000000 		.4byte	0
 4271 0483 00000000 		.4byte	0
ARM GAS  C:\Users\KOZLOV~1\AppData\Local\Temp\cctyslCN.s 			page 90


 4272              	.LLST44:
 4273 0487 32030000 		.4byte	.LVL69-.Ltext0
 4274 048b 46030000 		.4byte	.LVL71-.Ltext0
 4275 048f 0100     		.2byte	0x1
 4276 0491 50       		.byte	0x50
 4277 0492 00000000 		.4byte	0
 4278 0496 00000000 		.4byte	0
 4279              	.LLST45:
 4280 049a 32030000 		.4byte	.LVL69-.Ltext0
 4281 049e 4F030000 		.4byte	.LVL72-1-.Ltext0
 4282 04a2 0100     		.2byte	0x1
 4283 04a4 51       		.byte	0x51
 4284 04a5 00000000 		.4byte	0
 4285 04a9 00000000 		.4byte	0
 4286              	.LLST46:
 4287 04ad 32030000 		.4byte	.LVL69-.Ltext0
 4288 04b1 4F030000 		.4byte	.LVL72-1-.Ltext0
 4289 04b5 0100     		.2byte	0x1
 4290 04b7 52       		.byte	0x52
 4291 04b8 00000000 		.4byte	0
 4292 04bc 00000000 		.4byte	0
 4293              	.LLST47:
 4294 04c0 32030000 		.4byte	.LVL69-.Ltext0
 4295 04c4 36030000 		.4byte	.LVL70-.Ltext0
 4296 04c8 0100     		.2byte	0x1
 4297 04ca 53       		.byte	0x53
 4298 04cb 00000000 		.4byte	0
 4299 04cf 00000000 		.4byte	0
 4300              	.LLST48:
 4301 04d3 70030000 		.4byte	.LVL73-.Ltext0
 4302 04d7 74030000 		.4byte	.LVL74-.Ltext0
 4303 04db 0200     		.2byte	0x2
 4304 04dd 30       		.byte	0x30
 4305 04de 9F       		.byte	0x9f
 4306 04df 74030000 		.4byte	.LVL74-.Ltext0
 4307 04e3 86030000 		.4byte	.LVL77-.Ltext0
 4308 04e7 0100     		.2byte	0x1
 4309 04e9 55       		.byte	0x55
 4310 04ea 00000000 		.4byte	0
 4311 04ee 00000000 		.4byte	0
 4312              	.LLST49:
 4313 04f2 70030000 		.4byte	.LVL73-.Ltext0
 4314 04f6 86030000 		.4byte	.LVL76-.Ltext0
 4315 04fa 0100     		.2byte	0x1
 4316 04fc 54       		.byte	0x54
 4317 04fd 00000000 		.4byte	0
 4318 0501 00000000 		.4byte	0
 4319              	.LLST50:
 4320 0505 8C030000 		.4byte	.LFB5-.Ltext0
 4321 0509 8E030000 		.4byte	.LCFI11-.Ltext0
 4322 050d 0200     		.2byte	0x2
 4323 050f 7D       		.byte	0x7d
 4324 0510 00       		.sleb128 0
 4325 0511 8E030000 		.4byte	.LCFI11-.Ltext0
 4326 0515 0E040000 		.4byte	.LFE5-.Ltext0
 4327 0519 0200     		.2byte	0x2
 4328 051b 7D       		.byte	0x7d
ARM GAS  C:\Users\KOZLOV~1\AppData\Local\Temp\cctyslCN.s 			page 91


 4329 051c 18       		.sleb128 24
 4330 051d 00000000 		.4byte	0
 4331 0521 00000000 		.4byte	0
 4332              	.LLST51:
 4333 0525 8E030000 		.4byte	.LVL78-.Ltext0
 4334 0529 9E030000 		.4byte	.LVL80-.Ltext0
 4335 052d 0100     		.2byte	0x1
 4336 052f 50       		.byte	0x50
 4337 0530 00000000 		.4byte	0
 4338 0534 00000000 		.4byte	0
 4339              	.LLST52:
 4340 0538 8E030000 		.4byte	.LVL78-.Ltext0
 4341 053c AB030000 		.4byte	.LVL81-1-.Ltext0
 4342 0540 0100     		.2byte	0x1
 4343 0542 51       		.byte	0x51
 4344 0543 00000000 		.4byte	0
 4345 0547 00000000 		.4byte	0
 4346              	.LLST53:
 4347 054b 8E030000 		.4byte	.LVL78-.Ltext0
 4348 054f AB030000 		.4byte	.LVL81-1-.Ltext0
 4349 0553 0100     		.2byte	0x1
 4350 0555 52       		.byte	0x52
 4351 0556 00000000 		.4byte	0
 4352 055a 00000000 		.4byte	0
 4353              	.LLST54:
 4354 055e 8E030000 		.4byte	.LVL78-.Ltext0
 4355 0562 92030000 		.4byte	.LVL79-.Ltext0
 4356 0566 0100     		.2byte	0x1
 4357 0568 53       		.byte	0x53
 4358 0569 00000000 		.4byte	0
 4359 056d 00000000 		.4byte	0
 4360              	.LLST55:
 4361 0571 C8030000 		.4byte	.LVL82-.Ltext0
 4362 0575 CC030000 		.4byte	.LVL83-.Ltext0
 4363 0579 0200     		.2byte	0x2
 4364 057b 30       		.byte	0x30
 4365 057c 9F       		.byte	0x9f
 4366 057d CC030000 		.4byte	.LVL83-.Ltext0
 4367 0581 DA030000 		.4byte	.LVL85-.Ltext0
 4368 0585 0100     		.2byte	0x1
 4369 0587 55       		.byte	0x55
 4370 0588 F2030000 		.4byte	.LVL86-.Ltext0
 4371 058c F6030000 		.4byte	.LVL87-.Ltext0
 4372 0590 0200     		.2byte	0x2
 4373 0592 30       		.byte	0x30
 4374 0593 9F       		.byte	0x9f
 4375 0594 F6030000 		.4byte	.LVL87-.Ltext0
 4376 0598 08040000 		.4byte	.LVL89-.Ltext0
 4377 059c 0100     		.2byte	0x1
 4378 059e 55       		.byte	0x55
 4379 059f 00000000 		.4byte	0
 4380 05a3 00000000 		.4byte	0
 4381              	.LLST56:
 4382 05a7 0E040000 		.4byte	.LFB4-.Ltext0
 4383 05ab 10040000 		.4byte	.LCFI12-.Ltext0
 4384 05af 0200     		.2byte	0x2
 4385 05b1 7D       		.byte	0x7d
ARM GAS  C:\Users\KOZLOV~1\AppData\Local\Temp\cctyslCN.s 			page 92


 4386 05b2 00       		.sleb128 0
 4387 05b3 10040000 		.4byte	.LCFI12-.Ltext0
 4388 05b7 32040000 		.4byte	.LFE4-.Ltext0
 4389 05bb 0200     		.2byte	0x2
 4390 05bd 7D       		.byte	0x7d
 4391 05be 08       		.sleb128 8
 4392 05bf 00000000 		.4byte	0
 4393 05c3 00000000 		.4byte	0
 4394              	.LLST57:
 4395 05c7 10040000 		.4byte	.LVL90-.Ltext0
 4396 05cb 14040000 		.4byte	.LVL91-.Ltext0
 4397 05cf 0100     		.2byte	0x1
 4398 05d1 50       		.byte	0x50
 4399 05d2 00000000 		.4byte	0
 4400 05d6 00000000 		.4byte	0
 4401              	.LLST58:
 4402 05da 32040000 		.4byte	.LFB1-.Ltext0
 4403 05de 34040000 		.4byte	.LCFI13-.Ltext0
 4404 05e2 0200     		.2byte	0x2
 4405 05e4 7D       		.byte	0x7d
 4406 05e5 00       		.sleb128 0
 4407 05e6 34040000 		.4byte	.LCFI13-.Ltext0
 4408 05ea 78040000 		.4byte	.LFE1-.Ltext0
 4409 05ee 0200     		.2byte	0x2
 4410 05f0 7D       		.byte	0x7d
 4411 05f1 0C       		.sleb128 12
 4412 05f2 00000000 		.4byte	0
 4413 05f6 00000000 		.4byte	0
 4414              	.LLST59:
 4415 05fa 54040000 		.4byte	.LVL92-.Ltext0
 4416 05fe 56040000 		.4byte	.LVL93-.Ltext0
 4417 0602 0200     		.2byte	0x2
 4418 0604 30       		.byte	0x30
 4419 0605 9F       		.byte	0x9f
 4420 0606 00000000 		.4byte	0
 4421 060a 00000000 		.4byte	0
 4422              	.LLST60:
 4423 060e 78040000 		.4byte	.LFB2-.Ltext0
 4424 0612 7A040000 		.4byte	.LCFI14-.Ltext0
 4425 0616 0200     		.2byte	0x2
 4426 0618 7D       		.byte	0x7d
 4427 0619 00       		.sleb128 0
 4428 061a 7A040000 		.4byte	.LCFI14-.Ltext0
 4429 061e 94040000 		.4byte	.LFE2-.Ltext0
 4430 0622 0200     		.2byte	0x2
 4431 0624 7D       		.byte	0x7d
 4432 0625 04       		.sleb128 4
 4433 0626 00000000 		.4byte	0
 4434 062a 00000000 		.4byte	0
 4435              	.LLST61:
 4436 062e 94040000 		.4byte	.LFB0-.Ltext0
 4437 0632 96040000 		.4byte	.LCFI15-.Ltext0
 4438 0636 0200     		.2byte	0x2
 4439 0638 7D       		.byte	0x7d
 4440 0639 00       		.sleb128 0
 4441 063a 96040000 		.4byte	.LCFI15-.Ltext0
 4442 063e 84050000 		.4byte	.LFE0-.Ltext0
ARM GAS  C:\Users\KOZLOV~1\AppData\Local\Temp\cctyslCN.s 			page 93


 4443 0642 0200     		.2byte	0x2
 4444 0644 7D       		.byte	0x7d
 4445 0645 08       		.sleb128 8
 4446 0646 00000000 		.4byte	0
 4447 064a 00000000 		.4byte	0
 4448              		.section	.debug_aranges,"",%progbits
 4449 0000 1C000000 		.4byte	0x1c
 4450 0004 0200     		.2byte	0x2
 4451 0006 00000000 		.4byte	.Ldebug_info0
 4452 000a 04       		.byte	0x4
 4453 000b 00       		.byte	0
 4454 000c 0000     		.2byte	0
 4455 000e 0000     		.2byte	0
 4456 0010 00000000 		.4byte	.Ltext0
 4457 0014 84050000 		.4byte	.Letext0-.Ltext0
 4458 0018 00000000 		.4byte	0
 4459 001c 00000000 		.4byte	0
 4460              		.section	.debug_line,"",%progbits
 4461              	.Ldebug_line0:
 4462 0000 34020000 		.section	.debug_str,"MS",%progbits,1
 4462      02005400 
 4462      00000201 
 4462      FB0E0D00 
 4462      01010101 
 4463              	.LASF21:
 4464 0000 6C636449 		.ascii	"lcdIcon\000"
 4464      636F6E00 
 4465              	.LASF19:
 4466 0008 6C636457 		.ascii	"lcdWindow\000"
 4466      696E646F 
 4466      7700
 4467              	.LASF9:
 4468 0012 74657874 		.ascii	"text\000"
 4468      00
 4469              	.LASF26:
 4470 0017 70446174 		.ascii	"pData\000"
 4470      6100
 4471              	.LASF42:
 4472 001d 626B6743 		.ascii	"bkgColor\000"
 4472      6F6C6F72 
 4472      00
 4473              	.LASF16:
 4474 0026 62797465 		.ascii	"byteToShift\000"
 4474      546F5368 
 4474      69667400 
 4475              	.LASF49:
 4476 0032 6C636457 		.ascii	"lcdWindow1\000"
 4476      696E646F 
 4476      773100
 4477              	.LASF5:
 4478 003d 73686F72 		.ascii	"short int\000"
 4478      7420696E 
 4478      7400
 4479              	.LASF32:
 4480 0047 636F6C6F 		.ascii	"color\000"
 4480      7200
 4481              	.LASF44:
ARM GAS  C:\Users\KOZLOV~1\AppData\Local\Temp\cctyslCN.s 			page 94


 4482 004d 73657463 		.ascii	"setcolmark\000"
 4482      6F6C6D61 
 4482      726B00
 4483              	.LASF18:
 4484 0058 6C636450 		.ascii	"lcdPuts\000"
 4484      75747300 
 4485              	.LASF10:
 4486 0060 6C636443 		.ascii	"lcdColor\000"
 4486      6F6C6F72 
 4486      00
 4487              	.LASF47:
 4488 0069 433A5C55 		.ascii	"C:\\Users\\kozlovsky\\Downloads\\TicTac\\TicTac\000"
 4488      73657273 
 4488      5C6B6F7A 
 4488      6C6F7673 
 4488      6B795C44 
 4489              	.LASF43:
 4490 0094 74657874 		.ascii	"textColor\000"
 4490      436F6C6F 
 4490      7200
 4491              	.LASF39:
 4492 009e 6C636449 		.ascii	"lcdInit\000"
 4492      6E697400 
 4493              	.LASF13:
 4494 00a6 6C636457 		.ascii	"lcdWrdata\000"
 4494      72646174 
 4494      6100
 4495              	.LASF38:
 4496 00b0 6C63644F 		.ascii	"lcdOff\000"
 4496      666600
 4497              	.LASF2:
 4498 00b7 74553332 		.ascii	"tU32\000"
 4498      00
 4499              	.LASF35:
 4500 00bc 6C636443 		.ascii	"lcdContrast\000"
 4500      6F6E7472 
 4500      61737400 
 4501              	.LASF14:
 4502 00c8 6C636444 		.ascii	"lcdData\000"
 4502      61746100 
 4503              	.LASF17:
 4504 00d0 6C636450 		.ascii	"lcdPutchar\000"
 4504      75746368 
 4504      617200
 4505              	.LASF27:
 4506 00db 6C636452 		.ascii	"lcdRectBrd\000"
 4506      65637442 
 4506      726400
 4507              	.LASF41:
 4508 00e6 6C63645F 		.ascii	"lcd_y\000"
 4508      7900
 4509              	.LASF36:
 4510 00ec 636F6E74 		.ascii	"cont\000"
 4510      00
 4511              	.LASF37:
 4512 00f1 6C636443 		.ascii	"lcdClrscr\000"
 4512      6C727363 
ARM GAS  C:\Users\KOZLOV~1\AppData\Local\Temp\cctyslCN.s 			page 95


 4512      7200
 4513              	.LASF25:
 4514 00fb 65736361 		.ascii	"escapeChar\000"
 4514      70654368 
 4514      617200
 4515              	.LASF15:
 4516 0106 6D61704F 		.ascii	"mapOffset\000"
 4516      66667365 
 4516      7400
 4517              	.LASF6:
 4518 0110 74533332 		.ascii	"tS32\000"
 4518      00
 4519              	.LASF20:
 4520 0115 6C636447 		.ascii	"lcdGotoxy\000"
 4520      6F746F78 
 4520      7900
 4521              	.LASF0:
 4522 011f 756E7369 		.ascii	"unsigned char\000"
 4522      676E6564 
 4522      20636861 
 4522      7200
 4523              	.LASF50:
 4524 012d 63686172 		.ascii	"charMap\000"
 4524      4D617000 
 4525              	.LASF4:
 4526 0135 7369676E 		.ascii	"signed char\000"
 4526      65642063 
 4526      68617200 
 4527              	.LASF34:
 4528 0141 76657274 		.ascii	"vertical\000"
 4528      6963616C 
 4528      00
 4529              	.LASF3:
 4530 014a 756E7369 		.ascii	"unsigned int\000"
 4530      676E6564 
 4530      20696E74 
 4530      00
 4531              	.LASF7:
 4532 0157 74426F6F 		.ascii	"tBool\000"
 4532      6C00
 4533              	.LASF24:
 4534 015d 636F6D70 		.ascii	"compressionOn\000"
 4534      72657373 
 4534      696F6E4F 
 4534      6E00
 4535              	.LASF1:
 4536 016b 73686F72 		.ascii	"short unsigned int\000"
 4536      7420756E 
 4536      7369676E 
 4536      65642069 
 4536      6E7400
 4537              	.LASF46:
 4538 017e 6C63642E 		.ascii	"lcd.c\000"
 4538      6300
 4539              	.LASF45:
 4540 0184 474E5520 		.ascii	"GNU C 4.6.3\000"
 4540      4320342E 
ARM GAS  C:\Users\KOZLOV~1\AppData\Local\Temp\cctyslCN.s 			page 96


 4540      362E3300 
 4541              	.LASF12:
 4542 0190 64617461 		.ascii	"data\000"
 4542      00
 4543              	.LASF8:
 4544 0195 6C6F6E67 		.ascii	"long unsigned int\000"
 4544      20756E73 
 4544      69676E65 
 4544      6420696E 
 4544      7400
 4545              	.LASF33:
 4546 01a7 6C63644C 		.ascii	"lcdLine\000"
 4546      696E6500 
 4547              	.LASF28:
 4548 01af 636F6C6F 		.ascii	"color1\000"
 4548      723100
 4549              	.LASF29:
 4550 01b6 636F6C6F 		.ascii	"color2\000"
 4550      723200
 4551              	.LASF30:
 4552 01bd 636F6C6F 		.ascii	"color3\000"
 4552      723300
 4553              	.LASF22:
 4554 01c4 784C656E 		.ascii	"xLen\000"
 4554      00
 4555              	.LASF11:
 4556 01c9 6C636457 		.ascii	"lcdWrcmd\000"
 4556      72636D64 
 4556      00
 4557              	.LASF23:
 4558 01d2 794C656E 		.ascii	"yLen\000"
 4558      00
 4559              	.LASF40:
 4560 01d7 6C63645F 		.ascii	"lcd_x\000"
 4560      7800
 4561              	.LASF31:
 4562 01dd 6C636452 		.ascii	"lcdRect\000"
 4562      65637400 
 4563              	.LASF48:
 4564 01e5 6C63644E 		.ascii	"lcdNewline\000"
 4564      65776C69 
 4564      6E6500
 4565              		.ident	"GCC: (GNU) 4.6.3"
ARM GAS  C:\Users\KOZLOV~1\AppData\Local\Temp\cctyslCN.s 			page 97


DEFINED SYMBOLS
                            *ABS*:00000000 lcd.c
C:\Users\KOZLOV~1\AppData\Local\Temp\cctyslCN.s:6      .text:00000000 $t
C:\Users\KOZLOV~1\AppData\Local\Temp\cctyslCN.s:11     .text:00000000 lcdColor
C:\Users\KOZLOV~1\AppData\Local\Temp\cctyslCN.s:30     .text:00000008 $d
C:\Users\KOZLOV~1\AppData\Local\Temp\cctyslCN.s:34     .text:0000000c $t
C:\Users\KOZLOV~1\AppData\Local\Temp\cctyslCN.s:39     .text:0000000c lcdWrcmd
C:\Users\KOZLOV~1\AppData\Local\Temp\cctyslCN.s:67     .text:0000001c lcdWrdata
C:\Users\KOZLOV~1\AppData\Local\Temp\cctyslCN.s:95     .text:0000002c lcdData
C:\Users\KOZLOV~1\AppData\Local\Temp\cctyslCN.s:231    .text:000000d4 $d
C:\Users\KOZLOV~1\AppData\Local\Temp\cctyslCN.s:236    .text:000000dc $t
C:\Users\KOZLOV~1\AppData\Local\Temp\cctyslCN.s:241    .text:000000dc lcdPutchar
C:\Users\KOZLOV~1\AppData\Local\Temp\cctyslCN.s:316    .text:0000012c $d
C:\Users\KOZLOV~1\AppData\Local\Temp\cctyslCN.s:320    .text:00000130 $t
C:\Users\KOZLOV~1\AppData\Local\Temp\cctyslCN.s:325    .text:00000130 lcdPuts
C:\Users\KOZLOV~1\AppData\Local\Temp\cctyslCN.s:363    .text:00000148 lcdWindow1
C:\Users\KOZLOV~1\AppData\Local\Temp\cctyslCN.s:437    .text:00000194 lcdWindow
C:\Users\KOZLOV~1\AppData\Local\Temp\cctyslCN.s:486    .text:000001c4 lcdGotoxy
C:\Users\KOZLOV~1\AppData\Local\Temp\cctyslCN.s:520    .text:000001e0 $d
C:\Users\KOZLOV~1\AppData\Local\Temp\cctyslCN.s:524    .text:000001e4 $t
C:\Users\KOZLOV~1\AppData\Local\Temp\cctyslCN.s:529    .text:000001e4 lcdIcon
C:\Users\KOZLOV~1\AppData\Local\Temp\cctyslCN.s:682    .text:00000282 lcdRectBrd
C:\Users\KOZLOV~1\AppData\Local\Temp\cctyslCN.s:837    .text:00000330 lcdRect
C:\Users\KOZLOV~1\AppData\Local\Temp\cctyslCN.s:923    .text:0000038c lcdLine
C:\Users\KOZLOV~1\AppData\Local\Temp\cctyslCN.s:1038   .text:0000040e lcdContrast
C:\Users\KOZLOV~1\AppData\Local\Temp\cctyslCN.s:1078   .text:00000432 lcdClrscr
C:\Users\KOZLOV~1\AppData\Local\Temp\cctyslCN.s:1128   .text:00000470 $d
C:\Users\KOZLOV~1\AppData\Local\Temp\cctyslCN.s:1133   .text:00000478 $t
C:\Users\KOZLOV~1\AppData\Local\Temp\cctyslCN.s:1138   .text:00000478 lcdOff
C:\Users\KOZLOV~1\AppData\Local\Temp\cctyslCN.s:1169   .text:00000494 lcdInit
C:\Users\KOZLOV~1\AppData\Local\Temp\cctyslCN.s:1302   .text:00000580 $d
C:\Users\KOZLOV~1\AppData\Local\Temp\cctyslCN.s:1311   .rodata:00000000 charMap
C:\Users\KOZLOV~1\AppData\Local\Temp\cctyslCN.s:2688   .bss:00000000 bkgColor
C:\Users\KOZLOV~1\AppData\Local\Temp\cctyslCN.s:2689   .bss:00000000 $d
C:\Users\KOZLOV~1\AppData\Local\Temp\cctyslCN.s:2692   .bss:00000001 textColor
C:\Users\KOZLOV~1\AppData\Local\Temp\cctyslCN.s:2696   .bss:00000002 lcd_x
C:\Users\KOZLOV~1\AppData\Local\Temp\cctyslCN.s:2700   .bss:00000003 lcd_y
C:\Users\KOZLOV~1\AppData\Local\Temp\cctyslCN.s:2704   .bss:00000004 setcolmark
                     .debug_frame:00000010 $d

UNDEFINED SYMBOLS
sendToLCD
selectLCD
initSpiForLcd
osSleep
