ARM GAS  C:\Users\KOZLOV~1\AppData\Local\Temp\ccJFtazq.s 			page 1


   1              		.code	16
   2              		.file	"select.c"
   3              		.text
   4              	.Ltext0:
   5              		.cfi_sections	.debug_frame
   6              		.align	1
   7              		.code	16
   8              		.thumb_func
   9              		.type	drawMenuCursor, %function
  10              	drawMenuCursor:
  11              	.LFB0:
  12              		.file 1 "select.c"
   1:select.c      **** /******************************************************************************
   2:select.c      ****  *
   3:select.c      ****  * Copyright:
   4:select.c      ****  *    (C) 2006 Embedded Artists AB
   5:select.c      ****  *
   6:select.c      ****  * File:
   7:select.c      ****  *    select.c
   8:select.c      ****  *
   9:select.c      ****  * Description:
  10:select.c      ****  *    Implements a general menu handling.
  11:select.c      ****  *
  12:select.c      ****  *****************************************************************************/
  13:select.c      **** 
  14:select.c      **** /******************************************************************************
  15:select.c      ****  * Includes
  16:select.c      ****  *****************************************************************************/
  17:select.c      **** #include "../pre_emptive_os/api/osapi.h"
  18:select.c      **** #include "../pre_emptive_os/api/general.h"
  19:select.c      **** #include <printf_P.h>
  20:select.c      **** #include <ea_init.h>
  21:select.c      **** #include <stdlib.h>
  22:select.c      **** #include "lcd.h"
  23:select.c      **** #include "key.h"
  24:select.c      **** #include "select.h"
  25:select.c      **** 
  26:select.c      **** 
  27:select.c      **** /*****************************************************************************
  28:select.c      ****  * Local variables
  29:select.c      ****  ****************************************************************************/
  30:select.c      **** static tMenu menu;
  31:select.c      **** static tU8 cursor;
  32:select.c      **** 
  33:select.c      **** 
  34:select.c      **** /*****************************************************************************
  35:select.c      ****  *
  36:select.c      ****  * Description:
  37:select.c      ****  *    Draw cursor in main menu
  38:select.c      ****  *
  39:select.c      ****  * Params:
  40:select.c      ****  *    [in] cursor - Cursor positions
  41:select.c      ****  *
  42:select.c      ****  ****************************************************************************/
  43:select.c      **** static void
  44:select.c      **** drawMenuCursor(void)
  45:select.c      **** {
ARM GAS  C:\Users\KOZLOV~1\AppData\Local\Temp\ccJFtazq.s 			page 2


  13              		.loc 1 45 0
  14              		.cfi_startproc
  15 0000 F0B5     		push	{r4, r5, r6, r7, lr}
  16              	.LCFI0:
  17              		.cfi_def_cfa_offset 20
  18              		.cfi_offset 4, -20
  19              		.cfi_offset 5, -16
  20              		.cfi_offset 6, -12
  21              		.cfi_offset 7, -8
  22              		.cfi_offset 14, -4
  23              	.LVL0:
  46:select.c      ****   tU32 row;
  47:select.c      **** 
  48:select.c      ****   for(row=0; row<menu.noOfChoices; row++)
  24              		.loc 1 48 0
  25 0002 184C     		ldr	r4, .L7
  26 0004 0025     		mov	r5, #0
  27 0006 261C     		mov	r6, r4
  28 0008 1036     		add	r6, r6, #16
  29 000a 2F1C     		mov	r7, r5
  30 000c 23E0     		b	.L2
  31              	.LVL1:
  32              	.L5:
  49:select.c      ****   {
  50:select.c      ****     lcdGotoxy(menu.xPos+4,menu.yPos+17+(14*row));
  33              		.loc 1 50 0
  34 000e 6178     		ldrb	r1, [r4, #1]
  35 0010 2078     		ldrb	r0, [r4]
  36 0012 1131     		add	r1, r1, #17
  37 0014 0430     		add	r0, r0, #4
  38 0016 6918     		add	r1, r5, r1
  39 0018 0006     		lsl	r0, r0, #24
  40 001a 0906     		lsl	r1, r1, #24
  41 001c 000E     		lsr	r0, r0, #24
  42 001e 090E     		lsr	r1, r1, #24
  43 0020 FFF7FEFF 		bl	lcdGotoxy
  51:select.c      ****     if(row == cursor)
  44              		.loc 1 51 0
  45 0024 231C     		mov	r3, r4
  46 0026 3033     		add	r3, r3, #48
  47 0028 1A78     		ldrb	r2, [r3]
  48 002a 231C     		mov	r3, r4
  49 002c 2833     		add	r3, r3, #40
  52:select.c      ****       lcdColor(menu.bgColor+1,menu.selectedColor);
  50              		.loc 1 52 0
  51 002e 1878     		ldrb	r0, [r3]
  51:select.c      ****     if(row == cursor)
  52              		.loc 1 51 0
  53 0030 9742     		cmp	r7, r2
  54 0032 05D1     		bne	.L3
  55              		.loc 1 52 0
  56 0034 0130     		add	r0, r0, #1
  57 0036 0006     		lsl	r0, r0, #24
  58 0038 231C     		mov	r3, r4
  59 003a 000E     		lsr	r0, r0, #24
  60 003c 2C33     		add	r3, r3, #44
  61 003e 00E0     		b	.L6
ARM GAS  C:\Users\KOZLOV~1\AppData\Local\Temp\ccJFtazq.s 			page 3


  62              	.L3:
  53:select.c      ****     else
  54:select.c      ****       lcdColor(menu.bgColor,menu.choicesColor);
  63              		.loc 1 54 0
  64 0040 094B     		ldr	r3, .L7+4
  65              	.L6:
  66 0042 1978     		ldrb	r1, [r3]
  67 0044 FFF7FEFF 		bl	lcdColor
  55:select.c      ****     
  56:select.c      ****     lcdPuts(menu.pChoice[row]);
  68              		.loc 1 56 0
  69 0048 01CE     		ldmia	r6!, {r0}
  70 004a FFF7FEFF 		bl	lcdPuts
  48:select.c      ****   for(row=0; row<menu.noOfChoices; row++)
  71              		.loc 1 48 0
  72 004e 0E35     		add	r5, r5, #14
  73 0050 2D06     		lsl	r5, r5, #24
  74 0052 0137     		add	r7, r7, #1
  75              	.LVL2:
  76 0054 2D0E     		lsr	r5, r5, #24
  77              	.LVL3:
  78              	.L2:
  48:select.c      ****   for(row=0; row<menu.noOfChoices; row++)
  79              		.loc 1 48 0 is_stmt 0 discriminator 1
  80 0056 2379     		ldrb	r3, [r4, #4]
  81 0058 9F42     		cmp	r7, r3
  82 005a D8D3     		bcc	.L5
  57:select.c      ****   }
  58:select.c      **** }
  83              		.loc 1 58 0 is_stmt 1
  84              		@ sp needed for prologue
  85              	.LVL4:
  86 005c F0BC     		pop	{r4, r5, r6, r7}
  87 005e 01BC     		pop	{r0}
  88 0060 0047     		bx	r0
  89              	.L8:
  90 0062 C046     		.align	2
  91              	.L7:
  92 0064 00000000 		.word	.LANCHOR0
  93 0068 2B000000 		.word	.LANCHOR0+43
  94              		.cfi_endproc
  95              	.LFE0:
  96              		.size	drawMenuCursor, .-drawMenuCursor
  97              		.align	1
  98              		.global	drawMenu
  99              		.code	16
 100              		.thumb_func
 101              		.type	drawMenu, %function
 102              	drawMenu:
 103              	.LFB1:
  59:select.c      **** 
  60:select.c      **** /*****************************************************************************
  61:select.c      ****  *
  62:select.c      ****  * Description:
  63:select.c      ****  *    Implements a menu
  64:select.c      ****  *    
  65:select.c      ****  ****************************************************************************/
ARM GAS  C:\Users\KOZLOV~1\AppData\Local\Temp\ccJFtazq.s 			page 4


  66:select.c      **** tU8
  67:select.c      **** drawMenu(tMenu newMenu)
  68:select.c      **** {
 104              		.loc 1 68 0
 105              		.cfi_startproc
 106 006c 84B0     		sub	sp, sp, #16
 107              	.LCFI1:
 108              		.cfi_def_cfa_offset 16
 109 006e 71B5     		push	{r0, r4, r5, r6, lr}
 110              	.LCFI2:
 111              		.cfi_def_cfa_offset 36
 112              		.cfi_offset 0, -36
 113              		.cfi_offset 4, -32
 114              		.cfi_offset 5, -28
 115              		.cfi_offset 6, -24
 116              		.cfi_offset 14, -20
  69:select.c      ****   tU8 anyKey;
  70:select.c      ****   
  71:select.c      ****   menu = newMenu;
 117              		.loc 1 71 0
 118 0070 3B4C     		ldr	r4, .L23
  68:select.c      **** {
 119              		.loc 1 68 0
 120 0072 0792     		str	r2, [sp, #28]
 121 0074 0893     		str	r3, [sp, #32]
 122 0076 0590     		str	r0, [sp, #20]
 123 0078 0691     		str	r1, [sp, #24]
 124              		.loc 1 71 0
 125 007a 231C     		mov	r3, r4
 126 007c 05AA     		add	r2, sp, #20
 127 007e 23CA     		ldmia	r2!, {r0, r1, r5}
 128 0080 23C3     		stmia	r3!, {r0, r1, r5}
 129 0082 23CA     		ldmia	r2!, {r0, r1, r5}
 130 0084 23C3     		stmia	r3!, {r0, r1, r5}
 131 0086 23CA     		ldmia	r2!, {r0, r1, r5}
 132 0088 23C3     		stmia	r3!, {r0, r1, r5}
 133 008a 23CA     		ldmia	r2!, {r0, r1, r5}
 134 008c 23C3     		stmia	r3!, {r0, r1, r5}
  72:select.c      ****   
  73:select.c      ****   //draw boarder
  74:select.c      ****   lcdRect(menu.xPos, menu.yPos, menu.xLen, menu.yLen, menu.borderColor);
 135              		.loc 1 74 0
 136 008e 251C     		mov	r5, r4
 137 0090 2935     		add	r5, r5, #41
 138 0092 2E78     		ldrb	r6, [r5]
 139 0094 2078     		ldrb	r0, [r4]
 140 0096 6178     		ldrb	r1, [r4, #1]
 141 0098 A278     		ldrb	r2, [r4, #2]
 142 009a E378     		ldrb	r3, [r4, #3]
 143 009c 0096     		str	r6, [sp]
 144 009e FFF7FEFF 		bl	lcdRect
  75:select.c      ****   lcdRect(menu.xPos+1, menu.yPos+16, menu.xLen-2, menu.yLen-17, menu.bgColor);
 145              		.loc 1 75 0
 146 00a2 2078     		ldrb	r0, [r4]
 147 00a4 6178     		ldrb	r1, [r4, #1]
 148 00a6 A278     		ldrb	r2, [r4, #2]
 149 00a8 E378     		ldrb	r3, [r4, #3]
ARM GAS  C:\Users\KOZLOV~1\AppData\Local\Temp\ccJFtazq.s 			page 5


 150 00aa 261C     		mov	r6, r4
 151 00ac 0130     		add	r0, r0, #1
 152 00ae 1031     		add	r1, r1, #16
 153 00b0 023A     		sub	r2, r2, #2
 154 00b2 113B     		sub	r3, r3, #17
 155 00b4 2836     		add	r6, r6, #40
 156 00b6 3678     		ldrb	r6, [r6]
 157 00b8 0006     		lsl	r0, r0, #24
 158 00ba 0906     		lsl	r1, r1, #24
 159 00bc 1206     		lsl	r2, r2, #24
 160 00be 1B06     		lsl	r3, r3, #24
 161 00c0 120E     		lsr	r2, r2, #24
 162 00c2 1B0E     		lsr	r3, r3, #24
 163 00c4 000E     		lsr	r0, r0, #24
 164 00c6 090E     		lsr	r1, r1, #24
 165 00c8 0096     		str	r6, [sp]
 166 00ca FFF7FEFF 		bl	lcdRect
  76:select.c      ****   
  77:select.c      ****   //write header text
  78:select.c      ****   lcdGotoxy(menu.headerTextXpos,menu.yPos+1);
 167              		.loc 1 78 0
 168 00ce 6178     		ldrb	r1, [r4, #1]
 169 00d0 0131     		add	r1, r1, #1
 170 00d2 0906     		lsl	r1, r1, #24
 171 00d4 207B     		ldrb	r0, [r4, #12]
 172 00d6 090E     		lsr	r1, r1, #24
 173 00d8 FFF7FEFF 		bl	lcdGotoxy
  79:select.c      ****   lcdColor(menu.borderColor,menu.headerColor);
 174              		.loc 1 79 0
 175 00dc 231C     		mov	r3, r4
 176 00de 2A33     		add	r3, r3, #42
 177 00e0 1978     		ldrb	r1, [r3]
 178 00e2 2878     		ldrb	r0, [r5]
 179 00e4 FFF7FEFF 		bl	lcdColor
  80:select.c      ****   lcdPuts(menu.pHeaderText);
 180              		.loc 1 80 0
 181 00e8 A068     		ldr	r0, [r4, #8]
 182 00ea FFF7FEFF 		bl	lcdPuts
  81:select.c      ****   
  82:select.c      ****   //write choices
  83:select.c      ****   cursor = menu.initialChoice;
 183              		.loc 1 83 0
 184 00ee 6279     		ldrb	r2, [r4, #5]
 185 00f0 231C     		mov	r3, r4
 186 00f2 3033     		add	r3, r3, #48
 187 00f4 1A70     		strb	r2, [r3]
  84:select.c      ****   drawMenuCursor();
 188              		.loc 1 84 0
 189 00f6 FFF783FF 		bl	drawMenuCursor
  85:select.c      ****   
  86:select.c      ****   //dummy call just to reset previous key strokes
  87:select.c      ****   checkKey();
 190              		.loc 1 87 0
 191 00fa FFF7FEFF 		bl	checkKey
  88:select.c      **** 
  89:select.c      ****   while(1)
  90:select.c      ****   {
ARM GAS  C:\Users\KOZLOV~1\AppData\Local\Temp\ccJFtazq.s 			page 6


  91:select.c      ****     anyKey = checkKey();
  92:select.c      ****     
  93:select.c      ****     if (anyKey != KEY_NOTHING)
  94:select.c      ****     {
  95:select.c      ****       //select specific function
  96:select.c      ****       if (anyKey == KEY_CENTER)
  97:select.c      ****       {
  98:select.c      ****         return cursor;
  99:select.c      ****       }
 100:select.c      ****       
 101:select.c      ****       else if (anyKey == KEY_UP)
 102:select.c      ****       {
 103:select.c      ****         if (cursor > 0)
 104:select.c      ****           cursor--;
 105:select.c      ****         else
 106:select.c      ****           cursor = menu.noOfChoices - 1;
 107:select.c      ****         drawMenuCursor();
 108:select.c      ****       }
 109:select.c      ****       
 110:select.c      ****       else if (anyKey == KEY_DOWN)
 111:select.c      ****       {
 112:select.c      ****         if (cursor < menu.noOfChoices - 1)
 113:select.c      ****           cursor++;
 114:select.c      ****         else
 115:select.c      ****           cursor = 0;
 192              		.loc 1 115 0
 193 00fe 0025     		mov	r5, #0
 194              	.L21:
  91:select.c      ****     anyKey = checkKey();
 195              		.loc 1 91 0
 196 0100 FFF7FEFF 		bl	checkKey
 197              	.LVL5:
  93:select.c      ****     if (anyKey != KEY_NOTHING)
 198              		.loc 1 93 0
 199 0104 0028     		cmp	r0, #0
 200 0106 26D0     		beq	.L11
  96:select.c      ****       if (anyKey == KEY_CENTER)
 201              		.loc 1 96 0
 202 0108 1028     		cmp	r0, #16
 203 010a 06D1     		bne	.L12
  98:select.c      ****         return cursor;
 204              		.loc 1 98 0
 205 010c 144B     		ldr	r3, .L23
 206 010e 3033     		add	r3, r3, #48
 207 0110 1878     		ldrb	r0, [r3]
 208              	.LVL6:
 116:select.c      ****         drawMenuCursor();
 117:select.c      ****       }
 118:select.c      ****     }
 119:select.c      ****     else
 120:select.c      ****       osSleep(1);
 121:select.c      ****   }
 122:select.c      **** }
 209              		.loc 1 122 0
 210              		@ sp needed for prologue
 211 0112 72BC     		pop	{r1, r4, r5, r6}
 212 0114 08BC     		pop	{r3}
ARM GAS  C:\Users\KOZLOV~1\AppData\Local\Temp\ccJFtazq.s 			page 7


 213 0116 04B0     		add	sp, sp, #16
 214 0118 1847     		bx	r3
 215              	.LVL7:
 216              	.L12:
 101:select.c      ****       else if (anyKey == KEY_UP)
 217              		.loc 1 101 0
 218 011a 0128     		cmp	r0, #1
 219 011c 0BD1     		bne	.L13
 103:select.c      ****         if (cursor > 0)
 220              		.loc 1 103 0
 221 011e 104A     		ldr	r2, .L23
 222 0120 131C     		mov	r3, r2
 223 0122 3033     		add	r3, r3, #48
 224 0124 1978     		ldrb	r1, [r3]
 225 0126 0029     		cmp	r1, #0
 226 0128 02D0     		beq	.L14
 104:select.c      ****           cursor--;
 227              		.loc 1 104 0
 228 012a 0139     		sub	r1, r1, #1
 229 012c 1970     		strb	r1, [r3]
 230 012e 0FE0     		b	.L18
 231              	.L14:
 106:select.c      ****           cursor = menu.noOfChoices - 1;
 232              		.loc 1 106 0
 233 0130 1279     		ldrb	r2, [r2, #4]
 234 0132 013A     		sub	r2, r2, #1
 235 0134 09E0     		b	.L22
 236              	.L13:
 110:select.c      ****       else if (anyKey == KEY_DOWN)
 237              		.loc 1 110 0
 238 0136 0428     		cmp	r0, #4
 239 0138 E2D1     		bne	.L21
 112:select.c      ****         if (cursor < menu.noOfChoices - 1)
 240              		.loc 1 112 0
 241 013a 231C     		mov	r3, r4
 242 013c 3033     		add	r3, r3, #48
 243 013e 2179     		ldrb	r1, [r4, #4]
 244 0140 1A78     		ldrb	r2, [r3]
 245 0142 0139     		sub	r1, r1, #1
 246 0144 8A42     		cmp	r2, r1
 247 0146 02DA     		bge	.L17
 113:select.c      ****           cursor++;
 248              		.loc 1 113 0
 249 0148 0132     		add	r2, r2, #1
 250              	.L22:
 251 014a 1A70     		strb	r2, [r3]
 252 014c 00E0     		b	.L18
 253              	.L17:
 115:select.c      ****           cursor = 0;
 254              		.loc 1 115 0
 255 014e 1D70     		strb	r5, [r3]
 256              	.L18:
 116:select.c      ****         drawMenuCursor();
 257              		.loc 1 116 0
 258 0150 FFF756FF 		bl	drawMenuCursor
 259              	.LVL8:
 260 0154 D4E7     		b	.L21
ARM GAS  C:\Users\KOZLOV~1\AppData\Local\Temp\ccJFtazq.s 			page 8


 261              	.LVL9:
 262              	.L11:
 120:select.c      ****       osSleep(1);
 263              		.loc 1 120 0
 264 0156 0120     		mov	r0, #1
 265              	.LVL10:
 266 0158 FFF7FEFF 		bl	osSleep
 267 015c D0E7     		b	.L21
 268              	.L24:
 269 015e C046     		.align	2
 270              	.L23:
 271 0160 00000000 		.word	.LANCHOR0
 272              		.cfi_endproc
 273              	.LFE1:
 274              		.size	drawMenu, .-drawMenu
 275              		.bss
 276              		.align	2
 277              		.set	.LANCHOR0,. + 0
 278              		.type	menu, %object
 279              		.size	menu, 48
 280              	menu:
 281 0000 00000000 		.space	48
 281      00000000 
 281      00000000 
 281      00000000 
 281      00000000 
 282              		.type	cursor, %object
 283              		.size	cursor, 1
 284              	cursor:
 285 0030 00       		.space	1
 286 0031 000000   		.text
 287              	.Letext0:
 288              		.file 2 "select.h"
 289              		.file 3 "./startup/../pre_emptive_os/api/../api/general.h"
 290              		.section	.debug_info,"",%progbits
 291              	.Ldebug_info0:
 292 0000 F8010000 		.4byte	0x1f8
 293 0004 0200     		.2byte	0x2
 294 0006 00000000 		.4byte	.Ldebug_abbrev0
 295 000a 04       		.byte	0x4
 296 000b 01       		.uleb128 0x1
 297 000c 95000000 		.4byte	.LASF29
 298 0010 01       		.byte	0x1
 299 0011 62010000 		.4byte	.LASF30
 300 0015 CF000000 		.4byte	.LASF31
 301 0019 00000000 		.4byte	.Ltext0
 302 001d 64010000 		.4byte	.Letext0
 303 0021 00000000 		.4byte	.Ldebug_line0
 304 0025 02       		.uleb128 0x2
 305 0026 74553800 		.ascii	"tU8\000"
 306 002a 03       		.byte	0x3
 307 002b 47       		.byte	0x47
 308 002c 30000000 		.4byte	0x30
 309 0030 03       		.uleb128 0x3
 310 0031 01       		.byte	0x1
 311 0032 08       		.byte	0x8
 312 0033 55000000 		.4byte	.LASF0
ARM GAS  C:\Users\KOZLOV~1\AppData\Local\Temp\ccJFtazq.s 			page 9


 313 0037 03       		.uleb128 0x3
 314 0038 02       		.byte	0x2
 315 0039 07       		.byte	0x7
 316 003a 82000000 		.4byte	.LASF1
 317 003e 04       		.uleb128 0x4
 318 003f 58010000 		.4byte	.LASF2
 319 0043 03       		.byte	0x3
 320 0044 49       		.byte	0x49
 321 0045 49000000 		.4byte	0x49
 322 0049 03       		.uleb128 0x3
 323 004a 04       		.byte	0x4
 324 004b 07       		.byte	0x7
 325 004c FF000000 		.4byte	.LASF3
 326 0050 03       		.uleb128 0x3
 327 0051 01       		.byte	0x1
 328 0052 06       		.byte	0x6
 329 0053 87010000 		.4byte	.LASF4
 330 0057 03       		.uleb128 0x3
 331 0058 02       		.byte	0x2
 332 0059 05       		.byte	0x5
 333 005a BE000000 		.4byte	.LASF5
 334 005e 05       		.uleb128 0x5
 335 005f 04       		.byte	0x4
 336 0060 05       		.byte	0x5
 337 0061 696E7400 		.ascii	"int\000"
 338 0065 06       		.uleb128 0x6
 339 0066 04       		.byte	0x4
 340 0067 25000000 		.4byte	0x25
 341 006b 03       		.uleb128 0x3
 342 006c 04       		.byte	0x4
 343 006d 07       		.byte	0x7
 344 006e 70000000 		.4byte	.LASF6
 345 0072 03       		.uleb128 0x3
 346 0073 08       		.byte	0x8
 347 0074 05       		.byte	0x5
 348 0075 4A010000 		.4byte	.LASF7
 349 0079 03       		.uleb128 0x3
 350 007a 08       		.byte	0x8
 351 007b 07       		.byte	0x7
 352 007c 18010000 		.4byte	.LASF8
 353 0080 03       		.uleb128 0x3
 354 0081 04       		.byte	0x4
 355 0082 05       		.byte	0x5
 356 0083 79010000 		.4byte	.LASF9
 357 0087 03       		.uleb128 0x3
 358 0088 01       		.byte	0x1
 359 0089 08       		.byte	0x8
 360 008a 5D010000 		.4byte	.LASF10
 361 008e 07       		.uleb128 0x7
 362 008f 30       		.byte	0x30
 363 0090 02       		.byte	0x2
 364 0091 19       		.byte	0x19
 365 0092 5B010000 		.4byte	0x15b
 366 0096 08       		.uleb128 0x8
 367 0097 11000000 		.4byte	.LASF11
 368 009b 02       		.byte	0x2
 369 009c 1B       		.byte	0x1b
ARM GAS  C:\Users\KOZLOV~1\AppData\Local\Temp\ccJFtazq.s 			page 10


 370 009d 25000000 		.4byte	0x25
 371 00a1 02       		.byte	0x2
 372 00a2 23       		.byte	0x23
 373 00a3 00       		.uleb128 0
 374 00a4 08       		.uleb128 0x8
 375 00a5 82010000 		.4byte	.LASF12
 376 00a9 02       		.byte	0x2
 377 00aa 1C       		.byte	0x1c
 378 00ab 25000000 		.4byte	0x25
 379 00af 02       		.byte	0x2
 380 00b0 23       		.byte	0x23
 381 00b1 01       		.uleb128 0x1
 382 00b2 08       		.uleb128 0x8
 383 00b3 63000000 		.4byte	.LASF13
 384 00b7 02       		.byte	0x2
 385 00b8 1D       		.byte	0x1d
 386 00b9 25000000 		.4byte	0x25
 387 00bd 02       		.byte	0x2
 388 00be 23       		.byte	0x23
 389 00bf 02       		.uleb128 0x2
 390 00c0 08       		.uleb128 0x8
 391 00c1 FA000000 		.4byte	.LASF14
 392 00c5 02       		.byte	0x2
 393 00c6 1E       		.byte	0x1e
 394 00c7 25000000 		.4byte	0x25
 395 00cb 02       		.byte	0x2
 396 00cc 23       		.byte	0x23
 397 00cd 03       		.uleb128 0x3
 398 00ce 08       		.uleb128 0x8
 399 00cf 05000000 		.4byte	.LASF15
 400 00d3 02       		.byte	0x2
 401 00d4 1F       		.byte	0x1f
 402 00d5 25000000 		.4byte	0x25
 403 00d9 02       		.byte	0x2
 404 00da 23       		.byte	0x23
 405 00db 04       		.uleb128 0x4
 406 00dc 08       		.uleb128 0x8
 407 00dd A1000000 		.4byte	.LASF16
 408 00e1 02       		.byte	0x2
 409 00e2 20       		.byte	0x20
 410 00e3 25000000 		.4byte	0x25
 411 00e7 02       		.byte	0x2
 412 00e8 23       		.byte	0x23
 413 00e9 05       		.uleb128 0x5
 414 00ea 08       		.uleb128 0x8
 415 00eb 25000000 		.4byte	.LASF17
 416 00ef 02       		.byte	0x2
 417 00f0 21       		.byte	0x21
 418 00f1 65000000 		.4byte	0x65
 419 00f5 02       		.byte	0x2
 420 00f6 23       		.byte	0x23
 421 00f7 08       		.uleb128 0x8
 422 00f8 08       		.uleb128 0x8
 423 00f9 46000000 		.4byte	.LASF18
 424 00fd 02       		.byte	0x2
 425 00fe 22       		.byte	0x22
 426 00ff 25000000 		.4byte	0x25
ARM GAS  C:\Users\KOZLOV~1\AppData\Local\Temp\ccJFtazq.s 			page 11


 427 0103 02       		.byte	0x2
 428 0104 23       		.byte	0x23
 429 0105 0C       		.uleb128 0xc
 430 0106 08       		.uleb128 0x8
 431 0107 68000000 		.4byte	.LASF19
 432 010b 02       		.byte	0x2
 433 010c 23       		.byte	0x23
 434 010d 5B010000 		.4byte	0x15b
 435 0111 02       		.byte	0x2
 436 0112 23       		.byte	0x23
 437 0113 10       		.uleb128 0x10
 438 0114 08       		.uleb128 0x8
 439 0115 3E000000 		.4byte	.LASF20
 440 0119 02       		.byte	0x2
 441 011a 24       		.byte	0x24
 442 011b 25000000 		.4byte	0x25
 443 011f 02       		.byte	0x2
 444 0120 23       		.byte	0x23
 445 0121 28       		.uleb128 0x28
 446 0122 08       		.uleb128 0x8
 447 0123 2F010000 		.4byte	.LASF21
 448 0127 02       		.byte	0x2
 449 0128 25       		.byte	0x25
 450 0129 25000000 		.4byte	0x25
 451 012d 02       		.byte	0x2
 452 012e 23       		.byte	0x23
 453 012f 29       		.uleb128 0x29
 454 0130 08       		.uleb128 0x8
 455 0131 0C010000 		.4byte	.LASF22
 456 0135 02       		.byte	0x2
 457 0136 26       		.byte	0x26
 458 0137 25000000 		.4byte	0x25
 459 013b 02       		.byte	0x2
 460 013c 23       		.byte	0x23
 461 013d 2A       		.uleb128 0x2a
 462 013e 08       		.uleb128 0x8
 463 013f 31000000 		.4byte	.LASF23
 464 0143 02       		.byte	0x2
 465 0144 27       		.byte	0x27
 466 0145 25000000 		.4byte	0x25
 467 0149 02       		.byte	0x2
 468 014a 23       		.byte	0x23
 469 014b 2B       		.uleb128 0x2b
 470 014c 08       		.uleb128 0x8
 471 014d 6B010000 		.4byte	.LASF24
 472 0151 02       		.byte	0x2
 473 0152 28       		.byte	0x28
 474 0153 25000000 		.4byte	0x25
 475 0157 02       		.byte	0x2
 476 0158 23       		.byte	0x23
 477 0159 2C       		.uleb128 0x2c
 478 015a 00       		.byte	0
 479 015b 09       		.uleb128 0x9
 480 015c 65000000 		.4byte	0x65
 481 0160 6B010000 		.4byte	0x16b
 482 0164 0A       		.uleb128 0xa
 483 0165 6B000000 		.4byte	0x6b
ARM GAS  C:\Users\KOZLOV~1\AppData\Local\Temp\ccJFtazq.s 			page 12


 484 0169 05       		.byte	0x5
 485 016a 00       		.byte	0
 486 016b 04       		.uleb128 0x4
 487 016c 3B010000 		.4byte	.LASF25
 488 0170 02       		.byte	0x2
 489 0171 29       		.byte	0x29
 490 0172 8E000000 		.4byte	0x8e
 491 0176 0B       		.uleb128 0xb
 492 0177 AF000000 		.4byte	.LASF32
 493 017b 01       		.byte	0x1
 494 017c 2C       		.byte	0x2c
 495 017d 01       		.byte	0x1
 496 017e 00000000 		.4byte	.LFB0
 497 0182 6C000000 		.4byte	.LFE0
 498 0186 00000000 		.4byte	.LLST0
 499 018a 9E010000 		.4byte	0x19e
 500 018e 0C       		.uleb128 0xc
 501 018f 726F7700 		.ascii	"row\000"
 502 0193 01       		.byte	0x1
 503 0194 2E       		.byte	0x2e
 504 0195 3E000000 		.4byte	0x3e
 505 0199 20000000 		.4byte	.LLST1
 506 019d 00       		.byte	0
 507 019e 0D       		.uleb128 0xd
 508 019f 01       		.byte	0x1
 509 01a0 41010000 		.4byte	.LASF33
 510 01a4 01       		.byte	0x1
 511 01a5 43       		.byte	0x43
 512 01a6 01       		.byte	0x1
 513 01a7 25000000 		.4byte	0x25
 514 01ab 6C000000 		.4byte	.LFB1
 515 01af 64010000 		.4byte	.LFE1
 516 01b3 3F000000 		.4byte	.LLST2
 517 01b7 D9010000 		.4byte	0x1d9
 518 01bb 0E       		.uleb128 0xe
 519 01bc 1D000000 		.4byte	.LASF34
 520 01c0 01       		.byte	0x1
 521 01c1 43       		.byte	0x43
 522 01c2 6B010000 		.4byte	0x16b
 523 01c6 02       		.byte	0x2
 524 01c7 91       		.byte	0x91
 525 01c8 70       		.sleb128 -16
 526 01c9 0F       		.uleb128 0xf
 527 01ca 16000000 		.4byte	.LASF26
 528 01ce 01       		.byte	0x1
 529 01cf 45       		.byte	0x45
 530 01d0 25000000 		.4byte	0x25
 531 01d4 6B000000 		.4byte	.LLST3
 532 01d8 00       		.byte	0
 533 01d9 10       		.uleb128 0x10
 534 01da 00000000 		.4byte	.LASF27
 535 01de 01       		.byte	0x1
 536 01df 1E       		.byte	0x1e
 537 01e0 6B010000 		.4byte	0x16b
 538 01e4 05       		.byte	0x5
 539 01e5 03       		.byte	0x3
 540 01e6 00000000 		.4byte	menu
ARM GAS  C:\Users\KOZLOV~1\AppData\Local\Temp\ccJFtazq.s 			page 13


 541 01ea 10       		.uleb128 0x10
 542 01eb C8000000 		.4byte	.LASF28
 543 01ef 01       		.byte	0x1
 544 01f0 1F       		.byte	0x1f
 545 01f1 25000000 		.4byte	0x25
 546 01f5 05       		.byte	0x5
 547 01f6 03       		.byte	0x3
 548 01f7 30000000 		.4byte	cursor
 549 01fb 00       		.byte	0
 550              		.section	.debug_abbrev,"",%progbits
 551              	.Ldebug_abbrev0:
 552 0000 01       		.uleb128 0x1
 553 0001 11       		.uleb128 0x11
 554 0002 01       		.byte	0x1
 555 0003 25       		.uleb128 0x25
 556 0004 0E       		.uleb128 0xe
 557 0005 13       		.uleb128 0x13
 558 0006 0B       		.uleb128 0xb
 559 0007 03       		.uleb128 0x3
 560 0008 0E       		.uleb128 0xe
 561 0009 1B       		.uleb128 0x1b
 562 000a 0E       		.uleb128 0xe
 563 000b 11       		.uleb128 0x11
 564 000c 01       		.uleb128 0x1
 565 000d 12       		.uleb128 0x12
 566 000e 01       		.uleb128 0x1
 567 000f 10       		.uleb128 0x10
 568 0010 06       		.uleb128 0x6
 569 0011 00       		.byte	0
 570 0012 00       		.byte	0
 571 0013 02       		.uleb128 0x2
 572 0014 16       		.uleb128 0x16
 573 0015 00       		.byte	0
 574 0016 03       		.uleb128 0x3
 575 0017 08       		.uleb128 0x8
 576 0018 3A       		.uleb128 0x3a
 577 0019 0B       		.uleb128 0xb
 578 001a 3B       		.uleb128 0x3b
 579 001b 0B       		.uleb128 0xb
 580 001c 49       		.uleb128 0x49
 581 001d 13       		.uleb128 0x13
 582 001e 00       		.byte	0
 583 001f 00       		.byte	0
 584 0020 03       		.uleb128 0x3
 585 0021 24       		.uleb128 0x24
 586 0022 00       		.byte	0
 587 0023 0B       		.uleb128 0xb
 588 0024 0B       		.uleb128 0xb
 589 0025 3E       		.uleb128 0x3e
 590 0026 0B       		.uleb128 0xb
 591 0027 03       		.uleb128 0x3
 592 0028 0E       		.uleb128 0xe
 593 0029 00       		.byte	0
 594 002a 00       		.byte	0
 595 002b 04       		.uleb128 0x4
 596 002c 16       		.uleb128 0x16
 597 002d 00       		.byte	0
ARM GAS  C:\Users\KOZLOV~1\AppData\Local\Temp\ccJFtazq.s 			page 14


 598 002e 03       		.uleb128 0x3
 599 002f 0E       		.uleb128 0xe
 600 0030 3A       		.uleb128 0x3a
 601 0031 0B       		.uleb128 0xb
 602 0032 3B       		.uleb128 0x3b
 603 0033 0B       		.uleb128 0xb
 604 0034 49       		.uleb128 0x49
 605 0035 13       		.uleb128 0x13
 606 0036 00       		.byte	0
 607 0037 00       		.byte	0
 608 0038 05       		.uleb128 0x5
 609 0039 24       		.uleb128 0x24
 610 003a 00       		.byte	0
 611 003b 0B       		.uleb128 0xb
 612 003c 0B       		.uleb128 0xb
 613 003d 3E       		.uleb128 0x3e
 614 003e 0B       		.uleb128 0xb
 615 003f 03       		.uleb128 0x3
 616 0040 08       		.uleb128 0x8
 617 0041 00       		.byte	0
 618 0042 00       		.byte	0
 619 0043 06       		.uleb128 0x6
 620 0044 0F       		.uleb128 0xf
 621 0045 00       		.byte	0
 622 0046 0B       		.uleb128 0xb
 623 0047 0B       		.uleb128 0xb
 624 0048 49       		.uleb128 0x49
 625 0049 13       		.uleb128 0x13
 626 004a 00       		.byte	0
 627 004b 00       		.byte	0
 628 004c 07       		.uleb128 0x7
 629 004d 13       		.uleb128 0x13
 630 004e 01       		.byte	0x1
 631 004f 0B       		.uleb128 0xb
 632 0050 0B       		.uleb128 0xb
 633 0051 3A       		.uleb128 0x3a
 634 0052 0B       		.uleb128 0xb
 635 0053 3B       		.uleb128 0x3b
 636 0054 0B       		.uleb128 0xb
 637 0055 01       		.uleb128 0x1
 638 0056 13       		.uleb128 0x13
 639 0057 00       		.byte	0
 640 0058 00       		.byte	0
 641 0059 08       		.uleb128 0x8
 642 005a 0D       		.uleb128 0xd
 643 005b 00       		.byte	0
 644 005c 03       		.uleb128 0x3
 645 005d 0E       		.uleb128 0xe
 646 005e 3A       		.uleb128 0x3a
 647 005f 0B       		.uleb128 0xb
 648 0060 3B       		.uleb128 0x3b
 649 0061 0B       		.uleb128 0xb
 650 0062 49       		.uleb128 0x49
 651 0063 13       		.uleb128 0x13
 652 0064 38       		.uleb128 0x38
 653 0065 0A       		.uleb128 0xa
 654 0066 00       		.byte	0
ARM GAS  C:\Users\KOZLOV~1\AppData\Local\Temp\ccJFtazq.s 			page 15


 655 0067 00       		.byte	0
 656 0068 09       		.uleb128 0x9
 657 0069 01       		.uleb128 0x1
 658 006a 01       		.byte	0x1
 659 006b 49       		.uleb128 0x49
 660 006c 13       		.uleb128 0x13
 661 006d 01       		.uleb128 0x1
 662 006e 13       		.uleb128 0x13
 663 006f 00       		.byte	0
 664 0070 00       		.byte	0
 665 0071 0A       		.uleb128 0xa
 666 0072 21       		.uleb128 0x21
 667 0073 00       		.byte	0
 668 0074 49       		.uleb128 0x49
 669 0075 13       		.uleb128 0x13
 670 0076 2F       		.uleb128 0x2f
 671 0077 0B       		.uleb128 0xb
 672 0078 00       		.byte	0
 673 0079 00       		.byte	0
 674 007a 0B       		.uleb128 0xb
 675 007b 2E       		.uleb128 0x2e
 676 007c 01       		.byte	0x1
 677 007d 03       		.uleb128 0x3
 678 007e 0E       		.uleb128 0xe
 679 007f 3A       		.uleb128 0x3a
 680 0080 0B       		.uleb128 0xb
 681 0081 3B       		.uleb128 0x3b
 682 0082 0B       		.uleb128 0xb
 683 0083 27       		.uleb128 0x27
 684 0084 0C       		.uleb128 0xc
 685 0085 11       		.uleb128 0x11
 686 0086 01       		.uleb128 0x1
 687 0087 12       		.uleb128 0x12
 688 0088 01       		.uleb128 0x1
 689 0089 40       		.uleb128 0x40
 690 008a 06       		.uleb128 0x6
 691 008b 01       		.uleb128 0x1
 692 008c 13       		.uleb128 0x13
 693 008d 00       		.byte	0
 694 008e 00       		.byte	0
 695 008f 0C       		.uleb128 0xc
 696 0090 34       		.uleb128 0x34
 697 0091 00       		.byte	0
 698 0092 03       		.uleb128 0x3
 699 0093 08       		.uleb128 0x8
 700 0094 3A       		.uleb128 0x3a
 701 0095 0B       		.uleb128 0xb
 702 0096 3B       		.uleb128 0x3b
 703 0097 0B       		.uleb128 0xb
 704 0098 49       		.uleb128 0x49
 705 0099 13       		.uleb128 0x13
 706 009a 02       		.uleb128 0x2
 707 009b 06       		.uleb128 0x6
 708 009c 00       		.byte	0
 709 009d 00       		.byte	0
 710 009e 0D       		.uleb128 0xd
 711 009f 2E       		.uleb128 0x2e
ARM GAS  C:\Users\KOZLOV~1\AppData\Local\Temp\ccJFtazq.s 			page 16


 712 00a0 01       		.byte	0x1
 713 00a1 3F       		.uleb128 0x3f
 714 00a2 0C       		.uleb128 0xc
 715 00a3 03       		.uleb128 0x3
 716 00a4 0E       		.uleb128 0xe
 717 00a5 3A       		.uleb128 0x3a
 718 00a6 0B       		.uleb128 0xb
 719 00a7 3B       		.uleb128 0x3b
 720 00a8 0B       		.uleb128 0xb
 721 00a9 27       		.uleb128 0x27
 722 00aa 0C       		.uleb128 0xc
 723 00ab 49       		.uleb128 0x49
 724 00ac 13       		.uleb128 0x13
 725 00ad 11       		.uleb128 0x11
 726 00ae 01       		.uleb128 0x1
 727 00af 12       		.uleb128 0x12
 728 00b0 01       		.uleb128 0x1
 729 00b1 40       		.uleb128 0x40
 730 00b2 06       		.uleb128 0x6
 731 00b3 01       		.uleb128 0x1
 732 00b4 13       		.uleb128 0x13
 733 00b5 00       		.byte	0
 734 00b6 00       		.byte	0
 735 00b7 0E       		.uleb128 0xe
 736 00b8 05       		.uleb128 0x5
 737 00b9 00       		.byte	0
 738 00ba 03       		.uleb128 0x3
 739 00bb 0E       		.uleb128 0xe
 740 00bc 3A       		.uleb128 0x3a
 741 00bd 0B       		.uleb128 0xb
 742 00be 3B       		.uleb128 0x3b
 743 00bf 0B       		.uleb128 0xb
 744 00c0 49       		.uleb128 0x49
 745 00c1 13       		.uleb128 0x13
 746 00c2 02       		.uleb128 0x2
 747 00c3 0A       		.uleb128 0xa
 748 00c4 00       		.byte	0
 749 00c5 00       		.byte	0
 750 00c6 0F       		.uleb128 0xf
 751 00c7 34       		.uleb128 0x34
 752 00c8 00       		.byte	0
 753 00c9 03       		.uleb128 0x3
 754 00ca 0E       		.uleb128 0xe
 755 00cb 3A       		.uleb128 0x3a
 756 00cc 0B       		.uleb128 0xb
 757 00cd 3B       		.uleb128 0x3b
 758 00ce 0B       		.uleb128 0xb
 759 00cf 49       		.uleb128 0x49
 760 00d0 13       		.uleb128 0x13
 761 00d1 02       		.uleb128 0x2
 762 00d2 06       		.uleb128 0x6
 763 00d3 00       		.byte	0
 764 00d4 00       		.byte	0
 765 00d5 10       		.uleb128 0x10
 766 00d6 34       		.uleb128 0x34
 767 00d7 00       		.byte	0
 768 00d8 03       		.uleb128 0x3
ARM GAS  C:\Users\KOZLOV~1\AppData\Local\Temp\ccJFtazq.s 			page 17


 769 00d9 0E       		.uleb128 0xe
 770 00da 3A       		.uleb128 0x3a
 771 00db 0B       		.uleb128 0xb
 772 00dc 3B       		.uleb128 0x3b
 773 00dd 0B       		.uleb128 0xb
 774 00de 49       		.uleb128 0x49
 775 00df 13       		.uleb128 0x13
 776 00e0 02       		.uleb128 0x2
 777 00e1 0A       		.uleb128 0xa
 778 00e2 00       		.byte	0
 779 00e3 00       		.byte	0
 780 00e4 00       		.byte	0
 781              		.section	.debug_loc,"",%progbits
 782              	.Ldebug_loc0:
 783              	.LLST0:
 784 0000 00000000 		.4byte	.LFB0-.Ltext0
 785 0004 02000000 		.4byte	.LCFI0-.Ltext0
 786 0008 0200     		.2byte	0x2
 787 000a 7D       		.byte	0x7d
 788 000b 00       		.sleb128 0
 789 000c 02000000 		.4byte	.LCFI0-.Ltext0
 790 0010 6C000000 		.4byte	.LFE0-.Ltext0
 791 0014 0200     		.2byte	0x2
 792 0016 7D       		.byte	0x7d
 793 0017 14       		.sleb128 20
 794 0018 00000000 		.4byte	0
 795 001c 00000000 		.4byte	0
 796              	.LLST1:
 797 0020 02000000 		.4byte	.LVL0-.Ltext0
 798 0024 0E000000 		.4byte	.LVL1-.Ltext0
 799 0028 0200     		.2byte	0x2
 800 002a 30       		.byte	0x30
 801 002b 9F       		.byte	0x9f
 802 002c 0E000000 		.4byte	.LVL1-.Ltext0
 803 0030 5C000000 		.4byte	.LVL4-.Ltext0
 804 0034 0100     		.2byte	0x1
 805 0036 57       		.byte	0x57
 806 0037 00000000 		.4byte	0
 807 003b 00000000 		.4byte	0
 808              	.LLST2:
 809 003f 6C000000 		.4byte	.LFB1-.Ltext0
 810 0043 6E000000 		.4byte	.LCFI1-.Ltext0
 811 0047 0200     		.2byte	0x2
 812 0049 7D       		.byte	0x7d
 813 004a 00       		.sleb128 0
 814 004b 6E000000 		.4byte	.LCFI1-.Ltext0
 815 004f 70000000 		.4byte	.LCFI2-.Ltext0
 816 0053 0200     		.2byte	0x2
 817 0055 7D       		.byte	0x7d
 818 0056 10       		.sleb128 16
 819 0057 70000000 		.4byte	.LCFI2-.Ltext0
 820 005b 64010000 		.4byte	.LFE1-.Ltext0
 821 005f 0200     		.2byte	0x2
 822 0061 7D       		.byte	0x7d
 823 0062 24       		.sleb128 36
 824 0063 00000000 		.4byte	0
 825 0067 00000000 		.4byte	0
ARM GAS  C:\Users\KOZLOV~1\AppData\Local\Temp\ccJFtazq.s 			page 18


 826              	.LLST3:
 827 006b 04010000 		.4byte	.LVL5-.Ltext0
 828 006f 12010000 		.4byte	.LVL6-.Ltext0
 829 0073 0100     		.2byte	0x1
 830 0075 50       		.byte	0x50
 831 0076 1A010000 		.4byte	.LVL7-.Ltext0
 832 007a 53010000 		.4byte	.LVL8-1-.Ltext0
 833 007e 0100     		.2byte	0x1
 834 0080 50       		.byte	0x50
 835 0081 56010000 		.4byte	.LVL9-.Ltext0
 836 0085 58010000 		.4byte	.LVL10-.Ltext0
 837 0089 0100     		.2byte	0x1
 838 008b 50       		.byte	0x50
 839 008c 00000000 		.4byte	0
 840 0090 00000000 		.4byte	0
 841              		.section	.debug_aranges,"",%progbits
 842 0000 1C000000 		.4byte	0x1c
 843 0004 0200     		.2byte	0x2
 844 0006 00000000 		.4byte	.Ldebug_info0
 845 000a 04       		.byte	0x4
 846 000b 00       		.byte	0
 847 000c 0000     		.2byte	0
 848 000e 0000     		.2byte	0
 849 0010 00000000 		.4byte	.Ltext0
 850 0014 64010000 		.4byte	.Letext0-.Ltext0
 851 0018 00000000 		.4byte	0
 852 001c 00000000 		.4byte	0
 853              		.section	.debug_line,"",%progbits
 854              	.Ldebug_line0:
 855 0000 B0000000 		.section	.debug_str,"MS",%progbits,1
 855      02005F00 
 855      00000201 
 855      FB0E0D00 
 855      01010101 
 856              	.LASF27:
 857 0000 6D656E75 		.ascii	"menu\000"
 857      00
 858              	.LASF15:
 859 0005 6E6F4F66 		.ascii	"noOfChoices\000"
 859      43686F69 
 859      63657300 
 860              	.LASF11:
 861 0011 78506F73 		.ascii	"xPos\000"
 861      00
 862              	.LASF26:
 863 0016 616E794B 		.ascii	"anyKey\000"
 863      657900
 864              	.LASF34:
 865 001d 6E65774D 		.ascii	"newMenu\000"
 865      656E7500 
 866              	.LASF17:
 867 0025 70486561 		.ascii	"pHeaderText\000"
 867      64657254 
 867      65787400 
 868              	.LASF23:
 869 0031 63686F69 		.ascii	"choicesColor\000"
 869      63657343 
ARM GAS  C:\Users\KOZLOV~1\AppData\Local\Temp\ccJFtazq.s 			page 19


 869      6F6C6F72 
 869      00
 870              	.LASF20:
 871 003e 6267436F 		.ascii	"bgColor\000"
 871      6C6F7200 
 872              	.LASF18:
 873 0046 68656164 		.ascii	"headerTextXpos\000"
 873      65725465 
 873      78745870 
 873      6F7300
 874              	.LASF0:
 875 0055 756E7369 		.ascii	"unsigned char\000"
 875      676E6564 
 875      20636861 
 875      7200
 876              	.LASF13:
 877 0063 784C656E 		.ascii	"xLen\000"
 877      00
 878              	.LASF19:
 879 0068 7043686F 		.ascii	"pChoice\000"
 879      69636500 
 880              	.LASF6:
 881 0070 6C6F6E67 		.ascii	"long unsigned int\000"
 881      20756E73 
 881      69676E65 
 881      6420696E 
 881      7400
 882              	.LASF1:
 883 0082 73686F72 		.ascii	"short unsigned int\000"
 883      7420756E 
 883      7369676E 
 883      65642069 
 883      6E7400
 884              	.LASF29:
 885 0095 474E5520 		.ascii	"GNU C 4.6.3\000"
 885      4320342E 
 885      362E3300 
 886              	.LASF16:
 887 00a1 696E6974 		.ascii	"initialChoice\000"
 887      69616C43 
 887      686F6963 
 887      6500
 888              	.LASF32:
 889 00af 64726177 		.ascii	"drawMenuCursor\000"
 889      4D656E75 
 889      43757273 
 889      6F7200
 890              	.LASF5:
 891 00be 73686F72 		.ascii	"short int\000"
 891      7420696E 
 891      7400
 892              	.LASF28:
 893 00c8 63757273 		.ascii	"cursor\000"
 893      6F7200
 894              	.LASF31:
 895 00cf 433A5C55 		.ascii	"C:\\Users\\kozlovsky\\Downloads\\TicTac\\TicTac\000"
 895      73657273 
ARM GAS  C:\Users\KOZLOV~1\AppData\Local\Temp\ccJFtazq.s 			page 20


 895      5C6B6F7A 
 895      6C6F7673 
 895      6B795C44 
 896              	.LASF14:
 897 00fa 794C656E 		.ascii	"yLen\000"
 897      00
 898              	.LASF3:
 899 00ff 756E7369 		.ascii	"unsigned int\000"
 899      676E6564 
 899      20696E74 
 899      00
 900              	.LASF22:
 901 010c 68656164 		.ascii	"headerColor\000"
 901      6572436F 
 901      6C6F7200 
 902              	.LASF8:
 903 0118 6C6F6E67 		.ascii	"long long unsigned int\000"
 903      206C6F6E 
 903      6720756E 
 903      7369676E 
 903      65642069 
 904              	.LASF21:
 905 012f 626F7264 		.ascii	"borderColor\000"
 905      6572436F 
 905      6C6F7200 
 906              	.LASF25:
 907 013b 744D656E 		.ascii	"tMenu\000"
 907      7500
 908              	.LASF33:
 909 0141 64726177 		.ascii	"drawMenu\000"
 909      4D656E75 
 909      00
 910              	.LASF7:
 911 014a 6C6F6E67 		.ascii	"long long int\000"
 911      206C6F6E 
 911      6720696E 
 911      7400
 912              	.LASF2:
 913 0158 74553332 		.ascii	"tU32\000"
 913      00
 914              	.LASF10:
 915 015d 63686172 		.ascii	"char\000"
 915      00
 916              	.LASF30:
 917 0162 73656C65 		.ascii	"select.c\000"
 917      63742E63 
 917      00
 918              	.LASF24:
 919 016b 73656C65 		.ascii	"selectedColor\000"
 919      63746564 
 919      436F6C6F 
 919      7200
 920              	.LASF9:
 921 0179 6C6F6E67 		.ascii	"long int\000"
 921      20696E74 
 921      00
 922              	.LASF12:
ARM GAS  C:\Users\KOZLOV~1\AppData\Local\Temp\ccJFtazq.s 			page 21


 923 0182 79506F73 		.ascii	"yPos\000"
 923      00
 924              	.LASF4:
 925 0187 7369676E 		.ascii	"signed char\000"
 925      65642063 
 925      68617200 
 926              		.ident	"GCC: (GNU) 4.6.3"
ARM GAS  C:\Users\KOZLOV~1\AppData\Local\Temp\ccJFtazq.s 			page 22


DEFINED SYMBOLS
                            *ABS*:00000000 select.c
C:\Users\KOZLOV~1\AppData\Local\Temp\ccJFtazq.s:6      .text:00000000 $t
C:\Users\KOZLOV~1\AppData\Local\Temp\ccJFtazq.s:10     .text:00000000 drawMenuCursor
C:\Users\KOZLOV~1\AppData\Local\Temp\ccJFtazq.s:92     .text:00000064 $d
C:\Users\KOZLOV~1\AppData\Local\Temp\ccJFtazq.s:97     .text:0000006c $t
C:\Users\KOZLOV~1\AppData\Local\Temp\ccJFtazq.s:102    .text:0000006c drawMenu
C:\Users\KOZLOV~1\AppData\Local\Temp\ccJFtazq.s:271    .text:00000160 $d
C:\Users\KOZLOV~1\AppData\Local\Temp\ccJFtazq.s:276    .bss:00000000 $d
C:\Users\KOZLOV~1\AppData\Local\Temp\ccJFtazq.s:280    .bss:00000000 menu
C:\Users\KOZLOV~1\AppData\Local\Temp\ccJFtazq.s:284    .bss:00000030 cursor
                     .debug_frame:00000010 $d

UNDEFINED SYMBOLS
lcdGotoxy
lcdColor
lcdPuts
lcdRect
checkKey
osSleep
