ARM GAS  C:\Users\KOZLOV~1\AppData\Local\Temp\ccJFtazq.s 			page 1


   1              		.code	16
   2              		.file	"select.c"
   3              		.text
   4              	.Ltext0:
   5              		.cfi_sections	.debug_frame
   6              		.align	1
   7              		.code	16
   8              		.thumb_func
   9              		.type	drawMenuCursor, %function
  10              	drawMenuCursor:
  11              	.LFB0:
  12              		.file 1 "select.c"
   1:select.c      **** /******************************************************************************
   2:select.c      ****  *
   3:select.c      ****  * Copyright:
   4:select.c      ****  *    (C) 2006 Embedded Artists AB
   5:select.c      ****  *
   6:select.c      ****  * File:
   7:select.c      ****  *    select.c
   8:select.c      ****  *
   9:select.c      ****  * Description:
  10:select.c      ****  *    Implements a general menu handling.
  11:select.c      ****  *
  12:select.c      ****  *****************************************************************************/
  13:select.c      **** 
  14:select.c      **** /******************************************************************************
  15:select.c      ****  * Includes
  16:select.c      ****  *****************************************************************************/
  17:select.c      **** #include "../pre_emptive_os/api/osapi.h"
  18:select.c      **** #include "../pre_emptive_os/api/general.h"
  19:select.c      **** #include <printf_P.h>
  20:select.c      **** #include <ea_init.h>
  21:select.c      **** #include <stdlib.h>
  22:select.c      **** #include "lcd.h"
  23:select.c      **** #include "key.h"
  24:select.c      **** #include "select.h"
  25:select.c      **** 
  26:select.c      **** 
  27:select.c      **** /*****************************************************************************
  28:select.c      ****  * Local variables
  29:select.c      ****  ****************************************************************************/
  30:select.c      **** static tMenu menu;
  31:select.c      **** static tU8 cursor;
  32:select.c      **** 
  33:select.c      **** 
  34:select.c      **** /*****************************************************************************
  35:select.c      ****  *
  36:select.c      ****  * Description:
  37:select.c      ****  *    Draw cursor in main menu
  38:select.c      ****  *
  39:select.c      ****  * Params:
  40:select.c      ****  *    [in] cursor - Cursor positions
  41:select.c      ****  *
  42:select.c      ****  ****************************************************************************/
  43:select.c      **** static void
  44:select.c      **** drawMenuCursor(void)
  45:select.c      **** {
ARM GAS  C:\Users\KOZLOV~1\AppData\Local\Temp\ccJFtazq.s 			page 2


  13              		.loc 1 45 0
  14              		.cfi_startproc
  15 0000 F0B5     		push	{r4, r5, r6, r7, lr}
  16              	.LCFI0:
  17              		.cfi_def_cfa_offset 20
  18              		.cfi_offset 4, -20
  19              		.cfi_offset 5, -16
  20              		.cfi_offset 6, -12
  21              		.cfi_offset 7, -8
  22              		.cfi_offset 14, -4
  23              	.LVL0:
  46:select.c      ****   tU32 row;
  47:select.c      **** 
  48:select.c      ****   for(row=0; row<menu.noOfChoices; row++)
  24              		.loc 1 48 0
  25 0002 184C     		ldr	r4, .L7
  26 0004 0025     		mov	r5, #0
  27 0006 261C     		mov	r6, r4
  28 0008 1036     		add	r6, r6, #16
  29 000a 2F1C     		mov	r7, r5
  30 000c 23E0     		b	.L2
  31              	.LVL1:
  32              	.L5:
  49:select.c      ****   {
  50:select.c      ****     lcdGotoxy(menu.xPos+4,menu.yPos+17+(14*row));
  33              		.loc 1 50 0
  34 000e 6178     		ldrb	r1, [r4, #1]
  35 0010 2078     		ldrb	r0, [r4]
  36 0012 1131     		add	r1, r1, #17
  37 0014 0430     		add	r0, r0, #4
  38 0016 6918     		add	r1, r5, r1
  39 0018 0006     		lsl	r0, r0, #24
  40 001a 0906     		lsl	r1, r1, #24
  41 001c 000E     		lsr	r0, r0, #24
  42 001e 090E     		lsr	r1, r1, #24
  43 0020 FFF7FEFF 		bl	lcdGotoxy
  51:select.c      ****     if(row == cursor)
  44              		.loc 1 51 0
  45 0024 231C     		mov	r3, r4
  46 0026 3033     		add	r3, r3, #48
  47 0028 1A78     		ldrb	r2, [r3]
  48 002a 231C     		mov	r3, r4
  49 002c 2833     		add	r3, r3, #40
  52:select.c      ****       lcdColor(menu.bgColor+1,menu.selectedColor);
  50              		.loc 1 52 0
  51 002e 1878     		ldrb	r0, [r3]
  51:select.c      ****     if(row == cursor)
  52              		.loc 1 51 0
  53 0030 9742     		cmp	r7, r2
  54 0032 05D1     		bne	.L3
  55              		.loc 1 52 0
  56 0034 0130     		add	r0, r0, #1
  57 0036 0006     		lsl	r0, r0, #24
  58 0038 231C     		mov	r3, r4
  59 003a 000E     		lsr	r0, r0, #24
  60 003c 2C33     		add	r3, r3, #44
  61 003e 00E0     		b	.L6
ARM GAS  C:\Users\KOZLOV~1\AppData\Local\Temp\ccJFtazq.s 			page 3


  62              	.L3:
  53:select.c      ****     else
  54:select.c      ****       lcdColor(menu.bgColor,menu.choicesColor);
  63              		.loc 1 54 0
  64 0040 094B     		ldr	r3, .L7+4
  65              	.L6:
  66 0042 1978     		ldrb	r1, [r3]
  67 0044 FFF7FEFF 		bl	lcdColor
  55:select.c      ****     
  56:select.c      ****     lcdPuts(menu.pChoice[row]);
  68              		.loc 1 56 0
  69 0048 01CE     		ldmia	r6!, {r0}
  70 004a FFF7FEFF 		bl	lcdPuts
  48:select.c      ****   for(row=0; row<menu.noOfChoices; row++)
  71              		.loc 1 48 0
  72 004e 0E35     		add	r5, r5, #14
  73 0050 2D06     		lsl	r5, r5, #24
  74 0052 0137     		add	r7, r7, #1
  75              	.LVL2:
  76 0054 2D0E     		lsr	r5, r5, #24
  77              	.LVL3:
  78              	.L2:
  48:select.c      ****   for(row=0; row<menu.noOfChoices; row++)
  79              		.loc 1 48 0 is_stmt 0 discriminator 1
  80 0056 2379     		ldrb	r3, [r4, #4]
  81 0058 9F42     		cmp	r7, r3
  82 005a D8D3     		bcc	.L5
  57:select.c      ****   }
  58:select.c      **** }
  83              		.loc 1 58 0 is_stmt 1
  84              		@ sp needed for prologue
  85              	.LVL4:
  86 005c F0BC     		pop	{r4, r5, r6, r7}
  87 005e 01BC     		pop	{r0}
  88 0060 0047     		bx	r0
  89              	.L8:
  90 0062 C046     		.align	2
  91              	.L7:
  92 0064 00000000 		.word	.LANCHOR0
  93 0068 2B000000 		.word	.LANCHOR0+43
  94              		.cfi_endproc
  95              	.LFE0:
  96              		.size	drawMenuCursor, .-drawMenuCursor
  97              		.align	1
  98              		.global	drawMenu
  99              		.code	16
 100              		.thumb_func
 101              		.type	drawMenu, %function
 102              	drawMenu:
 103              	.LFB1:
  59:select.c      **** 
  60:select.c      **** /*****************************************************************************
  61:select.c      ****  *
  62:select.c      ****  * Description:
  63:select.c      ****  *    Implements a menu
  64:select.c      ****  *    
  65:select.c      ****  ****************************************************************************/
ARM GAS  C:\Users\KOZLOV~1\AppData\Local\Temp\ccJFtazq.s 			page 4


  66:select.c      **** tU8
  67:select.c      **** drawMenu(tMenu newMenu)
  68:select.c      **** {
 104              		.loc 1 68 0
 105              		.cfi_startproc
 106 006c 84B0     		sub	sp, sp, #16
 107              	.LCFI1:
 108              		.cfi_def_cfa_offset 16
 109 006e 71B5     		push	{r0, r4, r5, r6, lr}
 110              	.LCFI2:
 111              		.cfi_def_cfa_offset 36
 112              		.cfi_offset 0, -36
 113              		.cfi_offset 4, -32
 114              		.cfi_offset 5, -28
 115              		.cfi_offset 6, -24
 116              		.cfi_offset 14, -20
  69:select.c      ****   tU8 anyKey;
  70:select.c      ****   
  71:select.c      ****   menu = newMenu;
 117              		.loc 1 71 0
 118 0070 3B4C     		ldr	r4, .L23
  68:select.c      **** {
 119              		.loc 1 68 0
 120 0072 0792     		str	r2, [sp, #28]
 121 0074 0893     		str	r3, [sp, #32]
 122 0076 0590     		str	r0, [sp, #20]
 123 0078 0691     		str	r1, [sp, #24]
 124              		.loc 1 71 0
 125 007a 231C     		mov	r3, r4
 126 007c 05AA     		add	r2, sp, #20
 127 007e 23CA     		ldmia	r2!, {r0, r1, r5}
 128 0080 23C3     		stmia	r3!, {r0, r1, r5}
 129 0082 23CA     		ldmia	r2!, {r0, r1, r5}
 130 0084 23C3     		stmia	r3!, {r0, r1, r5}
 131 0086 23CA     		ldmia	r2!, {r0, r1, r5}
 132 0088 23C3     		stmia	r3!, {r0, r1, r5}
 133 008a 23CA     		ldmia	r2!, {r0, r1, r5}
 134 008c 23C3     		stmia	r3!, {r0, r1, r5}
  72:select.c      ****   
  73:select.c      ****   //draw boarder
  74:select.c      ****   lcdRect(menu.xPos, menu.yPos, menu.xLen, menu.yLen, menu.borderColor);
 135              		.loc 1 74 0
 136 008e 251C     		mov	r5, r4
 137 0090 2935     		add	r5, r5, #41
 138 0092 2E78     		ldrb	r6, [r5]
 139 0094 2078     		ldrb	r0, [r4]
 140 0096 6178     		ldrb	r1, [r4, #1]
 141 0098 A278     		ldrb	r2, [r4, #2]
 142 009a E378     		ldrb	r3, [r4, #3]
 143 009c 0096     		str	r6, [sp]
 144 009e FFF7FEFF 		bl	lcdRect
  75:select.c      ****   lcdRect(menu.xPos+1, menu.yPos+16, menu.xLen-2, menu.yLen-17, menu.bgColor);
 145              		.loc 1 75 0
 146 00a2 2078     		ldrb	r0, [r4]
 147 00a4 6178     		ldrb	r1, [r4, #1]
 148 00a6 A278     		ldrb	r2, [r4, #2]
 149 00a8 E378     		ldrb	r3, [r4, #3]
ARM GAS  C:\Users\KOZLOV~1\AppData\Local\Temp\ccJFtazq.s 			page 5


 150 00aa 261C     		mov	r6, r4
 151 00ac 0130     		add	r0, r0, #1
 152 00ae 1031     		add	r1, r1, #16
 153 00b0 023A     		sub	r2, r2, #2
 154 00b2 113B     		sub	r3, r3, #17
 155 00b4 2836     		add	r6, r6, #40
 156 00b6 3678     		ldrb	r6, [r6]
 157 00b8 0006     		lsl	r0, r0, #24
 158 00ba 0906     		lsl	r1, r1, #24
 159 00bc 1206     		lsl	r2, r2, #24
 160 00be 1B06     		lsl	r3, r3, #24
 161 00c0 120E     		lsr	r2, r2, #24
 162 00c2 1B0E     		lsr	r3, r3, #24
 163 00c4 000E     		lsr	r0, r0, #24
 164 00c6 090E     		lsr	r1, r1, #24
 165 00c8 0096     		str	r6, [sp]
 166 00ca FFF7FEFF 		bl	lcdRect
  76:select.c      ****   
  77:select.c      ****   //write header text
  78:select.c      ****   lcdGotoxy(menu.headerTextXpos,menu.yPos+1);
 167              		.loc 1 78 0
 168 00ce 6178     		ldrb	r1, [r4, #1]
 169 00d0 0131     		add	r1, r1, #1
 170 00d2 0906     		lsl	r1, r1, #24
 171 00d4 207B     		ldrb	r0, [r4, #12]
 172 00d6 090E     		lsr	r1, r1, #24
 173 00d8 FFF7FEFF 		bl	lcdGotoxy
  79:select.c      ****   lcdColor(menu.borderColor,menu.headerColor);
 174              		.loc 1 79 0
 175 00dc 231C     		mov	r3, r4
 176 00de 2A33     		add	r3, r3, #42
 177 00e0 1978     		ldrb	r1, [r3]
 178 00e2 2878     		ldrb	r0, [r5]
 179 00e4 FFF7FEFF 		bl	lcdColor
  80:select.c      ****   lcdPuts(menu.pHeaderText);
 180              		.loc 1 80 0
 181 00e8 A068     		ldr	r0, [r4, #8]
 182 00ea FFF7FEFF 		bl	lcdPuts
  81:select.c      ****   
  82:select.c      ****   //write choices
  83:select.c      ****   cursor = menu.initialChoice;
 183              		.loc 1 83 0
 184 00ee 6279     		ldrb	r2, [r4, #5]
 185 00f0 231C     		mov	r3, r4
 186 00f2 3033     		add	r3, r3, #48
 187 00f4 1A70     		strb	r2, [r3]
  84:select.c      ****   drawMenuCursor();
 188              		.loc 1 84 0
 189 00f6 FFF783FF 		bl	drawMenuCursor
  85:select.c      ****   
  86:select.c      ****   //dummy call just to reset previous key strokes
  87:select.c      ****   checkKey();
 190              		.loc 1 87 0
 191 00fa FFF7FEFF 		bl	checkKey
  88:select.c      **** 
  89:select.c      ****   while(1)
  90:select.c      ****   {
ARM GAS  C:\Users\KOZLOV~1\AppData\Local\Temp\ccJFtazq.s 			page 6


  91:select.c      ****     anyKey = checkKey();
  92:select.c      ****     
  93:select.c      ****     if (anyKey != KEY_NOTHING)
  94:select.c      ****     {
  95:select.c      ****       //select specific function
  96:select.c      ****       if (anyKey == KEY_CENTER)
  97:select.c      ****       {
  98:select.c      ****         return cursor;
  99:select.c      ****       }
 100:select.c      ****       
 101:select.c      ****       else if (anyKey == KEY_UP)
 102:select.c      ****       {
 103:select.c      ****         if (cursor > 0)
 104:select.c      ****           cursor--;
 105:select.c      ****         else
 106:select.c      ****           cursor = menu.noOfChoices - 1;
 107:select.c      ****         drawMenuCursor();
 108:select.c      ****       }
 109:select.c      ****       
 110:select.c      ****       else if (anyKey == KEY_DOWN)
 111:select.c      ****       {
 112:select.c      ****         if (cursor < menu.noOfChoices - 1)
 113:select.c      ****           cursor++;
 114:select.c      ****         else
 115:select.c      ****           cursor = 0;
 192              		.loc 1 115 0
 193 00fe 0025     		mov	r5, #0
 194              	.L21:
  91:select.c      ****     anyKey = checkKey();
 195              		.loc 1 91 0
 196 0100 FFF7FEFF 		bl	checkKey
 197              	.LVL5:
  93:select.c      ****     if (anyKey != KEY_NOTHING)
 198              		.loc 1 93 0
 199 0104 0028     		cmp	r0, #0
 200 0106 26D0     		beq	.L11
  96:select.c      ****       if (anyKey == KEY_CENTER)
 201              		.loc 1 96 0
 202 0108 1028     		cmp	r0, #16
 203 010a 06D1     		bne	.L12
  98:select.c      ****         return cursor;
 204              		.loc 1 98 0
 205 010c 144B     		ldr	r3, .L23
 206 010e 3033     		add	r3, r3, #48
 207 0110 1878     		ldrb	r0, [r3]
 208              	.LVL6:
 116:select.c      ****         drawMenuCursor();
 117:select.c      ****       }
 118:select.c      ****     }
 119:select.c      ****     else
 120:select.c      ****       osSleep(1);
 121:select.c      ****   }
 122:select.c      **** }
 209              		.loc 1 122 0
 210              		@ sp needed for prologue
 211 0112 72BC     		pop	{r1, r4, r5, r6}
 212 0114 08BC     		pop	{r3}
ARM GAS  C:\Users\KOZLOV~1\AppData\Local\Temp\ccJFtazq.s 			page 7


 213 0116 04B0     		add	sp, sp, #16
 214 0118 1847     		bx	r3
 215              	.LVL7:
 216              	.L12:
 101:select.c      ****       else if (anyKey == KEY_UP)
 217              		.loc 1 101 0
 218 011a 0128     		cmp	r0, #1
 219 011c 0BD1     		bne	.L13
 103:select.c      ****         if (cursor > 0)
 220              		.loc 1 103 0
 221 011e 104A     		ldr	r2, .L23
 222 0120 131C     		mov	r3, r2
 223 0122 3033     		add	r3, r3, #48
 224 0124 1978     		ldrb	r1, [r3]
 225 0126 0029     		cmp	r1, #0
 226 0128 02D0     		beq	.L14
 104:select.c      ****           cursor--;
 227              		.loc 1 104 0
 228 012a 0139     		sub	r1, r1, #1
 229 012c 1970     		strb	r1, [r3]
 230 012e 0FE0     		b	.L18
 231              	.L14:
 106:select.c      ****           cursor = menu.noOfChoices - 1;
 232              		.loc 1 106 0
 233 0130 1279     		ldrb	r2, [r2, #4]
 234 0132 013A     		sub	r2, r2, #1
 235 0134 09E0     		b	.L22
 236              	.L13:
 110:select.c      ****       else if (anyKey == KEY_DOWN)
 237              		.loc 1 110 0
 238 0136 0428     		cmp	r0, #4
 239 0138 E2D1     		bne	.L21
 112:select.c      ****         if (cursor < menu.noOfChoices - 1)
 240              		.loc 1 112 0
 241 013a 231C     		mov	r3, r4
 242 013c 3033     		add	r3, r3, #48
 243 013e 2179     		ldrb	r1, [r4, #4]
 244 0140 1A78     		ldrb	r2, [r3]
 245 0142 0139     		sub	r1, r1, #1
 246 0144 8A42     		cmp	r2, r1
 247 0146 02DA     		bge	.L17
 113:select.c      ****           cursor++;
 248              		.loc 1 113 0
 249 0148 0132     		add	r2, r2, #1
 250              	.L22:
 251 014a 1A70     		strb	r2, [r3]
 252 014c 00E0     		b	.L18
 253              	.L17:
 115:select.c      ****           cursor = 0;
 254              		.loc 1 115 0
 255 014e 1D70     		strb	r5, [r3]
 256              	.L18:
 116:select.c      ****         drawMenuCursor();
 257              		.loc 1 116 0
 258 0150 FFF756FF 		bl	drawMenuCursor
 259              	.LVL8:
 260 0154 D4E7     		b	.L21
ARM GAS  C:\Users\KOZLOV~1\AppData\Local\Temp\ccJFtazq.s 			page 8


 261              	.LVL9:
 262              	.L11:
 120:select.c      ****       osSleep(1);
 263              		.loc 1 120 0
 264 0156 0120     		mov	r0, #1
 265              	.LVL10:
 266 0158 FFF7FEFF 		bl	osSleep
 267 015c D0E7     		b	.L21
 268              	.L24:
 269 015e C046     		.align	2
 270              	.L23:
 271 0160 00000000 		.word	.LANCHOR0
 272              		.cfi_endproc
 273              	.LFE1:
 274              		.size	drawMenu, .-drawMenu
 275              		.bss
 276              		.align	2
 277              		.set	.LANCHOR0,. + 0
 278              		.type	menu, %object
 279              		.size	menu, 48
 280              	menu:
 281 0000 00000000 		.space	48
 281      00000000 
 281      00000000 
 281      00000000 
 281      00000000 
 282              		.type	cursor, %object
 283              		.size	cursor, 1
 284              	cursor:
 285 0030 00       		.space	1
 286 0031 000000   		.text
 287              	.Letext0:
 288              		.file 2 "select.h"
 289              		.file 3 "./startup/../pre_emptive_os/api/../api/general.h"