ARM GAS  C:\Users\KOZLOV~1\AppData\Local\Temp\ccSDYAug.s 			page 1


   1              		.code	16
   2              		.file	"snake.c"
   3              		.text
   4              	.Ltext0:
   5              		.cfi_sections	.debug_frame
   6              		.align	1
   7              		.code	16
   8              		.thumb_func
   9              		.type	addSegment, %function
  10              	addSegment:
  11              	.LFB3:
  12              		.file 1 "snake.c"
   1:snake.c       **** /******************************************************************************
   2:snake.c       ****  *
   3:snake.c       ****  * Copyright:
   4:snake.c       ****  *    (C) 2006 Embedded Artists AB
   5:snake.c       ****  *
   6:snake.c       ****  * File:
   7:snake.c       ****  *    snake.c
   8:snake.c       ****  *
   9:snake.c       ****  * Description:
  10:snake.c       ****  *    Implements the snake game.
  11:snake.c       ****  *
  12:snake.c       ****  *****************************************************************************/
  13:snake.c       **** 
  14:snake.c       **** /******************************************************************************
  15:snake.c       ****  * Includes
  16:snake.c       ****  *****************************************************************************/
  17:snake.c       **** #include "../pre_emptive_os/api/osapi.h"
  18:snake.c       **** #include "../pre_emptive_os/api/general.h"
  19:snake.c       **** #include <printf_P.h>
  20:snake.c       **** #include <ea_init.h>
  21:snake.c       **** #include <stdlib.h>
  22:snake.c       **** #include "lcd.h"
  23:snake.c       **** #include "key.h"
  24:snake.c       **** #include "select.h"
  25:snake.c       **** 
  26:snake.c       **** 
  27:snake.c       **** /******************************************************************************
  28:snake.c       ****  * Typedefs and defines
  29:snake.c       ****  *****************************************************************************/
  30:snake.c       **** #define MAXROW 20
  31:snake.c       **** #define MAXCOL 31
  32:snake.c       **** 
  33:snake.c       **** #define SNAKE_START_COL 15
  34:snake.c       **** #define SNAKE_START_ROW  7
  35:snake.c       **** #define PAUSE_LENGTH     2
  36:snake.c       **** 
  37:snake.c       **** 
  38:snake.c       **** /*****************************************************************************
  39:snake.c       ****  * Local prototypes
  40:snake.c       ****  ****************************************************************************/
  41:snake.c       **** static void showScore();
  42:snake.c       **** static void addSegment();
  43:snake.c       **** static void setupLevel();
  44:snake.c       **** static void gotoxy(tU8 x, tU8 y, tU8 color);
  45:snake.c       **** 
ARM GAS  C:\Users\KOZLOV~1\AppData\Local\Temp\ccSDYAug.s 			page 2


  46:snake.c       **** 
  47:snake.c       **** /*****************************************************************************
  48:snake.c       ****  * Local variables
  49:snake.c       ****  ****************************************************************************/
  50:snake.c       **** static tS32  score;
  51:snake.c       **** static tS32  snakeLength;
  52:snake.c       **** static tS32  speed;
  53:snake.c       **** static tS32  obstacles;
  54:snake.c       **** static tS32  level;
  55:snake.c       **** static tBool firstPress;
  56:snake.c       **** static tS32  high_score = 0;
  57:snake.c       **** static tS8   screenGrid[MAXROW][MAXCOL];
  58:snake.c       **** static tS8   direction = KEY_RIGHT;
  59:snake.c       **** 
  60:snake.c       **** struct snakeSegment
  61:snake.c       **** {
  62:snake.c       ****   tS32 row;
  63:snake.c       ****   tS32 col;
  64:snake.c       **** } snake[100];
  65:snake.c       **** 
  66:snake.c       **** 
  67:snake.c       **** /*****************************************************************************
  68:snake.c       ****  * External variables
  69:snake.c       ****  ****************************************************************************/
  70:snake.c       **** extern volatile tU32 ms;
  71:snake.c       **** 
  72:snake.c       **** 
  73:snake.c       **** /*****************************************************************************
  74:snake.c       ****  *
  75:snake.c       ****  * Description:
  76:snake.c       ****  *    Implement Snake game
  77:snake.c       ****  *
  78:snake.c       ****  ****************************************************************************/
  79:snake.c       **** void playSnake(void)
  80:snake.c       **** {
  81:snake.c       ****   tU8 keypress;
  82:snake.c       ****   tU8 done = FALSE;
  83:snake.c       **** 
  84:snake.c       ****   //game loop
  85:snake.c       ****   do
  86:snake.c       ****   {
  87:snake.c       ****     obstacles = 4;
  88:snake.c       ****     level     = 1;
  89:snake.c       ****     score     = 0;
  90:snake.c       ****     speed     = 14;
  91:snake.c       ****     srand(ms);        //Ensure random seed initiated
  92:snake.c       ****     setupLevel();
  93:snake.c       **** 
  94:snake.c       ****     //main loop
  95:snake.c       ****     do
  96:snake.c       ****     {
  97:snake.c       ****       tS32 i;
  98:snake.c       ****       
  99:snake.c       ****       //delay between snake moves
 100:snake.c       ****       osSleep(speed * PAUSE_LENGTH);
 101:snake.c       ****       
 102:snake.c       ****       //check if key press
ARM GAS  C:\Users\KOZLOV~1\AppData\Local\Temp\ccSDYAug.s 			page 3


 103:snake.c       ****       keypress = checkKey();
 104:snake.c       ****       if (keypress != KEY_NOTHING)
 105:snake.c       ****       {
 106:snake.c       ****         if ((keypress == KEY_UP)    ||
 107:snake.c       ****             (keypress == KEY_RIGHT) ||
 108:snake.c       ****             (keypress == KEY_DOWN)  ||
 109:snake.c       ****             (keypress == KEY_LEFT))
 110:snake.c       ****           direction = keypress;
 111:snake.c       ****       }
 112:snake.c       **** 
 113:snake.c       ****       //add a segment to the end of the snake
 114:snake.c       ****       addSegment();
 115:snake.c       **** 
 116:snake.c       ****       //removed last segment of snake
 117:snake.c       ****       gotoxy(snake[0].col, snake[0].row, 0);
 118:snake.c       **** 
 119:snake.c       ****       //remove last segment from the array
 120:snake.c       ****       for(i=1; i<=snakeLength; i++)
 121:snake.c       ****         snake[i-1] = snake[i];
 122:snake.c       **** 
 123:snake.c       ****       //display snake in yellow
 124:snake.c       ****       for (i=0; i<=snakeLength; i++)
 125:snake.c       ****         gotoxy(snake[i].col, snake[i].row, 0xfc);
 126:snake.c       **** 
 127:snake.c       ****       //if first press on each level, pause until a key is pressed
 128:snake.c       ****       if (firstPress == TRUE)
 129:snake.c       ****       {
 130:snake.c       ****         while(KEY_NOTHING == checkKey())
 131:snake.c       ****           ;
 132:snake.c       ****         firstPress = FALSE;
 133:snake.c       ****       }
 134:snake.c       **** 
 135:snake.c       ****       /* collision detection - walls (bad!) */
 136:snake.c       ****       if ((snake[snakeLength-1].row >= MAXROW) || (snake[snakeLength-1].row < 0) ||
 137:snake.c       ****           (snake[snakeLength-1].col >= MAXCOL) || (snake[snakeLength-1].col < 0) ||
 138:snake.c       **** 
 139:snake.c       ****       /* collision detection - obstacles (bad!) */
 140:snake.c       ****           (screenGrid[snake[snakeLength-1].row][snake[snakeLength-1].col] == 'x'))
 141:snake.c       ****         keypress = KEY_CENTER;
 142:snake.c       **** 
 143:snake.c       ****       //collision detection - snake (bad!)
 144:snake.c       ****       for (i=0; i<snakeLength-1; i++)
 145:snake.c       ****         if ((snake[snakeLength-1].row) == (snake[i].row) &&
 146:snake.c       ****             (snake[snakeLength-1].col) == (snake[i].col))
 147:snake.c       ****         {
 148:snake.c       ****           keypress = KEY_CENTER;   //exit loop - game over
 149:snake.c       ****           break;
 150:snake.c       ****         }
 151:snake.c       **** 
 152:snake.c       ****       //collision detection - food (good!)
 153:snake.c       ****       if (screenGrid[snake[snakeLength-1].row][snake[snakeLength-1].col] == '.')
 154:snake.c       ****       {
 155:snake.c       ****         //increase score and length of snake
 156:snake.c       ****         score += snakeLength * obstacles;
 157:snake.c       ****         showScore();
 158:snake.c       ****         snakeLength++;
 159:snake.c       ****         addSegment();
ARM GAS  C:\Users\KOZLOV~1\AppData\Local\Temp\ccSDYAug.s 			page 4


 160:snake.c       **** 
 161:snake.c       ****         //if length of snake reaches certain size, onto next level
 162:snake.c       ****         if (snakeLength == (level + 3) * 2)
 163:snake.c       ****         {
 164:snake.c       ****           score += level * 1000;
 165:snake.c       ****           obstacles += 2;          //add obstacles
 166:snake.c       ****           level++;
 167:snake.c       ****           
 168:snake.c       ****           //check if time to inclrease speed (every 5 levels)
 169:snake.c       ****           if ((level % 5 == 0) && (speed > 1))
 170:snake.c       ****             speed--;
 171:snake.c       **** 
 172:snake.c       ****           //draw next level
 173:snake.c       ****           setupLevel();
 174:snake.c       ****         }
 175:snake.c       ****       }
 176:snake.c       ****     } while (keypress != KEY_CENTER);
 177:snake.c       ****     
 178:snake.c       ****     //game over message
 179:snake.c       ****     if (score > high_score)
 180:snake.c       ****       high_score = score;
 181:snake.c       ****     showScore();
 182:snake.c       **** 
 183:snake.c       ****     {
 184:snake.c       ****       tMenu menu;
 185:snake.c       ****         
 186:snake.c       ****       menu.xPos = 10;
 187:snake.c       ****       menu.yPos = 40;
 188:snake.c       ****       menu.xLen = 6+(12*8);
 189:snake.c       ****       menu.yLen = 4*14;
 190:snake.c       ****       menu.noOfChoices = 2;
 191:snake.c       ****       menu.initialChoice = 0;
 192:snake.c       ****       menu.pHeaderText = "Game over!";
 193:snake.c       ****       menu.headerTextXpos = 20;
 194:snake.c       ****       menu.pChoice[0] = "Restart game";
 195:snake.c       ****       menu.pChoice[1] = "End game";
 196:snake.c       ****       menu.bgColor       = 0;
 197:snake.c       ****       menu.borderColor   = 0x6d;
 198:snake.c       ****       menu.headerColor   = 0;
 199:snake.c       ****       menu.choicesColor  = 0xfd;
 200:snake.c       ****       menu.selectedColor = 0xe0;
 201:snake.c       ****         
 202:snake.c       ****       switch(drawMenu(menu))
 203:snake.c       ****       {
 204:snake.c       ****         case 0: done = FALSE; break;  //Restart game
 205:snake.c       ****         case 1: done = TRUE; break;   //End game
 206:snake.c       ****         default: break;
 207:snake.c       ****       }
 208:snake.c       ****     }
 209:snake.c       **** 
 210:snake.c       ****   } while (done == FALSE);
 211:snake.c       **** }
 212:snake.c       **** 
 213:snake.c       **** 
 214:snake.c       **** /*****************************************************************************
 215:snake.c       ****  *
 216:snake.c       ****  * Description:
ARM GAS  C:\Users\KOZLOV~1\AppData\Local\Temp\ccSDYAug.s 			page 5


 217:snake.c       ****  *    Initialize one level of the game. Draw game board.
 218:snake.c       ****  *
 219:snake.c       ****  ****************************************************************************/
 220:snake.c       **** void setupLevel()
 221:snake.c       **** {
 222:snake.c       ****   tS32 row, col, i;
 223:snake.c       **** 
 224:snake.c       ****   //clear screen
 225:snake.c       ****   lcdColor(0,0xe0);
 226:snake.c       ****   lcdClrscr();
 227:snake.c       **** 
 228:snake.c       ****   //draw frame
 229:snake.c       ****   lcdGotoxy(42,0);
 230:snake.c       ****   lcdPuts("Snake");
 231:snake.c       **** 
 232:snake.c       ****   //draw game board rectangle
 233:snake.c       ****   lcdRect(0, 14, (4*MAXCOL)+4, (4*MAXROW)+4, 3);
 234:snake.c       ****   lcdRect(2, 16, 4*MAXCOL,     4*MAXROW,     1);
 235:snake.c       **** 
 236:snake.c       ****   //set up global variables for new level
 237:snake.c       ****   snakeLength = level + 4;
 238:snake.c       ****   direction   = KEY_RIGHT;
 239:snake.c       ****   firstPress  = TRUE;
 240:snake.c       **** 
 241:snake.c       ****   //fill grid with blanks
 242:snake.c       ****   for(row=0; row<MAXROW; row++)
 243:snake.c       ****     for(col=0; col<MAXCOL; col++)
 244:snake.c       ****       screenGrid[row][col] = ' ';
 245:snake.c       **** 
 246:snake.c       ****   //fill grid with Xs and food
 247:snake.c       ****   for(i=0; i<obstacles*2; i++)
 248:snake.c       ****   {
 249:snake.c       ****     row = rand() % MAXROW;
 250:snake.c       ****     col = rand() % MAXCOL;
 251:snake.c       ****     if (i < obstacles)
 252:snake.c       ****       screenGrid[row][col] = 'x';  //= obstacle
 253:snake.c       ****     else
 254:snake.c       ****       screenGrid[row][col] = '.';  //= food
 255:snake.c       ****   }
 256:snake.c       **** 
 257:snake.c       ****   //create snake array of length snakeLength
 258:snake.c       ****   for(i=0; i<snakeLength; i++)
 259:snake.c       ****   {
 260:snake.c       ****     snake[i].row = SNAKE_START_ROW;
 261:snake.c       ****     snake[i].col = SNAKE_START_COL + i;
 262:snake.c       ****   }
 263:snake.c       **** 
 264:snake.c       ****   //draw game board
 265:snake.c       ****   for(row=0; row<MAXROW; row++)
 266:snake.c       ****   {
 267:snake.c       ****     for(col=0; col<MAXCOL; col++)
 268:snake.c       ****     {
 269:snake.c       ****       switch(screenGrid[row][col])
 270:snake.c       ****       {
 271:snake.c       ****         case ' ': gotoxy(col,row,0); break;
 272:snake.c       ****         case '.': gotoxy(col,row,0x1c); break;
 273:snake.c       ****         case 'x': gotoxy(col,row,0xe0); break;
ARM GAS  C:\Users\KOZLOV~1\AppData\Local\Temp\ccSDYAug.s 			page 6


 274:snake.c       ****         default: break;
 275:snake.c       ****       }
 276:snake.c       ****     }
 277:snake.c       ****   }
 278:snake.c       **** 
 279:snake.c       ****   showScore();
 280:snake.c       **** }
 281:snake.c       **** 
 282:snake.c       **** 
 283:snake.c       **** /*****************************************************************************
 284:snake.c       ****  *
 285:snake.c       ****  * Description:
 286:snake.c       ****  *    Draw current score
 287:snake.c       ****  *
 288:snake.c       ****  ****************************************************************************/
 289:snake.c       **** void showScore()
 290:snake.c       **** {
 291:snake.c       ****   tU8 str[13];
 292:snake.c       ****   
 293:snake.c       ****   str[0] = 'L';
 294:snake.c       ****   str[1] = ':';
 295:snake.c       ****   str[2] = level + '0';
 296:snake.c       ****   str[3] = ' ';
 297:snake.c       ****   str[4] = 'S';
 298:snake.c       ****   str[5] = ':';
 299:snake.c       ****   str[6] = score/100000 + '0';
 300:snake.c       ****   str[7] = (score/10000)%10 + '0';
 301:snake.c       ****   str[8] = (score/1000)%10 + '0';
 302:snake.c       ****   str[9] = (score/100)%10 + '0';
 303:snake.c       ****   str[10] = (score/10)%10 + '0';
 304:snake.c       ****   str[11] = score%10 + '0';
 305:snake.c       ****   str[12] = 0;
 306:snake.c       ****   
 307:snake.c       ****   //remove leading zeroes
 308:snake.c       ****   if (str[6] == '0')
 309:snake.c       ****   {
 310:snake.c       ****     str[6] = ' ';
 311:snake.c       ****     if (str[7] == '0')
 312:snake.c       ****     {
 313:snake.c       ****       str[7] = ' ';
 314:snake.c       ****       if (str[8] == '0')
 315:snake.c       ****       {
 316:snake.c       ****         str[8] = ' ';
 317:snake.c       ****         if (str[9] == '0')
 318:snake.c       ****         {
 319:snake.c       ****           str[9] = ' ';
 320:snake.c       ****           if (str[10] == '0')
 321:snake.c       ****           {
 322:snake.c       ****             str[10] = ' ';
 323:snake.c       ****           }
 324:snake.c       ****         }
 325:snake.c       ****       }
 326:snake.c       ****     }
 327:snake.c       ****   }
 328:snake.c       ****   lcdGotoxy(0,114);
 329:snake.c       ****   lcdPuts(str);
 330:snake.c       **** }
ARM GAS  C:\Users\KOZLOV~1\AppData\Local\Temp\ccSDYAug.s 			page 7


 331:snake.c       **** 
 332:snake.c       **** 
 333:snake.c       **** /*****************************************************************************
 334:snake.c       ****  *
 335:snake.c       ****  * Description:
 336:snake.c       ****  *    Add one snake segment
 337:snake.c       ****  *
 338:snake.c       ****  ****************************************************************************/
 339:snake.c       **** void addSegment()
 340:snake.c       **** {
  13              		.loc 1 340 0
  14              		.cfi_startproc
  15 0000 00B5     		push	{lr}
  16              	.LCFI0:
  17              		.cfi_def_cfa_offset 4
  18              		.cfi_offset 14, -4
 341:snake.c       ****   switch(direction)
  19              		.loc 1 341 0
  20 0002 1F4B     		ldr	r3, .L10
  21 0004 0020     		mov	r0, #0
  22 0006 1856     		ldrsb	r0, [r3, r0]
  23 0008 0138     		sub	r0, r0, #1
  24 000a 0728     		cmp	r0, #7
  25 000c 36D8     		bhi	.L1
  26 000e FFF7FEFF 		bl	__gnu_thumb1_case_uqi
  27              	.L7:
  28 0012 1F       		.byte	(.L3-.L7)/2
  29 0013 04       		.byte	(.L4-.L7)/2
  30 0014 35       		.byte	(.L1-.L7)/2
  31 0015 28       		.byte	(.L5-.L7)/2
  32 0016 35       		.byte	(.L1-.L7)/2
  33 0017 35       		.byte	(.L1-.L7)/2
  34 0018 35       		.byte	(.L1-.L7)/2
  35 0019 11       		.byte	(.L6-.L7)/2
  36              		.align	1
  37              	.L4:
 342:snake.c       ****   {
 343:snake.c       ****     case(KEY_RIGHT): snake[snakeLength].row = snake[snakeLength-1].row;
  38              		.loc 1 343 0
  39 001a 1A4B     		ldr	r3, .L10+4
  40 001c 1968     		ldr	r1, [r3]
  41 001e 1A4B     		ldr	r3, .L10+8
  42 0020 4A1E     		sub	r2, r1, #1
  43 0022 D200     		lsl	r2, r2, #3
  44 0024 D058     		ldr	r0, [r2, r3]
  45 0026 C900     		lsl	r1, r1, #3
  46 0028 C850     		str	r0, [r1, r3]
 344:snake.c       ****                      snake[snakeLength].col = snake[snakeLength-1].col+1;
  47              		.loc 1 344 0
  48 002a 5918     		add	r1, r3, r1
  49 002c 9B18     		add	r3, r3, r2
  50 002e 5B68     		ldr	r3, [r3, #4]
  51 0030 0133     		add	r3, r3, #1
  52 0032 0BE0     		b	.L8
  53              	.L6:
 345:snake.c       ****                      break;
 346:snake.c       ****     case(KEY_LEFT) : snake[snakeLength].row = snake[snakeLength-1].row;
ARM GAS  C:\Users\KOZLOV~1\AppData\Local\Temp\ccSDYAug.s 			page 8


  54              		.loc 1 346 0
  55 0034 134B     		ldr	r3, .L10+4
  56 0036 1968     		ldr	r1, [r3]
  57 0038 134B     		ldr	r3, .L10+8
  58 003a 4A1E     		sub	r2, r1, #1
  59 003c D200     		lsl	r2, r2, #3
  60 003e D058     		ldr	r0, [r2, r3]
  61 0040 C900     		lsl	r1, r1, #3
  62 0042 C850     		str	r0, [r1, r3]
 347:snake.c       ****                      snake[snakeLength].col = snake[snakeLength-1].col-1;
  63              		.loc 1 347 0
  64 0044 5918     		add	r1, r3, r1
  65 0046 9B18     		add	r3, r3, r2
  66 0048 5B68     		ldr	r3, [r3, #4]
  67 004a 013B     		sub	r3, r3, #1
  68              	.L8:
  69 004c 4B60     		str	r3, [r1, #4]
 348:snake.c       ****                      break;
  70              		.loc 1 348 0
  71 004e 15E0     		b	.L1
  72              	.L3:
 349:snake.c       ****     case(KEY_UP)   : snake[snakeLength].row = snake[snakeLength-1].row-1;
  73              		.loc 1 349 0
  74 0050 0C4B     		ldr	r3, .L10+4
  75 0052 1A68     		ldr	r2, [r3]
  76 0054 0C4B     		ldr	r3, .L10+8
  77 0056 511E     		sub	r1, r2, #1
  78 0058 C900     		lsl	r1, r1, #3
  79 005a C858     		ldr	r0, [r1, r3]
  80 005c D200     		lsl	r2, r2, #3
  81 005e 0138     		sub	r0, r0, #1
  82 0060 07E0     		b	.L9
  83              	.L5:
 350:snake.c       ****                      snake[snakeLength].col = snake[snakeLength-1].col;
 351:snake.c       ****                      break;
 352:snake.c       ****     case(KEY_DOWN) : snake[snakeLength].row = snake[snakeLength-1].row+1;
  84              		.loc 1 352 0
  85 0062 084B     		ldr	r3, .L10+4
  86 0064 1A68     		ldr	r2, [r3]
  87 0066 084B     		ldr	r3, .L10+8
  88 0068 511E     		sub	r1, r2, #1
  89 006a C900     		lsl	r1, r1, #3
  90 006c C858     		ldr	r0, [r1, r3]
  91 006e D200     		lsl	r2, r2, #3
  92 0070 0130     		add	r0, r0, #1
  93              	.L9:
  94 0072 D050     		str	r0, [r2, r3]
 353:snake.c       ****                      snake[snakeLength].col = snake[snakeLength-1].col;
  95              		.loc 1 353 0
  96 0074 5918     		add	r1, r3, r1
  97 0076 4968     		ldr	r1, [r1, #4]
  98 0078 9B18     		add	r3, r3, r2
  99 007a 5960     		str	r1, [r3, #4]
 100              	.L1:
 354:snake.c       ****   }
 355:snake.c       **** }
 101              		.loc 1 355 0
ARM GAS  C:\Users\KOZLOV~1\AppData\Local\Temp\ccSDYAug.s 			page 9


 102              		@ sp needed for prologue
 103 007c 01BC     		pop	{r0}
 104 007e 0047     		bx	r0
 105              	.L11:
 106              		.align	2
 107              	.L10:
 108 0080 00000000 		.word	.LANCHOR0
 109 0084 00000000 		.word	.LANCHOR1
 110 0088 00000000 		.word	snake
 111              		.cfi_endproc
 112              	.LFE3:
 113              		.size	addSegment, .-addSegment
 114              		.align	1
 115              		.code	16
 116              		.thumb_func
 117              		.type	gotoxy, %function
 118              	gotoxy:
 119              	.LFB4:
 356:snake.c       **** 
 357:snake.c       **** 
 358:snake.c       **** /*****************************************************************************
 359:snake.c       ****  *
 360:snake.c       ****  * Description:
 361:snake.c       ****  *    Goto a specifc xy position and draw a 4x4 pixel rectangle in
 362:snake.c       ****  *    specified color
 363:snake.c       ****  *
 364:snake.c       ****  ****************************************************************************/
 365:snake.c       **** void gotoxy(tU8 x, tU8 y, tU8 color)
 366:snake.c       **** {
 120              		.loc 1 366 0
 121              		.cfi_startproc
 122 008c 01B5     		push	{r0, lr}
 123              	.LCFI1:
 124              		.cfi_def_cfa_offset 8
 125              		.cfi_offset 0, -8
 126              		.cfi_offset 14, -4
 127              	.LVL0:
 367:snake.c       ****   lcdRect(2+(x*4), 16+(y*4), 4, 4, color);
 128              		.loc 1 367 0
 129 008e 8000     		lsl	r0, r0, #2
 130              	.LVL1:
 131 0090 0431     		add	r1, r1, #4
 132              	.LVL2:
 133 0092 0230     		add	r0, r0, #2
 134 0094 8900     		lsl	r1, r1, #2
 135 0096 0092     		str	r2, [sp]
 136 0098 0006     		lsl	r0, r0, #24
 137 009a 0422     		mov	r2, #4
 138              	.LVL3:
 139 009c 0906     		lsl	r1, r1, #24
 140 009e 000E     		lsr	r0, r0, #24
 141 00a0 090E     		lsr	r1, r1, #24
 142 00a2 131C     		mov	r3, r2
 143 00a4 FFF7FEFF 		bl	lcdRect
 368:snake.c       **** }
 144              		.loc 1 368 0
 145 00a8 01B0     		add	sp, sp, #4
ARM GAS  C:\Users\KOZLOV~1\AppData\Local\Temp\ccSDYAug.s 			page 10


 146              		@ sp needed for prologue
 147 00aa 01BC     		pop	{r0}
 148 00ac 0047     		bx	r0
 149              		.cfi_endproc
 150              	.LFE4:
 151              		.size	gotoxy, .-gotoxy
 152              		.global	__divsi3
 153              		.global	__modsi3
 154              		.align	1
 155              		.code	16
 156              		.thumb_func
 157              		.type	showScore, %function
 158              	showScore:
 159              	.LFB2:
 290:snake.c       **** {
 160              		.loc 1 290 0
 161              		.cfi_startproc
 162 00ae F0B5     		push	{r4, r5, r6, r7, lr}
 163              	.LCFI2:
 164              		.cfi_def_cfa_offset 20
 165              		.cfi_offset 4, -20
 166              		.cfi_offset 5, -16
 167              		.cfi_offset 6, -12
 168              		.cfi_offset 7, -8
 169              		.cfi_offset 14, -4
 170 00b0 87B0     		sub	sp, sp, #28
 171              	.LCFI3:
 172              		.cfi_def_cfa_offset 48
 293:snake.c       ****   str[0] = 'L';
 173              		.loc 1 293 0
 174 00b2 6846     		mov	r0, sp
 175 00b4 4C23     		mov	r3, #76
 176 00b6 0373     		strb	r3, [r0, #12]
 295:snake.c       ****   str[2] = level + '0';
 177              		.loc 1 295 0
 178 00b8 384B     		ldr	r3, .L15
 179 00ba 5968     		ldr	r1, [r3, #4]
 299:snake.c       ****   str[6] = score/100000 + '0';
 180              		.loc 1 299 0
 181 00bc 9C68     		ldr	r4, [r3, #8]
 295:snake.c       ****   str[2] = level + '0';
 182              		.loc 1 295 0
 183 00be 3031     		add	r1, r1, #48
 294:snake.c       ****   str[1] = ':';
 184              		.loc 1 294 0
 185 00c0 3A22     		mov	r2, #58
 295:snake.c       ****   str[2] = level + '0';
 186              		.loc 1 295 0
 187 00c2 8173     		strb	r1, [r0, #14]
 296:snake.c       ****   str[3] = ' ';
 188              		.loc 1 296 0
 189 00c4 2025     		mov	r5, #32
 297:snake.c       ****   str[4] = 'S';
 190              		.loc 1 297 0
 191 00c6 5321     		mov	r1, #83
 294:snake.c       ****   str[1] = ':';
 192              		.loc 1 294 0
ARM GAS  C:\Users\KOZLOV~1\AppData\Local\Temp\ccSDYAug.s 			page 11


 193 00c8 4273     		strb	r2, [r0, #13]
 298:snake.c       ****   str[5] = ':';
 194              		.loc 1 298 0
 195 00ca 4274     		strb	r2, [r0, #17]
 297:snake.c       ****   str[4] = 'S';
 196              		.loc 1 297 0
 197 00cc 0174     		strb	r1, [r0, #16]
 296:snake.c       ****   str[3] = ' ';
 198              		.loc 1 296 0
 199 00ce C573     		strb	r5, [r0, #15]
 299:snake.c       ****   str[6] = score/100000 + '0';
 200              		.loc 1 299 0
 201 00d0 3349     		ldr	r1, .L15+4
 202 00d2 201C     		mov	r0, r4
 203 00d4 FFF7FEFF 		bl	__divsi3
 204 00d8 061C     		mov	r6, r0
 205 00da 3036     		add	r6, r6, #48
 206 00dc 3606     		lsl	r6, r6, #24
 207 00de 6946     		mov	r1, sp
 208 00e0 360E     		lsr	r6, r6, #24
 209 00e2 8E74     		strb	r6, [r1, #18]
 300:snake.c       ****   str[7] = (score/10000)%10 + '0';
 210              		.loc 1 300 0
 211 00e4 201C     		mov	r0, r4
 212 00e6 2F49     		ldr	r1, .L15+8
 213 00e8 FFF7FEFF 		bl	__divsi3
 214 00ec 0A21     		mov	r1, #10
 215 00ee FFF7FEFF 		bl	__modsi3
 216 00f2 071C     		mov	r7, r0
 217 00f4 3037     		add	r7, r7, #48
 218 00f6 3F06     		lsl	r7, r7, #24
 219 00f8 6A46     		mov	r2, sp
 220 00fa 3F0E     		lsr	r7, r7, #24
 301:snake.c       ****   str[8] = (score/1000)%10 + '0';
 221              		.loc 1 301 0
 222 00fc FA21     		mov	r1, #250
 300:snake.c       ****   str[7] = (score/10000)%10 + '0';
 223              		.loc 1 300 0
 224 00fe D774     		strb	r7, [r2, #19]
 301:snake.c       ****   str[8] = (score/1000)%10 + '0';
 225              		.loc 1 301 0
 226 0100 8900     		lsl	r1, r1, #2
 227 0102 201C     		mov	r0, r4
 228 0104 FFF7FEFF 		bl	__divsi3
 229 0108 0A21     		mov	r1, #10
 230 010a FFF7FEFF 		bl	__modsi3
 231 010e 3030     		add	r0, r0, #48
 232 0110 0006     		lsl	r0, r0, #24
 233 0112 6B46     		mov	r3, sp
 234 0114 000E     		lsr	r0, r0, #24
 235 0116 1875     		strb	r0, [r3, #20]
 236 0118 0090     		str	r0, [sp]
 302:snake.c       ****   str[9] = (score/100)%10 + '0';
 237              		.loc 1 302 0
 238 011a 6421     		mov	r1, #100
 239 011c 201C     		mov	r0, r4
 240 011e FFF7FEFF 		bl	__divsi3
ARM GAS  C:\Users\KOZLOV~1\AppData\Local\Temp\ccSDYAug.s 			page 12


 241 0122 0A21     		mov	r1, #10
 242 0124 FFF7FEFF 		bl	__modsi3
 243 0128 3030     		add	r0, r0, #48
 244 012a 0006     		lsl	r0, r0, #24
 245 012c 000E     		lsr	r0, r0, #24
 246 012e 6946     		mov	r1, sp
 247 0130 4875     		strb	r0, [r1, #21]
 248 0132 0190     		str	r0, [sp, #4]
 303:snake.c       ****   str[10] = (score/10)%10 + '0';
 249              		.loc 1 303 0
 250 0134 0A21     		mov	r1, #10
 251 0136 201C     		mov	r0, r4
 252 0138 FFF7FEFF 		bl	__divsi3
 253 013c 0A21     		mov	r1, #10
 254 013e FFF7FEFF 		bl	__modsi3
 255 0142 3030     		add	r0, r0, #48
 256 0144 0006     		lsl	r0, r0, #24
 257 0146 000E     		lsr	r0, r0, #24
 258 0148 6B46     		mov	r3, sp
 259 014a 9875     		strb	r0, [r3, #22]
 260 014c 0290     		str	r0, [sp, #8]
 304:snake.c       ****   str[11] = score%10 + '0';
 261              		.loc 1 304 0
 262 014e 0A21     		mov	r1, #10
 263 0150 201C     		mov	r0, r4
 264 0152 FFF7FEFF 		bl	__modsi3
 265 0156 6946     		mov	r1, sp
 266 0158 3030     		add	r0, r0, #48
 305:snake.c       ****   str[12] = 0;
 267              		.loc 1 305 0
 268 015a 0023     		mov	r3, #0
 304:snake.c       ****   str[11] = score%10 + '0';
 269              		.loc 1 304 0
 270 015c C875     		strb	r0, [r1, #23]
 305:snake.c       ****   str[12] = 0;
 271              		.loc 1 305 0
 272 015e 0B76     		strb	r3, [r1, #24]
 308:snake.c       ****   if (str[6] == '0')
 273              		.loc 1 308 0
 274 0160 302E     		cmp	r6, #48
 275 0162 0FD1     		bne	.L14
 310:snake.c       ****     str[6] = ' ';
 276              		.loc 1 310 0
 277 0164 8D74     		strb	r5, [r1, #18]
 311:snake.c       ****     if (str[7] == '0')
 278              		.loc 1 311 0
 279 0166 302F     		cmp	r7, #48
 280 0168 0CD1     		bne	.L14
 314:snake.c       ****       if (str[8] == '0')
 281              		.loc 1 314 0
 282 016a 009A     		ldr	r2, [sp]
 313:snake.c       ****       str[7] = ' ';
 283              		.loc 1 313 0
 284 016c CD74     		strb	r5, [r1, #19]
 314:snake.c       ****       if (str[8] == '0')
 285              		.loc 1 314 0
 286 016e 302A     		cmp	r2, #48
ARM GAS  C:\Users\KOZLOV~1\AppData\Local\Temp\ccSDYAug.s 			page 13


 287 0170 08D1     		bne	.L14
 317:snake.c       ****         if (str[9] == '0')
 288              		.loc 1 317 0
 289 0172 019B     		ldr	r3, [sp, #4]
 316:snake.c       ****         str[8] = ' ';
 290              		.loc 1 316 0
 291 0174 0D75     		strb	r5, [r1, #20]
 317:snake.c       ****         if (str[9] == '0')
 292              		.loc 1 317 0
 293 0176 302B     		cmp	r3, #48
 294 0178 04D1     		bne	.L14
 320:snake.c       ****           if (str[10] == '0')
 295              		.loc 1 320 0
 296 017a 0298     		ldr	r0, [sp, #8]
 319:snake.c       ****           str[9] = ' ';
 297              		.loc 1 319 0
 298 017c 4D75     		strb	r5, [r1, #21]
 320:snake.c       ****           if (str[10] == '0')
 299              		.loc 1 320 0
 300 017e 3028     		cmp	r0, #48
 301 0180 00D1     		bne	.L14
 322:snake.c       ****             str[10] = ' ';
 302              		.loc 1 322 0
 303 0182 8D75     		strb	r5, [r1, #22]
 304              	.L14:
 328:snake.c       ****   lcdGotoxy(0,114);
 305              		.loc 1 328 0
 306 0184 7221     		mov	r1, #114
 307 0186 0020     		mov	r0, #0
 308 0188 FFF7FEFF 		bl	lcdGotoxy
 329:snake.c       ****   lcdPuts(str);
 309              		.loc 1 329 0
 310 018c 03A8     		add	r0, sp, #12
 311 018e FFF7FEFF 		bl	lcdPuts
 330:snake.c       **** }
 312              		.loc 1 330 0
 313 0192 07B0     		add	sp, sp, #28
 314              		@ sp needed for prologue
 315 0194 F0BC     		pop	{r4, r5, r6, r7}
 316 0196 01BC     		pop	{r0}
 317 0198 0047     		bx	r0
 318              	.L16:
 319 019a C046     		.align	2
 320              	.L15:
 321 019c 00000000 		.word	.LANCHOR1
 322 01a0 A0860100 		.word	100000
 323 01a4 10270000 		.word	10000
 324              		.cfi_endproc
 325              	.LFE2:
 326              		.size	showScore, .-showScore
 327              		.align	1
 328              		.code	16
 329              		.thumb_func
 330              		.type	setupLevel, %function
 331              	setupLevel:
 332              	.LFB1:
 221:snake.c       **** {
ARM GAS  C:\Users\KOZLOV~1\AppData\Local\Temp\ccSDYAug.s 			page 14


 333              		.loc 1 221 0
 334              		.cfi_startproc
 335 01a8 F1B5     		push	{r0, r4, r5, r6, r7, lr}
 336              	.LCFI4:
 337              		.cfi_def_cfa_offset 24
 338              		.cfi_offset 0, -24
 339              		.cfi_offset 4, -20
 340              		.cfi_offset 5, -16
 341              		.cfi_offset 6, -12
 342              		.cfi_offset 7, -8
 343              		.cfi_offset 14, -4
 225:snake.c       ****   lcdColor(0,0xe0);
 344              		.loc 1 225 0
 345 01aa 0020     		mov	r0, #0
 346 01ac E021     		mov	r1, #224
 347 01ae FFF7FEFF 		bl	lcdColor
 226:snake.c       ****   lcdClrscr();
 348              		.loc 1 226 0
 349 01b2 FFF7FEFF 		bl	lcdClrscr
 229:snake.c       ****   lcdGotoxy(42,0);
 350              		.loc 1 229 0
 351 01b6 0021     		mov	r1, #0
 352 01b8 2A20     		mov	r0, #42
 353 01ba FFF7FEFF 		bl	lcdGotoxy
 230:snake.c       ****   lcdPuts("Snake");
 354              		.loc 1 230 0
 355 01be 4048     		ldr	r0, .L37
 356 01c0 FFF7FEFF 		bl	lcdPuts
 233:snake.c       ****   lcdRect(0, 14, (4*MAXCOL)+4, (4*MAXROW)+4, 3);
 357              		.loc 1 233 0
 358 01c4 0323     		mov	r3, #3
 359 01c6 0093     		str	r3, [sp]
 360 01c8 0020     		mov	r0, #0
 361 01ca 0E21     		mov	r1, #14
 362 01cc 8022     		mov	r2, #128
 363 01ce 5423     		mov	r3, #84
 364 01d0 FFF7FEFF 		bl	lcdRect
 234:snake.c       ****   lcdRect(2, 16, 4*MAXCOL,     4*MAXROW,     1);
 365              		.loc 1 234 0
 366 01d4 0124     		mov	r4, #1
 367 01d6 0220     		mov	r0, #2
 368 01d8 1021     		mov	r1, #16
 369 01da 7C22     		mov	r2, #124
 370 01dc 5023     		mov	r3, #80
 371 01de 0094     		str	r4, [sp]
 372 01e0 FFF7FEFF 		bl	lcdRect
 237:snake.c       ****   snakeLength = level + 4;
 373              		.loc 1 237 0
 374 01e4 374B     		ldr	r3, .L37+4
 375 01e6 5A68     		ldr	r2, [r3, #4]
 376 01e8 0432     		add	r2, r2, #4
 377 01ea 1A60     		str	r2, [r3]
 238:snake.c       ****   direction   = KEY_RIGHT;
 378              		.loc 1 238 0
 379 01ec 364A     		ldr	r2, .L37+8
 380 01ee 0221     		mov	r1, #2
 239:snake.c       ****   firstPress  = TRUE;
ARM GAS  C:\Users\KOZLOV~1\AppData\Local\Temp\ccSDYAug.s 			page 15


 381              		.loc 1 239 0
 382 01f0 1E1C     		mov	r6, r3
 238:snake.c       ****   direction   = KEY_RIGHT;
 383              		.loc 1 238 0
 384 01f2 1170     		strb	r1, [r2]
 220:snake.c       **** void setupLevel()
 385              		.loc 1 220 0
 386 01f4 354A     		ldr	r2, .L37+12
 239:snake.c       ****   firstPress  = TRUE;
 387              		.loc 1 239 0
 388 01f6 0D36     		add	r6, r6, #13
 389 01f8 1C73     		strb	r4, [r3, #12]
 390              	.LVL4:
 244:snake.c       ****       screenGrid[row][col] = ' ';
 391              		.loc 1 244 0
 392 01fa 2020     		mov	r0, #32
 220:snake.c       **** void setupLevel()
 393              		.loc 1 220 0
 394 01fc 9B18     		add	r3, r3, r2
 395 01fe 321C     		mov	r2, r6
 396 0200 06E0     		b	.L18
 397              	.LVL5:
 398              	.L19:
 244:snake.c       ****       screenGrid[row][col] = ' ';
 399              		.loc 1 244 0 discriminator 2
 400 0202 5054     		strb	r0, [r2, r1]
 243:snake.c       ****     for(col=0; col<MAXCOL; col++)
 401              		.loc 1 243 0 discriminator 2
 402 0204 0131     		add	r1, r1, #1
 403              	.LVL6:
 404 0206 1F29     		cmp	r1, #31
 405 0208 FBD1     		bne	.L19
 243:snake.c       ****     for(col=0; col<MAXCOL; col++)
 406              		.loc 1 243 0 is_stmt 0
 407 020a 1F32     		add	r2, r2, #31
 242:snake.c       ****   for(row=0; row<MAXROW; row++)
 408              		.loc 1 242 0 is_stmt 1
 409 020c 9A42     		cmp	r2, r3
 410 020e 18D0     		beq	.L32
 411              	.LVL7:
 412              	.L18:
 221:snake.c       **** {
 413              		.loc 1 221 0 discriminator 1
 414 0210 0021     		mov	r1, #0
 415 0212 F6E7     		b	.L19
 416              	.LVL8:
 417              	.L22:
 249:snake.c       ****     row = rand() % MAXROW;
 418              		.loc 1 249 0
 419 0214 FFF7FEFF 		bl	rand
 420 0218 1421     		mov	r1, #20
 421 021a FFF7FEFF 		bl	__modsi3
 422 021e 071C     		mov	r7, r0
 423              	.LVL9:
 250:snake.c       ****     col = rand() % MAXCOL;
 424              		.loc 1 250 0
 425 0220 FFF7FEFF 		bl	rand
ARM GAS  C:\Users\KOZLOV~1\AppData\Local\Temp\ccSDYAug.s 			page 16


 426              	.LVL10:
 427 0224 1F21     		mov	r1, #31
 428 0226 FFF7FEFF 		bl	__modsi3
 429              	.LVL11:
 251:snake.c       ****     if (i < obstacles)
 430              		.loc 1 251 0
 431 022a E26F     		ldr	r2, [r4, #124]
 252:snake.c       ****       screenGrid[row][col] = 'x';  //= obstacle
 432              		.loc 1 252 0
 433 022c 7823     		mov	r3, #120
 251:snake.c       ****     if (i < obstacles)
 434              		.loc 1 251 0
 435 022e 9542     		cmp	r5, r2
 436 0230 00DB     		blt	.L21
 254:snake.c       ****       screenGrid[row][col] = '.';  //= food
 437              		.loc 1 254 0
 438 0232 2E23     		mov	r3, #46
 439              	.L21:
 251:snake.c       ****     if (i < obstacles)
 440              		.loc 1 251 0
 441 0234 7A01     		lsl	r2, r7, #5
 442 0236 D71B     		sub	r7, r2, r7
 443              	.LVL12:
 444 0238 254A     		ldr	r2, .L37+16
 445 023a 3F18     		add	r7, r7, r0
 446 023c BB54     		strb	r3, [r7, r2]
 247:snake.c       ****   for(i=0; i<obstacles*2; i++)
 447              		.loc 1 247 0
 448 023e 0135     		add	r5, r5, #1
 449              	.LVL13:
 450 0240 00E0     		b	.L20
 451              	.LVL14:
 452              	.L32:
 242:snake.c       ****   for(row=0; row<MAXROW; row++)
 453              		.loc 1 242 0
 454 0242 0025     		mov	r5, #0
 455              	.LVL15:
 456              	.L20:
 247:snake.c       ****   for(i=0; i<obstacles*2; i++)
 457              		.loc 1 247 0 discriminator 1
 458 0244 234C     		ldr	r4, .L37+20
 459 0246 E36F     		ldr	r3, [r4, #124]
 460 0248 5B00     		lsl	r3, r3, #1
 461 024a 9D42     		cmp	r5, r3
 462 024c E2DB     		blt	.L22
 258:snake.c       ****   for(i=0; i<snakeLength; i++)
 463              		.loc 1 258 0
 464 024e 1D4B     		ldr	r3, .L37+4
 465 0250 0022     		mov	r2, #0
 466 0252 1D68     		ldr	r5, [r3]
 467              	.LVL16:
 220:snake.c       **** void setupLevel()
 468              		.loc 1 220 0
 469 0254 204C     		ldr	r4, .L37+24
 258:snake.c       ****   for(i=0; i<snakeLength; i++)
 470              		.loc 1 258 0
 471 0256 131C     		mov	r3, r2
ARM GAS  C:\Users\KOZLOV~1\AppData\Local\Temp\ccSDYAug.s 			page 17


 260:snake.c       ****     snake[i].row = SNAKE_START_ROW;
 472              		.loc 1 260 0
 473 0258 0720     		mov	r0, #7
 474 025a 08E0     		b	.L23
 475              	.LVL17:
 476              	.L24:
 220:snake.c       **** void setupLevel()
 477              		.loc 1 220 0 discriminator 2
 478 025c 1119     		add	r1, r2, r4
 479 025e 0F1C     		mov	r7, r1
 480 0260 083F     		sub	r7, r7, #8
 260:snake.c       ****     snake[i].row = SNAKE_START_ROW;
 481              		.loc 1 260 0 discriminator 2
 482 0262 3860     		str	r0, [r7]
 220:snake.c       **** void setupLevel()
 483              		.loc 1 220 0 discriminator 2
 484 0264 1F1C     		mov	r7, r3
 485 0266 0439     		sub	r1, r1, #4
 486 0268 0F37     		add	r7, r7, #15
 261:snake.c       ****     snake[i].col = SNAKE_START_COL + i;
 487              		.loc 1 261 0 discriminator 2
 488 026a 0F60     		str	r7, [r1]
 258:snake.c       ****   for(i=0; i<snakeLength; i++)
 489              		.loc 1 258 0 discriminator 2
 490 026c 0133     		add	r3, r3, #1
 491              	.LVL18:
 492              	.L23:
 258:snake.c       ****   for(i=0; i<snakeLength; i++)
 493              		.loc 1 258 0 is_stmt 0 discriminator 1
 494 026e 0832     		add	r2, r2, #8
 495 0270 AB42     		cmp	r3, r5
 496 0272 F3DB     		blt	.L24
 258:snake.c       ****   for(i=0; i<snakeLength; i++)
 497              		.loc 1 258 0
 498 0274 0025     		mov	r5, #0
 499 0276 1CE0     		b	.L25
 500              	.LVL19:
 501              	.L30:
 269:snake.c       ****       switch(screenGrid[row][col])
 502              		.loc 1 269 0 is_stmt 1
 503 0278 325D     		ldrb	r2, [r6, r4]
 504 027a 1306     		lsl	r3, r2, #24
 505 027c 1B16     		asr	r3, r3, #24
 506 027e 2E2A     		cmp	r2, #46
 507 0280 07D0     		beq	.L28
 508 0282 782B     		cmp	r3, #120
 509 0284 09D0     		beq	.L29
 510 0286 202B     		cmp	r3, #32
 511 0288 0CD1     		bne	.L26
 271:snake.c       ****         case ' ': gotoxy(col,row,0); break;
 512              		.loc 1 271 0
 513 028a 201C     		mov	r0, r4
 514 028c 291C     		mov	r1, r5
 515 028e 0022     		mov	r2, #0
 516 0290 06E0     		b	.L36
 517              	.L28:
 272:snake.c       ****         case '.': gotoxy(col,row,0x1c); break;
ARM GAS  C:\Users\KOZLOV~1\AppData\Local\Temp\ccSDYAug.s 			page 18


 518              		.loc 1 272 0
 519 0292 201C     		mov	r0, r4
 520 0294 291C     		mov	r1, r5
 521 0296 1C22     		mov	r2, #28
 522 0298 02E0     		b	.L36
 523              	.L29:
 273:snake.c       ****         case 'x': gotoxy(col,row,0xe0); break;
 524              		.loc 1 273 0
 525 029a 201C     		mov	r0, r4
 526 029c 291C     		mov	r1, r5
 527 029e E022     		mov	r2, #224
 528              	.L36:
 529 02a0 FFF7F4FE 		bl	gotoxy
 530              	.L26:
 267:snake.c       ****     for(col=0; col<MAXCOL; col++)
 531              		.loc 1 267 0
 532 02a4 0134     		add	r4, r4, #1
 533              	.LVL20:
 534 02a6 1F2C     		cmp	r4, #31
 535 02a8 E6D1     		bne	.L30
 265:snake.c       ****   for(row=0; row<MAXROW; row++)
 536              		.loc 1 265 0
 537 02aa 0135     		add	r5, r5, #1
 538              	.LVL21:
 539 02ac 1F36     		add	r6, r6, #31
 540 02ae 142D     		cmp	r5, #20
 541 02b0 01D0     		beq	.L31
 542              	.LVL22:
 543              	.L25:
 258:snake.c       ****   for(i=0; i<snakeLength; i++)
 544              		.loc 1 258 0 discriminator 1
 545 02b2 0024     		mov	r4, #0
 546 02b4 E0E7     		b	.L30
 547              	.LVL23:
 548              	.L31:
 279:snake.c       ****   showScore();
 549              		.loc 1 279 0
 550 02b6 FFF7FAFE 		bl	showScore
 280:snake.c       **** }
 551              		.loc 1 280 0
 552              		@ sp needed for prologue
 553              	.LVL24:
 554              	.LVL25:
 555 02ba F1BC     		pop	{r0, r4, r5, r6, r7}
 556 02bc 01BC     		pop	{r0}
 557 02be 0047     		bx	r0
 558              	.L38:
 559              		.align	2
 560              	.L37:
 561 02c0 00000000 		.word	.LC7
 562 02c4 00000000 		.word	.LANCHOR1
 563 02c8 00000000 		.word	.LANCHOR0
 564 02cc 79020000 		.word	633
 565 02d0 0D000000 		.word	.LANCHOR1+13
 566 02d4 00020000 		.word	.LANCHOR2
 567 02d8 00000000 		.word	snake
 568              		.cfi_endproc
ARM GAS  C:\Users\KOZLOV~1\AppData\Local\Temp\ccSDYAug.s 			page 19


 569              	.LFE1:
 570              		.size	setupLevel, .-setupLevel
 571              		.align	1
 572              		.global	playSnake
 573              		.code	16
 574              		.thumb_func
 575              		.type	playSnake, %function
 576              	playSnake:
 577              	.LFB0:
  80:snake.c       **** {
 578              		.loc 1 80 0
 579              		.cfi_startproc
 580 02dc F0B5     		push	{r4, r5, r6, r7, lr}
 581              	.LCFI5:
 582              		.cfi_def_cfa_offset 20
 583              		.cfi_offset 4, -20
 584              		.cfi_offset 5, -16
 585              		.cfi_offset 6, -12
 586              		.cfi_offset 7, -8
 587              		.cfi_offset 14, -4
 588 02de 96B0     		sub	sp, sp, #88
 589              	.LCFI6:
 590              		.cfi_def_cfa_offset 108
 591              	.L40:
 592              	.LVL26:
  87:snake.c       ****     obstacles = 4;
 593              		.loc 1 87 0
 594 02e0 7F4C     		ldr	r4, .L67
 595 02e2 0420     		mov	r0, #4
 596 02e4 E067     		str	r0, [r4, #124]
  88:snake.c       ****     level     = 1;
 597              		.loc 1 88 0
 598 02e6 7F4C     		ldr	r4, .L67+4
 599 02e8 0123     		mov	r3, #1
 600 02ea 6360     		str	r3, [r4, #4]
  89:snake.c       ****     score     = 0;
 601              		.loc 1 89 0
 602 02ec 0023     		mov	r3, #0
 603 02ee A360     		str	r3, [r4, #8]
  90:snake.c       ****     speed     = 14;
 604              		.loc 1 90 0
 605 02f0 7D4E     		ldr	r6, .L67+8
  91:snake.c       ****     srand(ms);        //Ensure random seed initiated
 606              		.loc 1 91 0
 607 02f2 7E4B     		ldr	r3, .L67+12
  90:snake.c       ****     speed     = 14;
 608              		.loc 1 90 0
 609 02f4 0E25     		mov	r5, #14
  91:snake.c       ****     srand(ms);        //Ensure random seed initiated
 610              		.loc 1 91 0
 611 02f6 1868     		ldr	r0, [r3]
  90:snake.c       ****     speed     = 14;
 612              		.loc 1 90 0
 613 02f8 3560     		str	r5, [r6]
  91:snake.c       ****     srand(ms);        //Ensure random seed initiated
 614              		.loc 1 91 0
 615 02fa FFF7FEFF 		bl	srand
ARM GAS  C:\Users\KOZLOV~1\AppData\Local\Temp\ccSDYAug.s 			page 20


  92:snake.c       ****     setupLevel();
 616              		.loc 1 92 0
 617 02fe FFF753FF 		bl	setupLevel
 618              	.L56:
 619              	.LBB2:
 100:snake.c       ****       osSleep(speed * PAUSE_LENGTH);
 620              		.loc 1 100 0
 621 0302 794B     		ldr	r3, .L67+8
 622 0304 1868     		ldr	r0, [r3]
 623 0306 4000     		lsl	r0, r0, #1
 624 0308 FFF7FEFF 		bl	osSleep
 103:snake.c       ****       keypress = checkKey();
 625              		.loc 1 103 0
 626 030c FFF7FEFF 		bl	checkKey
 104:snake.c       ****       if (keypress != KEY_NOTHING)
 627              		.loc 1 104 0
 628 0310 071E     		sub	r7, r0, #0
 629 0312 0AD0     		beq	.L41
 106:snake.c       ****         if ((keypress == KEY_UP)    ||
 630              		.loc 1 106 0
 631 0314 431E     		sub	r3, r0, #1
 632 0316 1B06     		lsl	r3, r3, #24
 633 0318 1B0E     		lsr	r3, r3, #24
 634 031a 012B     		cmp	r3, #1
 635 031c 03D9     		bls	.L42
 636 031e 0428     		cmp	r0, #4
 637 0320 01D0     		beq	.L42
 108:snake.c       ****             (keypress == KEY_DOWN)  ||
 638              		.loc 1 108 0
 639 0322 0828     		cmp	r0, #8
 640 0324 01D1     		bne	.L41
 641              	.L42:
 110:snake.c       ****           direction = keypress;
 642              		.loc 1 110 0
 643 0326 724B     		ldr	r3, .L67+16
 644 0328 1870     		strb	r0, [r3]
 645              	.L41:
 114:snake.c       ****       addSegment();
 646              		.loc 1 114 0
 647 032a FFF769FE 		bl	addSegment
 117:snake.c       ****       gotoxy(snake[0].col, snake[0].row, 0);
 648              		.loc 1 117 0
 649 032e 714D     		ldr	r5, .L67+20
 650 0330 0022     		mov	r2, #0
 651 0332 2978     		ldrb	r1, [r5]
 652 0334 2879     		ldrb	r0, [r5, #4]
 653 0336 FFF7A9FE 		bl	gotoxy
 654              	.LVL27:
 655 033a 2A1C     		mov	r2, r5
 656 033c 0832     		add	r2, r2, #8
 120:snake.c       ****       for(i=1; i<=snakeLength; i++)
 657              		.loc 1 120 0
 658 033e 0123     		mov	r3, #1
 659 0340 6849     		ldr	r1, .L67+4
 660 0342 AC46     		mov	ip, r5
 661 0344 06E0     		b	.L43
 662              	.LVL28:
ARM GAS  C:\Users\KOZLOV~1\AppData\Local\Temp\ccSDYAug.s 			page 21


 663              	.L44:
 121:snake.c       ****         snake[i-1] = snake[i];
 664              		.loc 1 121 0 discriminator 2
 665 0346 6046     		mov	r0, ip
 666 0348 0830     		add	r0, r0, #8
 667 034a 60CA     		ldmia	r2!, {r5, r6}
 668 034c 8446     		mov	ip, r0
 669 034e 0838     		sub	r0, r0, #8
 670 0350 60C0     		stmia	r0!, {r5, r6}
 120:snake.c       ****       for(i=1; i<=snakeLength; i++)
 671              		.loc 1 120 0 discriminator 2
 672 0352 0133     		add	r3, r3, #1
 673              	.LVL29:
 674              	.L43:
 120:snake.c       ****       for(i=1; i<=snakeLength; i++)
 675              		.loc 1 120 0 is_stmt 0 discriminator 1
 676 0354 0868     		ldr	r0, [r1]
 677 0356 8342     		cmp	r3, r0
 678 0358 F5DD     		ble	.L44
 120:snake.c       ****       for(i=1; i<=snakeLength; i++)
 679              		.loc 1 120 0
 680 035a 0025     		mov	r5, #0
 681 035c 0895     		str	r5, [sp, #32]
 124:snake.c       ****       for (i=0; i<=snakeLength; i++)
 682              		.loc 1 124 0 is_stmt 1
 683 035e 614D     		ldr	r5, .L67+4
 684 0360 0BE0     		b	.L45
 685              	.LVL30:
 686              	.L46:
  79:snake.c       **** void playSnake(void)
 687              		.loc 1 79 0 discriminator 2
 688 0362 089E     		ldr	r6, [sp, #32]
 689 0364 F300     		lsl	r3, r6, #3
 690 0366 634E     		ldr	r6, .L67+20
 691 0368 9B19     		add	r3, r3, r6
 125:snake.c       ****         gotoxy(snake[i].col, snake[i].row, 0xfc);
 692              		.loc 1 125 0 discriminator 2
 693 036a 1879     		ldrb	r0, [r3, #4]
 694              	.LVL31:
 695 036c 1978     		ldrb	r1, [r3]
 696 036e FC22     		mov	r2, #252
 697 0370 FFF78CFE 		bl	gotoxy
 124:snake.c       ****       for (i=0; i<=snakeLength; i++)
 698              		.loc 1 124 0 discriminator 2
 699 0374 089E     		ldr	r6, [sp, #32]
 700 0376 0136     		add	r6, r6, #1
 701 0378 0896     		str	r6, [sp, #32]
 702              	.LVL32:
 703              	.L45:
 124:snake.c       ****       for (i=0; i<=snakeLength; i++)
 704              		.loc 1 124 0 is_stmt 0 discriminator 1
 705 037a 2B68     		ldr	r3, [r5]
 706 037c 0898     		ldr	r0, [sp, #32]
 707 037e 2E1C     		mov	r6, r5
 708 0380 9842     		cmp	r0, r3
 709 0382 EEDD     		ble	.L46
 128:snake.c       ****       if (firstPress == TRUE)
ARM GAS  C:\Users\KOZLOV~1\AppData\Local\Temp\ccSDYAug.s 			page 22


 710              		.loc 1 128 0 is_stmt 1
 711 0384 2B7B     		ldrb	r3, [r5, #12]
 712 0386 012B     		cmp	r3, #1
 713 0388 05D1     		bne	.L47
 714              	.L64:
 130:snake.c       ****         while(KEY_NOTHING == checkKey())
 715              		.loc 1 130 0 discriminator 1
 716 038a FFF7FEFF 		bl	checkKey
 717 038e 0028     		cmp	r0, #0
 718 0390 FBD0     		beq	.L64
 132:snake.c       ****         firstPress = FALSE;
 719              		.loc 1 132 0
 720 0392 0023     		mov	r3, #0
 721 0394 3373     		strb	r3, [r6, #12]
 722              	.L47:
 136:snake.c       ****       if ((snake[snakeLength-1].row >= MAXROW) || (snake[snakeLength-1].row < 0) ||
 723              		.loc 1 136 0
 724 0396 3268     		ldr	r2, [r6]
 725 0398 5648     		ldr	r0, .L67+20
 726 039a 0892     		str	r2, [sp, #32]
 727 039c 013A     		sub	r2, r2, #1
 728 039e D100     		lsl	r1, r2, #3
 729 03a0 0B58     		ldr	r3, [r1, r0]
 730 03a2 132B     		cmp	r3, #19
 731 03a4 0CD8     		bhi	.L62
 137:snake.c       ****           (snake[snakeLength-1].col >= MAXCOL) || (snake[snakeLength-1].col < 0) ||
 732              		.loc 1 137 0 discriminator 1
 733 03a6 4118     		add	r1, r0, r1
 734 03a8 4968     		ldr	r1, [r1, #4]
 136:snake.c       ****       if ((snake[snakeLength-1].row >= MAXROW) || (snake[snakeLength-1].row < 0) ||
 735              		.loc 1 136 0 discriminator 1
 736 03aa 1E29     		cmp	r1, #30
 737 03ac 08DC     		bgt	.L62
 137:snake.c       ****           (snake[snakeLength-1].col >= MAXCOL) || (snake[snakeLength-1].col < 0) ||
 738              		.loc 1 137 0
 739 03ae 0029     		cmp	r1, #0
 740 03b0 06DB     		blt	.L62
 140:snake.c       ****           (screenGrid[snake[snakeLength-1].row][snake[snakeLength-1].col] == 'x'))
 741              		.loc 1 140 0 discriminator 1
 742 03b2 5801     		lsl	r0, r3, #5
 743 03b4 C01A     		sub	r0, r0, r3
 744 03b6 0D36     		add	r6, r6, #13
 745 03b8 4118     		add	r1, r0, r1
 137:snake.c       ****           (snake[snakeLength-1].col >= MAXCOL) || (snake[snakeLength-1].col < 0) ||
 746              		.loc 1 137 0 discriminator 1
 747 03ba 8957     		ldrsb	r1, [r1, r6]
 748 03bc 7829     		cmp	r1, #120
 749 03be 00D1     		bne	.L49
 750              	.L62:
 141:snake.c       ****         keypress = KEY_CENTER;
 751              		.loc 1 141 0
 752 03c0 1027     		mov	r7, #16
 753              	.L49:
 754              	.LVL33:
 146:snake.c       ****             (snake[snakeLength-1].col) == (snake[i].col))
 755              		.loc 1 146 0
 756 03c2 4C4D     		ldr	r5, .L67+20
ARM GAS  C:\Users\KOZLOV~1\AppData\Local\Temp\ccSDYAug.s 			page 23


 144:snake.c       ****       for (i=0; i<snakeLength-1; i++)
 757              		.loc 1 144 0
 758 03c4 0021     		mov	r1, #0
 146:snake.c       ****             (snake[snakeLength-1].col) == (snake[i].col))
 759              		.loc 1 146 0
 760 03c6 D600     		lsl	r6, r2, #3
 144:snake.c       ****       for (i=0; i<snakeLength-1; i++)
 761              		.loc 1 144 0
 762 03c8 081C     		mov	r0, r1
 146:snake.c       ****             (snake[snakeLength-1].col) == (snake[i].col))
 763              		.loc 1 146 0
 764 03ca AE19     		add	r6, r5, r6
 765 03cc 9C46     		mov	ip, r3
 144:snake.c       ****       for (i=0; i<snakeLength-1; i++)
 766              		.loc 1 144 0
 767 03ce 0AE0     		b	.L50
 768              	.LVL34:
 769              	.L53:
 145:snake.c       ****         if ((snake[snakeLength-1].row) == (snake[i].row) &&
 770              		.loc 1 145 0
 771 03d0 484B     		ldr	r3, .L67+20
 772 03d2 CD18     		add	r5, r1, r3
 773 03d4 2B68     		ldr	r3, [r5]
 774 03d6 9C45     		cmp	ip, r3
 775 03d8 03D1     		bne	.L51
 145:snake.c       ****         if ((snake[snakeLength-1].row) == (snake[i].row) &&
 776              		.loc 1 145 0 is_stmt 0 discriminator 1
 777 03da 7368     		ldr	r3, [r6, #4]
 778 03dc 6D68     		ldr	r5, [r5, #4]
 779 03de AB42     		cmp	r3, r5
 780 03e0 05D0     		beq	.L63
 781              	.L51:
 144:snake.c       ****       for (i=0; i<snakeLength-1; i++)
 782              		.loc 1 144 0 is_stmt 1
 783 03e2 0130     		add	r0, r0, #1
 784              	.LVL35:
 785 03e4 0831     		add	r1, r1, #8
 786              	.LVL36:
 787              	.L50:
 144:snake.c       ****       for (i=0; i<snakeLength-1; i++)
 788              		.loc 1 144 0 is_stmt 0 discriminator 1
 789 03e6 9042     		cmp	r0, r2
 790 03e8 F2DB     		blt	.L53
 791 03ea 6346     		mov	r3, ip
 792 03ec 01E0     		b	.L52
 793              	.L63:
 794 03ee 6346     		mov	r3, ip
 148:snake.c       ****           keypress = KEY_CENTER;   //exit loop - game over
 795              		.loc 1 148 0 is_stmt 1
 796 03f0 1027     		mov	r7, #16
 797              	.LVL37:
 798              	.L52:
 153:snake.c       ****       if (screenGrid[snake[snakeLength-1].row][snake[snakeLength-1].col] == '.')
 799              		.loc 1 153 0
 800 03f2 4049     		ldr	r1, .L67+20
 801 03f4 D200     		lsl	r2, r2, #3
 802 03f6 8A18     		add	r2, r1, r2
ARM GAS  C:\Users\KOZLOV~1\AppData\Local\Temp\ccSDYAug.s 			page 24


 803 03f8 5268     		ldr	r2, [r2, #4]
 804 03fa 5901     		lsl	r1, r3, #5
 805 03fc CB1A     		sub	r3, r1, r3
 806 03fe 3E4D     		ldr	r5, .L67+24
 807 0400 9B18     		add	r3, r3, r2
 808 0402 5B57     		ldrsb	r3, [r3, r5]
 809 0404 2E2B     		cmp	r3, #46
 810 0406 2AD1     		bne	.L54
 156:snake.c       ****         score += snakeLength * obstacles;
 811              		.loc 1 156 0
 812 0408 354D     		ldr	r5, .L67
 813 040a 089E     		ldr	r6, [sp, #32]
 814 040c EB6F     		ldr	r3, [r5, #124]
 815 040e 7343     		mul	r3, r6
 816 0410 A268     		ldr	r2, [r4, #8]
 817 0412 D318     		add	r3, r2, r3
 818 0414 A360     		str	r3, [r4, #8]
 157:snake.c       ****         showScore();
 819              		.loc 1 157 0
 820 0416 FFF74AFE 		bl	showScore
 821              	.LVL38:
 158:snake.c       ****         snakeLength++;
 822              		.loc 1 158 0
 823 041a 2668     		ldr	r6, [r4]
 824 041c 0136     		add	r6, r6, #1
 825 041e 2660     		str	r6, [r4]
 159:snake.c       ****         addSegment();
 826              		.loc 1 159 0
 827 0420 FFF7EEFD 		bl	addSegment
 162:snake.c       ****         if (snakeLength == (level + 3) * 2)
 828              		.loc 1 162 0
 829 0424 6068     		ldr	r0, [r4, #4]
 830 0426 C31C     		add	r3, r0, #3
 831 0428 5B00     		lsl	r3, r3, #1
 832 042a 9E42     		cmp	r6, r3
 833 042c 17D1     		bne	.L54
 164:snake.c       ****           score += level * 1000;
 834              		.loc 1 164 0
 835 042e FA23     		mov	r3, #250
 836 0430 9B00     		lsl	r3, r3, #2
 837 0432 4343     		mul	r3, r0
 838 0434 A268     		ldr	r2, [r4, #8]
 839 0436 D318     		add	r3, r2, r3
 840 0438 A360     		str	r3, [r4, #8]
 165:snake.c       ****           obstacles += 2;          //add obstacles
 841              		.loc 1 165 0
 842 043a EB6F     		ldr	r3, [r5, #124]
 166:snake.c       ****           level++;
 843              		.loc 1 166 0
 844 043c 0130     		add	r0, r0, #1
 165:snake.c       ****           obstacles += 2;          //add obstacles
 845              		.loc 1 165 0
 846 043e 0233     		add	r3, r3, #2
 847 0440 EB67     		str	r3, [r5, #124]
 166:snake.c       ****           level++;
 848              		.loc 1 166 0
 849 0442 6060     		str	r0, [r4, #4]
ARM GAS  C:\Users\KOZLOV~1\AppData\Local\Temp\ccSDYAug.s 			page 25


 169:snake.c       ****           if ((level % 5 == 0) && (speed > 1))
 850              		.loc 1 169 0
 851 0444 0521     		mov	r1, #5
 852 0446 FFF7FEFF 		bl	__modsi3
 853 044a 0028     		cmp	r0, #0
 854 044c 05D1     		bne	.L55
 169:snake.c       ****           if ((level % 5 == 0) && (speed > 1))
 855              		.loc 1 169 0 is_stmt 0 discriminator 1
 856 044e 264B     		ldr	r3, .L67+8
 857 0450 1A68     		ldr	r2, [r3]
 858 0452 012A     		cmp	r2, #1
 859 0454 01DD     		ble	.L55
 170:snake.c       ****             speed--;
 860              		.loc 1 170 0 is_stmt 1
 861 0456 013A     		sub	r2, r2, #1
 862 0458 1A60     		str	r2, [r3]
 863              	.L55:
 173:snake.c       ****           setupLevel();
 864              		.loc 1 173 0
 865 045a FFF7A5FE 		bl	setupLevel
 866              	.L54:
 867              	.LBE2:
 176:snake.c       ****     } while (keypress != KEY_CENTER);
 868              		.loc 1 176 0
 869 045e 102F     		cmp	r7, #16
 870 0460 00D0     		beq	.LCB743
 871 0462 4EE7     		b	.L56	@long jump
 872              	.LCB743:
 179:snake.c       ****     if (score > high_score)
 873              		.loc 1 179 0
 874 0464 1F4B     		ldr	r3, .L67+4
 875 0466 9A68     		ldr	r2, [r3, #8]
 876 0468 1F4B     		ldr	r3, .L67+8
 877 046a 5968     		ldr	r1, [r3, #4]
 878 046c 8A42     		cmp	r2, r1
 879 046e 00DD     		ble	.L57
 180:snake.c       ****       high_score = score;
 880              		.loc 1 180 0
 881 0470 5A60     		str	r2, [r3, #4]
 882              	.L57:
 181:snake.c       ****     showScore();
 883              		.loc 1 181 0
 884 0472 FFF71CFE 		bl	showScore
 885              	.LBB3:
 186:snake.c       ****       menu.xPos = 10;
 886              		.loc 1 186 0
 887 0476 0AAB     		add	r3, sp, #40
 193:snake.c       ****       menu.headerTextXpos = 20;
 888              		.loc 1 193 0
 889 0478 1420     		mov	r0, #20
 890 047a 1873     		strb	r0, [r3, #12]
 194:snake.c       ****       menu.pChoice[0] = "Restart game";
 891              		.loc 1 194 0
 892 047c 1F48     		ldr	r0, .L67+28
 186:snake.c       ****       menu.xPos = 10;
 893              		.loc 1 186 0
 894 047e 0A22     		mov	r2, #10
ARM GAS  C:\Users\KOZLOV~1\AppData\Local\Temp\ccSDYAug.s 			page 26


 895 0480 1A70     		strb	r2, [r3]
 194:snake.c       ****       menu.pChoice[0] = "Restart game";
 896              		.loc 1 194 0
 897 0482 0E90     		str	r0, [sp, #56]
 187:snake.c       ****       menu.yPos = 40;
 898              		.loc 1 187 0
 899 0484 2822     		mov	r2, #40
 195:snake.c       ****       menu.pChoice[1] = "End game";
 900              		.loc 1 195 0
 901 0486 1E48     		ldr	r0, .L67+32
 187:snake.c       ****       menu.yPos = 40;
 902              		.loc 1 187 0
 903 0488 5A70     		strb	r2, [r3, #1]
 188:snake.c       ****       menu.xLen = 6+(12*8);
 904              		.loc 1 188 0
 905 048a 6622     		mov	r2, #102
 906 048c 9A70     		strb	r2, [r3, #2]
 191:snake.c       ****       menu.initialChoice = 0;
 907              		.loc 1 191 0
 908 048e 0021     		mov	r1, #0
 195:snake.c       ****       menu.pChoice[1] = "End game";
 909              		.loc 1 195 0
 910 0490 0F90     		str	r0, [sp, #60]
 189:snake.c       ****       menu.yLen = 4*14;
 911              		.loc 1 189 0
 912 0492 3822     		mov	r2, #56
 196:snake.c       ****       menu.bgColor       = 0;
 913              		.loc 1 196 0
 914 0494 14A8     		add	r0, sp, #80
 189:snake.c       ****       menu.yLen = 4*14;
 915              		.loc 1 189 0
 916 0496 DA70     		strb	r2, [r3, #3]
 191:snake.c       ****       menu.initialChoice = 0;
 917              		.loc 1 191 0
 918 0498 5971     		strb	r1, [r3, #5]
 196:snake.c       ****       menu.bgColor       = 0;
 919              		.loc 1 196 0
 920 049a 0170     		strb	r1, [r0]
 198:snake.c       ****       menu.headerColor   = 0;
 921              		.loc 1 198 0
 922 049c 8170     		strb	r1, [r0, #2]
 197:snake.c       ****       menu.borderColor   = 0x6d;
 923              		.loc 1 197 0
 924 049e 6D24     		mov	r4, #109
 190:snake.c       ****       menu.noOfChoices = 2;
 925              		.loc 1 190 0
 926 04a0 0222     		mov	r2, #2
 199:snake.c       ****       menu.choicesColor  = 0xfd;
 927              		.loc 1 199 0
 928 04a2 6946     		mov	r1, sp
 190:snake.c       ****       menu.noOfChoices = 2;
 929              		.loc 1 190 0
 930 04a4 1A71     		strb	r2, [r3, #4]
 197:snake.c       ****       menu.borderColor   = 0x6d;
 931              		.loc 1 197 0
 932 04a6 4470     		strb	r4, [r0, #1]
 199:snake.c       ****       menu.choicesColor  = 0xfd;
ARM GAS  C:\Users\KOZLOV~1\AppData\Local\Temp\ccSDYAug.s 			page 27


 933              		.loc 1 199 0
 934 04a8 5331     		add	r1, r1, #83
 935 04aa FD20     		mov	r0, #253
 192:snake.c       ****       menu.pHeaderText = "Game over!";
 936              		.loc 1 192 0
 937 04ac 154A     		ldr	r2, .L67+36
 199:snake.c       ****       menu.choicesColor  = 0xfd;
 938              		.loc 1 199 0
 939 04ae 0870     		strb	r0, [r1]
 200:snake.c       ****       menu.selectedColor = 0xe0;
 940              		.loc 1 200 0
 941 04b0 E020     		mov	r0, #224
 942 04b2 15A9     		add	r1, sp, #84
 943 04b4 0870     		strb	r0, [r1]
 192:snake.c       ****       menu.pHeaderText = "Game over!";
 944              		.loc 1 192 0
 945 04b6 0C92     		str	r2, [sp, #48]
 202:snake.c       ****       switch(drawMenu(menu))
 946              		.loc 1 202 0
 947 04b8 0EA9     		add	r1, sp, #56
 948 04ba 6846     		mov	r0, sp
 949 04bc 70C9     		ldmia	r1!, {r4, r5, r6}
 950 04be 70C0     		stmia	r0!, {r4, r5, r6}
 951 04c0 70C9     		ldmia	r1!, {r4, r5, r6}
 952 04c2 70C0     		stmia	r0!, {r4, r5, r6}
 953 04c4 30C9     		ldmia	r1!, {r4, r5}
 954 04c6 30C0     		stmia	r0!, {r4, r5}
 955 04c8 0A98     		ldr	r0, [sp, #40]
 956 04ca 0B99     		ldr	r1, [sp, #44]
 957 04cc 0D9B     		ldr	r3, [sp, #52]
 958 04ce FFF7FEFF 		bl	drawMenu
 959 04d2 0128     		cmp	r0, #1
 960 04d4 00D0     		beq	.LCB798
 961 04d6 03E7     		b	.L40	@long jump
 962              	.LCB798:
 963              	.LBE3:
 211:snake.c       **** }
 964              		.loc 1 211 0
 965 04d8 16B0     		add	sp, sp, #88
 966              		@ sp needed for prologue
 967              	.LVL39:
 968 04da F0BC     		pop	{r4, r5, r6, r7}
 969 04dc 01BC     		pop	{r0}
 970 04de 0047     		bx	r0
 971              	.L68:
 972              		.align	2
 973              	.L67:
 974 04e0 00020000 		.word	.LANCHOR2
 975 04e4 00000000 		.word	.LANCHOR1
 976 04e8 80020000 		.word	.LANCHOR3
 977 04ec 00000000 		.word	ms
 978 04f0 00000000 		.word	.LANCHOR0
 979 04f4 00000000 		.word	snake
 980 04f8 0D000000 		.word	.LANCHOR1+13
 981 04fc 11000000 		.word	.LC26
 982 0500 1E000000 		.word	.LC28
 983 0504 06000000 		.word	.LC24
ARM GAS  C:\Users\KOZLOV~1\AppData\Local\Temp\ccSDYAug.s 			page 28


 984              		.cfi_endproc
 985              	.LFE0:
 986              		.size	playSnake, .-playSnake
 987              		.comm	snake,800,4
 988              		.section	.rodata.str1.1,"aMS",%progbits,1
 989              	.LC7:
 990 0000 536E616B 		.ascii	"Snake\000"
 990      6500
 991              	.LC24:
 992 0006 47616D65 		.ascii	"Game over!\000"
 992      206F7665 
 992      722100
 993              	.LC26:
 994 0011 52657374 		.ascii	"Restart game\000"
 994      61727420 
 994      67616D65 
 994      00
 995              	.LC28:
 996 001e 456E6420 		.ascii	"End game\000"
 996      67616D65 
 996      00
 997              		.data
 998              		.set	.LANCHOR0,. + 0
 999              		.type	direction, %object
 1000              		.size	direction, 1
 1001              	direction:
 1002 0000 02       		.byte	2
 1003              		.bss
 1004              		.align	2
 1005              		.set	.LANCHOR1,. + 0
 1006              		.set	.LANCHOR2,. + 512
 1007              		.set	.LANCHOR3,. + 640
 1008              		.type	snakeLength, %object
 1009              		.size	snakeLength, 4
 1010              	snakeLength:
 1011 0000 00000000 		.space	4
 1012              		.type	level, %object
 1013              		.size	level, 4
 1014              	level:
 1015 0004 00000000 		.space	4
 1016              		.type	score, %object
 1017              		.size	score, 4
 1018              	score:
 1019 0008 00000000 		.space	4
 1020              		.type	firstPress, %object
 1021              		.size	firstPress, 1
 1022              	firstPress:
 1023 000c 00       		.space	1
 1024              		.type	screenGrid, %object
 1025              		.size	screenGrid, 620
 1026              	screenGrid:
 1027 000d 00000000 		.space	620
 1027      00000000 
 1027      00000000 
 1027      00000000 
 1027      00000000 
 1028 0279 000000   		.space	3
ARM GAS  C:\Users\KOZLOV~1\AppData\Local\Temp\ccSDYAug.s 			page 29


 1029              		.type	obstacles, %object
 1030              		.size	obstacles, 4
 1031              	obstacles:
 1032 027c 00000000 		.space	4
 1033              		.type	speed, %object
 1034              		.size	speed, 4
 1035              	speed:
 1036 0280 00000000 		.space	4
 1037              		.type	high_score, %object
 1038              		.size	high_score, 4
 1039              	high_score:
 1040 0284 00000000 		.space	4
 1041              		.text
 1042              	.Letext0:
 1043              		.file 2 "./startup/../pre_emptive_os/api/../api/general.h"
 1044              		.file 3 "select.h"