ARM GAS  C:\Users\KOZLOV~1\AppData\Local\Temp\ccBbgZxi.s 			page 1


   1              		.file	"framework.c"
   2              		.text
   3              	.Ltext0:
   4              		.cfi_sections	.debug_frame
   5              		.align	2
   6              		.type	exceptionHandlerIrq, %function
   7              	exceptionHandlerIrq:
   8              	.LFB5:
   9              		.file 1 "framework.c"
   1:framework.c   **** /******************************************************************************
   2:framework.c   ****  *
   3:framework.c   ****  * Copyright:
   4:framework.c   ****  *    (C) 2000 - 2005 Embedded Artists AB
   5:framework.c   ****  *
   6:framework.c   ****  * Description:
   7:framework.c   ****  *    Framework for ARM7 processor
   8:framework.c   ****  *
   9:framework.c   ****  *****************************************************************************/
  10:framework.c   **** 
  11:framework.c   **** /******************************************************************************
  12:framework.c   ****  * Includes
  13:framework.c   ****  *****************************************************************************/
  14:framework.c   **** #include "lpc2xxx.h"                            /* LPC2xxx definitions */
  15:framework.c   **** #include "config.h"
  16:framework.c   **** #include "framework.h"
  17:framework.c   **** #include "consol.h"
  18:framework.c   **** #ifdef __IAR_SYSTEMS_ICC__
  19:framework.c   **** #include <intrinsic.h>
  20:framework.c   **** #endif
  21:framework.c   **** 
  22:framework.c   **** /******************************************************************************
  23:framework.c   ****  * Defines, macros, and typedefs
  24:framework.c   ****  *****************************************************************************/
  25:framework.c   **** 
  26:framework.c   **** 
  27:framework.c   **** /******************************************************************************
  28:framework.c   ****  * External variables
  29:framework.c   ****  *****************************************************************************/
  30:framework.c   **** #ifndef __IAR_SYSTEMS_ICC__
  31:framework.c   **** extern char end asm ("end");  //the symbol "end" is defined by the linker script
  32:framework.c   **** 
  33:framework.c   **** /******************************************************************************
  34:framework.c   ****  * Public variables
  35:framework.c   ****  *****************************************************************************/
  36:framework.c   **** unsigned char *pHeapStart;
  37:framework.c   **** unsigned char *pHeapEnd;
  38:framework.c   **** #endif
  39:framework.c   **** 
  40:framework.c   **** 
  41:framework.c   **** /******************************************************************************
  42:framework.c   ****  * External functions
  43:framework.c   ****  *****************************************************************************/
  44:framework.c   **** 
  45:framework.c   **** 
  46:framework.c   **** /******************************************************************************
  47:framework.c   ****  * Public functions
  48:framework.c   ****  *****************************************************************************/
ARM GAS  C:\Users\KOZLOV~1\AppData\Local\Temp\ccBbgZxi.s 			page 2


  49:framework.c   **** void lowLevelInit(void);
  50:framework.c   **** void eaInit(void);
  51:framework.c   **** void exceptionHandlerInit(void);
  52:framework.c   **** 
  53:framework.c   **** /******************************************************************************
  54:framework.c   ****  * Implementation of local functions
  55:framework.c   ****  *****************************************************************************/
  56:framework.c   **** 
  57:framework.c   **** /*****************************************************************************
  58:framework.c   ****  *
  59:framework.c   ****  * Description:
  60:framework.c   ****  *    Default exception handler for undefined instruction.
  61:framework.c   ****  *    Prints information and halt. Observe that code execture in exception
  62:framework.c   ****  *    mode (as opposed to supervisor mode, which is the normal execution mode).
  63:framework.c   ****  *
  64:framework.c   ****  ****************************************************************************/
  65:framework.c   **** #ifdef __IAR_SYSTEMS_ICC__
  66:framework.c   **** __arm
  67:framework.c   **** #endif
  68:framework.c   **** static void
  69:framework.c   **** exceptionHandlerUndef(void)
  70:framework.c   **** {
  71:framework.c   **** #ifdef __IAR_SYSTEMS_ICC__
  72:framework.c   ****   register unsigned int programCounter;
  73:framework.c   ****   asm("  mov r0, lr");
  74:framework.c   **** #else
  75:framework.c   ****   register unsigned int programCounter asm ("lr");
  76:framework.c   **** #endif
  77:framework.c   ****   unsigned int          value = programCounter - (unsigned int)0x04;
  78:framework.c   **** 
  79:framework.c   ****   consolSendString("Undefined instruction exception !!!\nAddress: 0x");
  80:framework.c   ****   consolSendNumber(16, 8, 0, '0', value); 
  81:framework.c   ****   while(1)
  82:framework.c   ****     ;
  83:framework.c   **** }
  84:framework.c   **** 
  85:framework.c   **** /*****************************************************************************
  86:framework.c   ****  *
  87:framework.c   ****  * Description:
  88:framework.c   ****  *    Default exception handler for software interrupt.
  89:framework.c   ****  *    Prints information and halt. Observe that code execture in exception
  90:framework.c   ****  *    mode (as opposed to supervisor mode, which is the normal execution mode).
  91:framework.c   ****  *
  92:framework.c   ****  ****************************************************************************/
  93:framework.c   **** #ifdef __IAR_SYSTEMS_ICC__
  94:framework.c   **** __arm
  95:framework.c   **** #endif
  96:framework.c   **** static void
  97:framework.c   **** exceptionHandlerSwi(void)
  98:framework.c   **** {
  99:framework.c   **** #ifdef __IAR_SYSTEMS_ICC__
 100:framework.c   ****   register unsigned int programCounter;
 101:framework.c   ****   asm("  mov r0, lr");
 102:framework.c   **** #else
 103:framework.c   ****   register unsigned int programCounter asm ("lr");
 104:framework.c   **** #endif
 105:framework.c   ****   unsigned int          value = programCounter - (unsigned int)0x04;
ARM GAS  C:\Users\KOZLOV~1\AppData\Local\Temp\ccBbgZxi.s 			page 3


 106:framework.c   **** 
 107:framework.c   ****   consolSendString("SWI exception !!!\nAddress: 0x");
 108:framework.c   ****   consolSendNumber(16, 8, 0, '0', value); 
 109:framework.c   ****   while(1)
 110:framework.c   ****     ;
 111:framework.c   **** }
 112:framework.c   **** 
 113:framework.c   **** /*****************************************************************************
 114:framework.c   ****  *
 115:framework.c   ****  * Description:
 116:framework.c   ****  *    Default exception handler for invalid program fetch.
 117:framework.c   ****  *    Prints information and halt. Observe that code execture in exception
 118:framework.c   ****  *    mode (as opposed to supervisor mode, which is the normal execution mode).
 119:framework.c   ****  *
 120:framework.c   ****  ****************************************************************************/
 121:framework.c   **** #ifdef __IAR_SYSTEMS_ICC__
 122:framework.c   **** __arm
 123:framework.c   **** #endif
 124:framework.c   **** static void
 125:framework.c   **** exceptionHandlerPabort()
 126:framework.c   **** {
 127:framework.c   **** #ifdef __IAR_SYSTEMS_ICC__
 128:framework.c   ****   register unsigned int programCounter;
 129:framework.c   ****   asm("  mov r0, lr");
 130:framework.c   **** #else
 131:framework.c   ****   register unsigned int programCounter asm ("lr");
 132:framework.c   **** #endif
 133:framework.c   ****   unsigned int          value = programCounter - (unsigned int)0x04;
 134:framework.c   **** 
 135:framework.c   ****   consolSendString("Pabort exception !!!\nAddress: 0x");
 136:framework.c   ****   consolSendNumber(16, 8, 0, '0', value); 
 137:framework.c   ****   while(1)
 138:framework.c   ****     ;
 139:framework.c   **** }
 140:framework.c   **** 
 141:framework.c   **** /*****************************************************************************
 142:framework.c   ****  *
 143:framework.c   ****  * Description:
 144:framework.c   ****  *    Default exception handler for invalid data access.
 145:framework.c   ****  *    Prints information and halt. Observe that code execture in exception
 146:framework.c   ****  *    mode (as opposed to supervisor mode, which is the normal execution mode).
 147:framework.c   ****  *
 148:framework.c   ****  ****************************************************************************/
 149:framework.c   **** #ifdef __IAR_SYSTEMS_ICC__
 150:framework.c   **** __arm
 151:framework.c   **** #endif
 152:framework.c   **** static void
 153:framework.c   **** exceptionHandlerDabort(void)
 154:framework.c   **** {
 155:framework.c   **** #ifdef __IAR_SYSTEMS_ICC__
 156:framework.c   ****   register unsigned int programCounter;
 157:framework.c   ****   asm("  mov r0, lr");
 158:framework.c   **** #else
 159:framework.c   ****   register unsigned int programCounter asm ("lr");
 160:framework.c   **** #endif
 161:framework.c   ****   unsigned int          value = programCounter - (unsigned int)0x08;
 162:framework.c   **** 
ARM GAS  C:\Users\KOZLOV~1\AppData\Local\Temp\ccBbgZxi.s 			page 4


 163:framework.c   ****   consolSendString("Dabort exception !!!\nAddress: 0x");
 164:framework.c   ****   consolSendNumber(16, 8, 0, '0', value); 
 165:framework.c   ****   while(1)
 166:framework.c   ****     ;
 167:framework.c   **** }
 168:framework.c   **** 
 169:framework.c   **** /*****************************************************************************
 170:framework.c   ****  *
 171:framework.c   ****  * Description:
 172:framework.c   ****  *    Default exception handler for fast interrupts.
 173:framework.c   ****  *    Prints information and halt. Observe that code execture in exception
 174:framework.c   ****  *    mode (as opposed to supervisor mode, which is the normal execution mode).
 175:framework.c   ****  *
 176:framework.c   ****  ****************************************************************************/
 177:framework.c   **** #ifdef __IAR_SYSTEMS_ICC__
 178:framework.c   **** __arm
 179:framework.c   **** #endif
 180:framework.c   **** static void
 181:framework.c   **** exceptionHandlerFiq(void)
 182:framework.c   **** {
 183:framework.c   **** #ifdef __IAR_SYSTEMS_ICC__
 184:framework.c   ****   register unsigned int programCounter;
 185:framework.c   ****   asm("  mov r0, lr");
 186:framework.c   **** #else
 187:framework.c   ****   register unsigned int programCounter asm ("lr");
 188:framework.c   **** #endif
 189:framework.c   **** 
 190:framework.c   ****   unsigned int          value = programCounter - (unsigned int)0x04;
 191:framework.c   **** 
 192:framework.c   ****   consolSendString("FIQ exception !!!\nAddress: 0x");
 193:framework.c   ****   consolSendNumber(16, 8, 0, '0', value); 
 194:framework.c   ****   while(1)
 195:framework.c   ****     ;
 196:framework.c   **** }
 197:framework.c   **** 
 198:framework.c   **** #if (IRQ_HANDLER == 0)
 199:framework.c   **** /*****************************************************************************
 200:framework.c   ****  *
 201:framework.c   ****  * Description:
 202:framework.c   ****  *    Default exception handler for normal interrupts. This handler should
 203:framework.c   ****  *    normally never be used.
 204:framework.c   ****  *    Prints information and halt. Observe that code execture in exception
 205:framework.c   ****  *    mode (as opposed to supervisor mode, which is the normal execution mode).
 206:framework.c   ****  *
 207:framework.c   ****  ****************************************************************************/
 208:framework.c   **** #ifdef __IAR_SYSTEMS_ICC__
 209:framework.c   **** __arm
 210:framework.c   **** #endif
 211:framework.c   **** static void
 212:framework.c   **** exceptionHandlerIrq(void)
 213:framework.c   **** {
  10              		.loc 1 213 0
  11              		.cfi_startproc
  12              		@ Function supports interworking.
  13              		@ args = 0, pretend = 0, frame = 0
  14              		@ frame_needed = 0, uses_anonymous_args = 0
  15 0000 11402DE9 		stmfd	sp!, {r0, r4, lr}
ARM GAS  C:\Users\KOZLOV~1\AppData\Local\Temp\ccBbgZxi.s 			page 5


  16              	.LCFI0:
  17              		.cfi_def_cfa_offset 12
  18              		.cfi_offset 14, -4
  19              		.cfi_offset 4, -8
  20              		.cfi_offset 0, -12
  21              	.LVL0:
 214:framework.c   **** #ifdef __IAR_SYSTEMS_ICC__
 215:framework.c   ****   register unsigned int programCounter;
 216:framework.c   ****   asm("  mov r0, lr");
 217:framework.c   **** #else
 218:framework.c   ****   register unsigned int programCounter asm ("lr");
 219:framework.c   **** #endif
 220:framework.c   ****   unsigned int          value = programCounter - (unsigned int)0x04;
  22              		.loc 1 220 0
  23 0004 0E40A0E1 		mov	r4, lr
  24              	.LVL1:
 221:framework.c   **** 
 222:framework.c   ****   consolSendString("IRQ exception !!!\nAddress: 0x");
  25              		.loc 1 222 0
  26 0008 20009FE5 		ldr	r0, .L3
  27 000c FEFFFFEB 		bl	consolSendString
  28              	.LVL2:
 220:framework.c   ****   unsigned int          value = programCounter - (unsigned int)0x04;
  29              		.loc 1 220 0
  30 0010 044044E2 		sub	r4, r4, #4
  31              	.LVL3:
 223:framework.c   ****   consolSendNumber(16, 8, 0, '0', value); 
  32              		.loc 1 223 0
  33 0014 1000A0E3 		mov	r0, #16
  34 0018 0810A0E3 		mov	r1, #8
  35 001c 0020A0E3 		mov	r2, #0
  36 0020 3030A0E3 		mov	r3, #48
  37 0024 00408DE5 		str	r4, [sp, #0]
  38 0028 FEFFFFEB 		bl	consolSendNumber
  39              	.L2:
  40 002c FEFFFFEA 		b	.L2
  41              	.L4:
  42              		.align	2
  43              	.L3:
  44 0030 00000000 		.word	.LC0
  45              		.cfi_endproc
  46              	.LFE5:
  47              		.size	exceptionHandlerIrq, .-exceptionHandlerIrq
  48              		.align	2
  49              		.type	exceptionHandlerFiq, %function
  50              	exceptionHandlerFiq:
  51              	.LFB4:
 182:framework.c   **** {
  52              		.loc 1 182 0
  53              		.cfi_startproc
  54              		@ Function supports interworking.
  55              		@ args = 0, pretend = 0, frame = 0
  56              		@ frame_needed = 0, uses_anonymous_args = 0
  57 0034 11402DE9 		stmfd	sp!, {r0, r4, lr}
  58              	.LCFI1:
  59              		.cfi_def_cfa_offset 12
  60              		.cfi_offset 14, -4
ARM GAS  C:\Users\KOZLOV~1\AppData\Local\Temp\ccBbgZxi.s 			page 6


  61              		.cfi_offset 4, -8
  62              		.cfi_offset 0, -12
  63              	.LVL4:
 190:framework.c   ****   unsigned int          value = programCounter - (unsigned int)0x04;
  64              		.loc 1 190 0
  65 0038 0E40A0E1 		mov	r4, lr
  66              	.LVL5:
 192:framework.c   ****   consolSendString("FIQ exception !!!\nAddress: 0x");
  67              		.loc 1 192 0
  68 003c 20009FE5 		ldr	r0, .L7
  69 0040 FEFFFFEB 		bl	consolSendString
  70              	.LVL6:
 190:framework.c   ****   unsigned int          value = programCounter - (unsigned int)0x04;
  71              		.loc 1 190 0
  72 0044 044044E2 		sub	r4, r4, #4
  73              	.LVL7:
 193:framework.c   ****   consolSendNumber(16, 8, 0, '0', value); 
  74              		.loc 1 193 0
  75 0048 1000A0E3 		mov	r0, #16
  76 004c 0810A0E3 		mov	r1, #8
  77 0050 0020A0E3 		mov	r2, #0
  78 0054 3030A0E3 		mov	r3, #48
  79 0058 00408DE5 		str	r4, [sp, #0]
  80 005c FEFFFFEB 		bl	consolSendNumber
  81              	.L6:
  82 0060 FEFFFFEA 		b	.L6
  83              	.L8:
  84              		.align	2
  85              	.L7:
  86 0064 1E000000 		.word	.LC1
  87              		.cfi_endproc
  88              	.LFE4:
  89              		.size	exceptionHandlerFiq, .-exceptionHandlerFiq
  90              		.align	2
  91              		.type	exceptionHandlerDabort, %function
  92              	exceptionHandlerDabort:
  93              	.LFB3:
 154:framework.c   **** {
  94              		.loc 1 154 0
  95              		.cfi_startproc
  96              		@ Function supports interworking.
  97              		@ args = 0, pretend = 0, frame = 0
  98              		@ frame_needed = 0, uses_anonymous_args = 0
  99 0068 11402DE9 		stmfd	sp!, {r0, r4, lr}
 100              	.LCFI2:
 101              		.cfi_def_cfa_offset 12
 102              		.cfi_offset 14, -4
 103              		.cfi_offset 4, -8
 104              		.cfi_offset 0, -12
 105              	.LVL8:
 161:framework.c   ****   unsigned int          value = programCounter - (unsigned int)0x08;
 106              		.loc 1 161 0
 107 006c 0E40A0E1 		mov	r4, lr
 108              	.LVL9:
 163:framework.c   ****   consolSendString("Dabort exception !!!\nAddress: 0x");
 109              		.loc 1 163 0
 110 0070 20009FE5 		ldr	r0, .L11
ARM GAS  C:\Users\KOZLOV~1\AppData\Local\Temp\ccBbgZxi.s 			page 7


 111 0074 FEFFFFEB 		bl	consolSendString
 112              	.LVL10:
 161:framework.c   ****   unsigned int          value = programCounter - (unsigned int)0x08;
 113              		.loc 1 161 0
 114 0078 084044E2 		sub	r4, r4, #8
 115              	.LVL11:
 164:framework.c   ****   consolSendNumber(16, 8, 0, '0', value); 
 116              		.loc 1 164 0
 117 007c 1000A0E3 		mov	r0, #16
 118 0080 0810A0E3 		mov	r1, #8
 119 0084 0020A0E3 		mov	r2, #0
 120 0088 3030A0E3 		mov	r3, #48
 121 008c 00408DE5 		str	r4, [sp, #0]
 122 0090 FEFFFFEB 		bl	consolSendNumber
 123              	.L10:
 124 0094 FEFFFFEA 		b	.L10
 125              	.L12:
 126              		.align	2
 127              	.L11:
 128 0098 3C000000 		.word	.LC2
 129              		.cfi_endproc
 130              	.LFE3:
 131              		.size	exceptionHandlerDabort, .-exceptionHandlerDabort
 132              		.align	2
 133              		.type	exceptionHandlerPabort, %function
 134              	exceptionHandlerPabort:
 135              	.LFB2:
 126:framework.c   **** {
 136              		.loc 1 126 0
 137              		.cfi_startproc
 138              		@ Function supports interworking.
 139              		@ args = 0, pretend = 0, frame = 0
 140              		@ frame_needed = 0, uses_anonymous_args = 0
 141 009c 11402DE9 		stmfd	sp!, {r0, r4, lr}
 142              	.LCFI3:
 143              		.cfi_def_cfa_offset 12
 144              		.cfi_offset 14, -4
 145              		.cfi_offset 4, -8
 146              		.cfi_offset 0, -12
 147              	.LVL12:
 133:framework.c   ****   unsigned int          value = programCounter - (unsigned int)0x04;
 148              		.loc 1 133 0
 149 00a0 0E40A0E1 		mov	r4, lr
 150              	.LVL13:
 135:framework.c   ****   consolSendString("Pabort exception !!!\nAddress: 0x");
 151              		.loc 1 135 0
 152 00a4 20009FE5 		ldr	r0, .L15
 153 00a8 FEFFFFEB 		bl	consolSendString
 154              	.LVL14:
 133:framework.c   ****   unsigned int          value = programCounter - (unsigned int)0x04;
 155              		.loc 1 133 0
 156 00ac 044044E2 		sub	r4, r4, #4
 157              	.LVL15:
 136:framework.c   ****   consolSendNumber(16, 8, 0, '0', value); 
 158              		.loc 1 136 0
 159 00b0 1000A0E3 		mov	r0, #16
 160 00b4 0810A0E3 		mov	r1, #8
ARM GAS  C:\Users\KOZLOV~1\AppData\Local\Temp\ccBbgZxi.s 			page 8


 161 00b8 0020A0E3 		mov	r2, #0
 162 00bc 3030A0E3 		mov	r3, #48
 163 00c0 00408DE5 		str	r4, [sp, #0]
 164 00c4 FEFFFFEB 		bl	consolSendNumber
 165              	.L14:
 166 00c8 FEFFFFEA 		b	.L14
 167              	.L16:
 168              		.align	2
 169              	.L15:
 170 00cc 5D000000 		.word	.LC3
 171              		.cfi_endproc
 172              	.LFE2:
 173              		.size	exceptionHandlerPabort, .-exceptionHandlerPabort
 174              		.align	2
 175              		.type	exceptionHandlerSwi, %function
 176              	exceptionHandlerSwi:
 177              	.LFB1:
  98:framework.c   **** {
 178              		.loc 1 98 0
 179              		.cfi_startproc
 180              		@ Function supports interworking.
 181              		@ args = 0, pretend = 0, frame = 0
 182              		@ frame_needed = 0, uses_anonymous_args = 0
 183 00d0 11402DE9 		stmfd	sp!, {r0, r4, lr}
 184              	.LCFI4:
 185              		.cfi_def_cfa_offset 12
 186              		.cfi_offset 14, -4
 187              		.cfi_offset 4, -8
 188              		.cfi_offset 0, -12
 189              	.LVL16:
 105:framework.c   ****   unsigned int          value = programCounter - (unsigned int)0x04;
 190              		.loc 1 105 0
 191 00d4 0E40A0E1 		mov	r4, lr
 192              	.LVL17:
 107:framework.c   ****   consolSendString("SWI exception !!!\nAddress: 0x");
 193              		.loc 1 107 0
 194 00d8 20009FE5 		ldr	r0, .L19
 195 00dc FEFFFFEB 		bl	consolSendString
 196              	.LVL18:
 105:framework.c   ****   unsigned int          value = programCounter - (unsigned int)0x04;
 197              		.loc 1 105 0
 198 00e0 044044E2 		sub	r4, r4, #4
 199              	.LVL19:
 108:framework.c   ****   consolSendNumber(16, 8, 0, '0', value); 
 200              		.loc 1 108 0
 201 00e4 1000A0E3 		mov	r0, #16
 202 00e8 0810A0E3 		mov	r1, #8
 203 00ec 0020A0E3 		mov	r2, #0
 204 00f0 3030A0E3 		mov	r3, #48
 205 00f4 00408DE5 		str	r4, [sp, #0]
 206 00f8 FEFFFFEB 		bl	consolSendNumber
 207              	.L18:
 208 00fc FEFFFFEA 		b	.L18
 209              	.L20:
 210              		.align	2
 211              	.L19:
 212 0100 7E000000 		.word	.LC4
ARM GAS  C:\Users\KOZLOV~1\AppData\Local\Temp\ccBbgZxi.s 			page 9


 213              		.cfi_endproc
 214              	.LFE1:
 215              		.size	exceptionHandlerSwi, .-exceptionHandlerSwi
 216              		.align	2
 217              		.type	exceptionHandlerUndef, %function
 218              	exceptionHandlerUndef:
 219              	.LFB0:
  70:framework.c   **** {
 220              		.loc 1 70 0
 221              		.cfi_startproc
 222              		@ Function supports interworking.
 223              		@ args = 0, pretend = 0, frame = 0
 224              		@ frame_needed = 0, uses_anonymous_args = 0
 225 0104 11402DE9 		stmfd	sp!, {r0, r4, lr}
 226              	.LCFI5:
 227              		.cfi_def_cfa_offset 12
 228              		.cfi_offset 14, -4
 229              		.cfi_offset 4, -8
 230              		.cfi_offset 0, -12
 231              	.LVL20:
  77:framework.c   ****   unsigned int          value = programCounter - (unsigned int)0x04;
 232              		.loc 1 77 0
 233 0108 0E40A0E1 		mov	r4, lr
 234              	.LVL21:
  79:framework.c   ****   consolSendString("Undefined instruction exception !!!\nAddress: 0x");
 235              		.loc 1 79 0
 236 010c 20009FE5 		ldr	r0, .L23
 237 0110 FEFFFFEB 		bl	consolSendString
 238              	.LVL22:
  77:framework.c   ****   unsigned int          value = programCounter - (unsigned int)0x04;
 239              		.loc 1 77 0
 240 0114 044044E2 		sub	r4, r4, #4
 241              	.LVL23:
  80:framework.c   ****   consolSendNumber(16, 8, 0, '0', value); 
 242              		.loc 1 80 0
 243 0118 1000A0E3 		mov	r0, #16
 244 011c 0810A0E3 		mov	r1, #8
 245 0120 0020A0E3 		mov	r2, #0
 246 0124 3030A0E3 		mov	r3, #48
 247 0128 00408DE5 		str	r4, [sp, #0]
 248 012c FEFFFFEB 		bl	consolSendNumber
 249              	.L22:
 250 0130 FEFFFFEA 		b	.L22
 251              	.L24:
 252              		.align	2
 253              	.L23:
 254 0134 9C000000 		.word	.LC5
 255              		.cfi_endproc
 256              	.LFE0:
 257              		.size	exceptionHandlerUndef, .-exceptionHandlerUndef
 258              		.align	2
 259              		.global	exceptionHandlerInit
 260              		.type	exceptionHandlerInit, %function
 261              	exceptionHandlerInit:
 262              	.LFB6:
 224:framework.c   ****   while(1)
 225:framework.c   ****     ;
ARM GAS  C:\Users\KOZLOV~1\AppData\Local\Temp\ccBbgZxi.s 			page 10


 226:framework.c   **** }
 227:framework.c   **** #endif
 228:framework.c   **** 
 229:framework.c   **** /******************************************************************************
 230:framework.c   ****  * Implementation of public functions
 231:framework.c   ****  *****************************************************************************/
 232:framework.c   **** 
 233:framework.c   **** /*****************************************************************************
 234:framework.c   ****  *
 235:framework.c   ****  * Description:
 236:framework.c   ****  *    Connect all default exception handlers.
 237:framework.c   ****  *    The application can overwrite these handlers with new ones.
 238:framework.c   ****  *
 239:framework.c   ****  ****************************************************************************/
 240:framework.c   **** void
 241:framework.c   **** exceptionHandlerInit(void)
 242:framework.c   **** {
 263              		.loc 1 242 0
 264              		.cfi_startproc
 265              		@ Function supports interworking.
 266              		@ args = 0, pretend = 0, frame = 0
 267              		@ frame_needed = 0, uses_anonymous_args = 0
 268              		@ link register save eliminated.
 243:framework.c   ****   pISR_UNDEF  = (unsigned int)exceptionHandlerUndef;
 269              		.loc 1 243 0
 270 0138 48209FE5 		ldr	r2, .L26
 271 013c 0131A0E3 		mov	r3, #1073741824
 272 0140 242083E5 		str	r2, [r3, #36]
 244:framework.c   ****   pISR_SWI    = (unsigned int)exceptionHandlerSwi;
 273              		.loc 1 244 0
 274 0144 40209FE5 		ldr	r2, .L26+4
 275 0148 282083E5 		str	r2, [r3, #40]
 245:framework.c   ****   pISR_PABORT = (unsigned int)exceptionHandlerPabort;
 276              		.loc 1 245 0
 277 014c 3C209FE5 		ldr	r2, .L26+8
 278 0150 2C2083E5 		str	r2, [r3, #44]
 246:framework.c   ****   pISR_DABORT = (unsigned int)exceptionHandlerDabort;
 279              		.loc 1 246 0
 280 0154 38209FE5 		ldr	r2, .L26+12
 281 0158 302083E5 		str	r2, [r3, #48]
 247:framework.c   ****   pISR_FIQ    = (unsigned int)exceptionHandlerFiq;
 282              		.loc 1 247 0
 283 015c 34209FE5 		ldr	r2, .L26+16
 284 0160 382083E5 		str	r2, [r3, #56]
 248:framework.c   **** 
 249:framework.c   **** #if (IRQ_HANDLER == 0)
 250:framework.c   ****   pISR_IRQ    = (unsigned int)exceptionHandlerIrq;
 285              		.loc 1 250 0
 286 0164 30209FE5 		ldr	r2, .L26+20
 287 0168 342083E5 		str	r2, [r3, #52]
 251:framework.c   **** #endif
 252:framework.c   **** 
 253:framework.c   **** #ifndef __IAR_SYSTEMS_ICC__
 254:framework.c   ****   //set heap limits
 255:framework.c   ****   pHeapStart = &end;
 288              		.loc 1 255 0
 289 016c 2C209FE5 		ldr	r2, .L26+24
ARM GAS  C:\Users\KOZLOV~1\AppData\Local\Temp\ccBbgZxi.s 			page 11


 290 0170 2C309FE5 		ldr	r3, .L26+28
 291 0174 002083E5 		str	r2, [r3, #0]
 256:framework.c   ****   pHeapEnd   = (unsigned char*)((STK_SADDR - 1) & 0xfffffffc);
 292              		.loc 1 256 0
 293 0178 28209FE5 		ldr	r2, .L26+32
 294 017c 28309FE5 		ldr	r3, .L26+36
 295 0180 002083E5 		str	r2, [r3, #0]
 257:framework.c   **** #endif
 258:framework.c   **** }
 296              		.loc 1 258 0
 297 0184 1EFF2FE1 		bx	lr
 298              	.L27:
 299              		.align	2
 300              	.L26:
 301 0188 00000000 		.word	exceptionHandlerUndef
 302 018c 00000000 		.word	exceptionHandlerSwi
 303 0190 00000000 		.word	exceptionHandlerPabort
 304 0194 00000000 		.word	exceptionHandlerDabort
 305 0198 00000000 		.word	exceptionHandlerFiq
 306 019c 00000000 		.word	exceptionHandlerIrq
 307 01a0 00000000 		.word	end
 308 01a4 00000000 		.word	pHeapStart
 309 01a8 A4340040 		.word	1073755300
 310 01ac 00000000 		.word	pHeapEnd
 311              		.cfi_endproc
 312              	.LFE6:
 313              		.size	exceptionHandlerInit, .-exceptionHandlerInit
 314              		.align	2
 315              		.global	lowLevelInit
 316              		.type	lowLevelInit, %function
 317              	lowLevelInit:
 318              	.LFB7:
 259:framework.c   **** 
 260:framework.c   **** /*****************************************************************************
 261:framework.c   ****  *
 262:framework.c   ****  * Description:
 263:framework.c   ****  *    Initialize system functions and GPIO
 264:framework.c   ****  *
 265:framework.c   ****  ****************************************************************************/
 266:framework.c   **** void
 267:framework.c   **** lowLevelInit(void)
 268:framework.c   **** {
 319              		.loc 1 268 0
 320              		.cfi_startproc
 321              		@ Function supports interworking.
 322              		@ args = 0, pretend = 0, frame = 0
 323              		@ frame_needed = 0, uses_anonymous_args = 0
 324              		@ link register save eliminated.
 269:framework.c   ****   PINSEL0 = 0x00000000;  
 325              		.loc 1 269 0
 326 01b0 9C209FE5 		ldr	r2, .L29
 327 01b4 0030A0E3 		mov	r3, #0
 270:framework.c   ****   PINSEL1 = 0x00000000;  
 271:framework.c   **** 
 272:framework.c   ****   IOSET = 0x00000000;       //Initialize pins to high level
 328              		.loc 1 272 0
 329 01b8 98109FE5 		ldr	r1, .L29+4
ARM GAS  C:\Users\KOZLOV~1\AppData\Local\Temp\ccBbgZxi.s 			page 12


 269:framework.c   ****   PINSEL0 = 0x00000000;  
 330              		.loc 1 269 0
 331 01bc 003082E5 		str	r3, [r2, #0]
 270:framework.c   ****   PINSEL1 = 0x00000000;  
 332              		.loc 1 270 0
 333 01c0 043082E5 		str	r3, [r2, #4]
 273:framework.c   ****   IOCLR = 0xffffffff;       //Initialize pins to low level
 334              		.loc 1 273 0
 335 01c4 0020E0E3 		mvn	r2, #0
 272:framework.c   ****   IOSET = 0x00000000;       //Initialize pins to high level
 336              		.loc 1 272 0
 337 01c8 043081E5 		str	r3, [r1, #4]
 274:framework.c   ****   IODIR = 0x00000000;       //Set pin direction
 275:framework.c   **** 
 276:framework.c   ****   //initialize the MAM (Memory Accelerator Module)
 277:framework.c   ****   MAMTIM = MAM_TIMING;       //number of CCLK to read from the FLASH
 338              		.loc 1 277 0
 339 01cc 0300A0E3 		mov	r0, #3
 273:framework.c   ****   IOCLR = 0xffffffff;       //Initialize pins to low level
 340              		.loc 1 273 0
 341 01d0 0C2081E5 		str	r2, [r1, #12]
 274:framework.c   ****   IODIR = 0x00000000;       //Set pin direction
 342              		.loc 1 274 0
 343 01d4 083081E5 		str	r3, [r1, #8]
 344              		.loc 1 277 0
 345 01d8 751981E2 		add	r1, r1, #1916928
 346 01dc 040081E5 		str	r0, [r1, #4]
 278:framework.c   ****   MAMCR  = MAM_SETTING;      //0=disabled, 1=partly enabled (enabled for code prefetch, but not for
 347              		.loc 1 278 0
 348 01e0 0200A0E3 		mov	r0, #2
 349 01e4 000081E5 		str	r0, [r1, #0]
 279:framework.c   **** 
 280:framework.c   ****   //initialize the exception vector mapping
 281:framework.c   ****   MAMMAP = MAM_MAP;
 350              		.loc 1 281 0
 351 01e8 0100A0E3 		mov	r0, #1
 352 01ec 400081E5 		str	r0, [r1, #64]
 282:framework.c   **** 
 283:framework.c   ****   //set the peripheral bus speed, PCLK = CCLK / PBSD
 284:framework.c   **** 	VPBDIV = PBSD;
 353              		.loc 1 284 0
 354 01f0 0400A0E3 		mov	r0, #4
 355 01f4 000181E5 		str	r0, [r1, #256]
 285:framework.c   **** 	
 286:framework.c   **** 	//initialize VIC
 287:framework.c   ****   VICIntEnClr    = 0xFFFFFFFF;           /* Disable ALL interrupts                             */
 356              		.loc 1 287 0
 357 01f8 EB2F02E5 		str	r2, [r2, #-4075]
 288:framework.c   ****   VICProtection  = 0;                    /* Setup interrupt controller                         */
 358              		.loc 1 288 0
 359 01fc DF3F02E5 		str	r3, [r2, #-4063]
 289:framework.c   ****   VICDefVectAddr = (unsigned int)0;      /* Direct unvectored IRQs to reset, i.e., address 0x0 */
 360              		.loc 1 289 0
 361 0200 CB3F02E5 		str	r3, [r2, #-4043]
 290:framework.c   **** 
 291:framework.c   ****   VICVectAddr0   = (unsigned int)0;      /* Set the vector address                             */
 362              		.loc 1 291 0
ARM GAS  C:\Users\KOZLOV~1\AppData\Local\Temp\ccBbgZxi.s 			page 13


 363 0204 FF3E02E5 		str	r3, [r2, #-3839]
 292:framework.c   ****   VICVectAddr1   = (unsigned int)0;      /* Set the vector address                             */
 364              		.loc 1 292 0
 365 0208 FB3E02E5 		str	r3, [r2, #-3835]
 293:framework.c   ****   VICVectAddr2   = (unsigned int)0;      /* Set the vector address                             */
 366              		.loc 1 293 0
 367 020c F73E02E5 		str	r3, [r2, #-3831]
 294:framework.c   ****   VICVectAddr3   = (unsigned int)0;      /* Set the vector address                             */
 368              		.loc 1 294 0
 369 0210 F33E02E5 		str	r3, [r2, #-3827]
 295:framework.c   ****   VICVectAddr4   = (unsigned int)0;      /* Set the vector address                             */
 370              		.loc 1 295 0
 371 0214 EF3E02E5 		str	r3, [r2, #-3823]
 296:framework.c   ****   VICVectAddr5   = (unsigned int)0;      /* Set the vector address                             */
 372              		.loc 1 296 0
 373 0218 EB3E02E5 		str	r3, [r2, #-3819]
 297:framework.c   ****   VICVectAddr6   = (unsigned int)0;      /* Set the vector address                             */
 374              		.loc 1 297 0
 375 021c E73E02E5 		str	r3, [r2, #-3815]
 298:framework.c   ****   VICVectAddr7   = (unsigned int)0;      /* Set the vector address                             */
 376              		.loc 1 298 0
 377 0220 E33E02E5 		str	r3, [r2, #-3811]
 299:framework.c   ****   VICVectAddr8   = (unsigned int)0;      /* Set the vector address                             */
 378              		.loc 1 299 0
 379 0224 DF3E02E5 		str	r3, [r2, #-3807]
 300:framework.c   ****   VICVectAddr9   = (unsigned int)0;      /* Set the vector address                             */
 380              		.loc 1 300 0
 381 0228 DB3E02E5 		str	r3, [r2, #-3803]
 301:framework.c   ****   VICVectAddr10  = (unsigned int)0;      /* Set the vector address                             */
 382              		.loc 1 301 0
 383 022c D73E02E5 		str	r3, [r2, #-3799]
 302:framework.c   ****   VICVectAddr11  = (unsigned int)0;      /* Set the vector address                             */
 384              		.loc 1 302 0
 385 0230 D33E02E5 		str	r3, [r2, #-3795]
 303:framework.c   ****   VICVectAddr12  = (unsigned int)0;      /* Set the vector address                             */
 386              		.loc 1 303 0
 387 0234 CF3E02E5 		str	r3, [r2, #-3791]
 304:framework.c   ****   VICVectAddr13  = (unsigned int)0;      /* Set the vector address                             */
 388              		.loc 1 304 0
 389 0238 CB3E02E5 		str	r3, [r2, #-3787]
 305:framework.c   ****   VICVectAddr14  = (unsigned int)0;      /* Set the vector address                             */
 390              		.loc 1 305 0
 391 023c C73E02E5 		str	r3, [r2, #-3783]
 306:framework.c   ****   VICVectAddr15  = (unsigned int)0;      /* Set the vector address                             */
 392              		.loc 1 306 0
 393 0240 C33E02E5 		str	r3, [r2, #-3779]
 307:framework.c   **** 	
 308:framework.c   ****   //enable interrupts (both IRQ and FIQ) 
 309:framework.c   **** #ifdef __IAR_SYSTEMS_ICC__
 310:framework.c   ****   __enable_interrupt();
 311:framework.c   **** #else
 312:framework.c   ****   asm volatile ("mrs r3, cpsr       \n\t"                          
 394              		.loc 1 312 0
 395              	@ 312 "framework.c" 1
 396 0244 00300FE1 		mrs r3, cpsr       
 397 0248 C030C3E3 		bic r3, r3, #0xC0  
 398 024c 03F029E1 		msr cpsr, r3       
ARM GAS  C:\Users\KOZLOV~1\AppData\Local\Temp\ccBbgZxi.s 			page 14


 399              		
 400              	@ 0 "" 2
 313:framework.c   ****                 "bic r3, r3, #0xC0  \n\t"                      
 314:framework.c   ****                 "msr cpsr, r3       \n\t"                          
 315:framework.c   ****                 :                                       
 316:framework.c   ****                 :                                       
 317:framework.c   ****                 : "r3" );
 318:framework.c   **** #endif
 319:framework.c   **** }
 401              		.loc 1 319 0
 402 0250 1EFF2FE1 		bx	lr
 403              	.L30:
 404              		.align	2
 405              	.L29:
 406 0254 00C002E0 		.word	-536690688
 407 0258 008002E0 		.word	-536707072
 408              		.cfi_endproc
 409              	.LFE7:
 410              		.size	lowLevelInit, .-lowLevelInit
 411              		.align	2
 412              		.global	eaInit
 413              		.type	eaInit, %function
 414              	eaInit:
 415              	.LFB8:
 320:framework.c   **** 
 321:framework.c   **** /*****************************************************************************
 322:framework.c   ****  *
 323:framework.c   ****  * Description:
 324:framework.c   ****  *    Initialize the consol
 325:framework.c   ****  *
 326:framework.c   ****  ****************************************************************************/
 327:framework.c   **** void
 328:framework.c   **** eaInit(void)
 329:framework.c   **** {
 416              		.loc 1 329 0
 417              		.cfi_startproc
 418              		@ Function supports interworking.
 419              		@ args = 0, pretend = 0, frame = 0
 420              		@ frame_needed = 0, uses_anonymous_args = 0
 421 025c 04E02DE5 		str	lr, [sp, #-4]!
 422              	.LCFI6:
 423              		.cfi_def_cfa_offset 4
 424              		.cfi_offset 14, -4
 330:framework.c   ****   //initialize the consol
 331:framework.c   ****   consolInit();
 425              		.loc 1 331 0
 426 0260 FEFFFFEB 		bl	consolInit
 332:framework.c   ****   
 333:framework.c   **** #ifdef CONSOL_STARTUP_DELAY
 334:framework.c   ****   /*
 335:framework.c   ****    * setup timer #1 for a short delay
 336:framework.c   ****    */
 337:framework.c   ****   TIMER1_TCR = 0x02;          //stop and reset timer
 427              		.loc 1 337 0
 428 0264 40309FE5 		ldr	r3, .L34
 429 0268 0220A0E3 		mov	r2, #2
 430 026c 042083E5 		str	r2, [r3, #4]
ARM GAS  C:\Users\KOZLOV~1\AppData\Local\Temp\ccBbgZxi.s 			page 15


 338:framework.c   ****   TIMER1_PR  = 0x00;          //set prescaler to zero
 431              		.loc 1 338 0
 432 0270 0020A0E3 		mov	r2, #0
 433 0274 0C2083E5 		str	r2, [r3, #12]
 339:framework.c   ****   TIMER1_MR0 = CONSOL_STARTUP_DELAY_LENGTH * ((FOSC * PLL_MUL)/ (1000000 * PBSD));
 434              		.loc 1 339 0
 435 0278 30209FE5 		ldr	r2, .L34+4
 436 027c 182083E5 		str	r2, [r3, #24]
 340:framework.c   ****   TIMER1_IR  = 0xff;          //reset all interrrupt flags
 437              		.loc 1 340 0
 438 0280 FF20A0E3 		mov	r2, #255
 439 0284 002083E5 		str	r2, [r3, #0]
 341:framework.c   ****   TIMER1_MCR = 0x04;          //stop timer on match
 440              		.loc 1 341 0
 441 0288 0420A0E3 		mov	r2, #4
 442 028c 142083E5 		str	r2, [r3, #20]
 342:framework.c   ****   TIMER1_TCR = 0x01;          //start timer
 443              		.loc 1 342 0
 444 0290 0120A0E3 		mov	r2, #1
 445 0294 042083E5 		str	r2, [r3, #4]
 446              	.L32:
 343:framework.c   ****   
 344:framework.c   ****   //wait until delay time has elapsed
 345:framework.c   ****   while (TIMER1_TCR & 0x01)
 447              		.loc 1 345 0 discriminator 1
 448 0298 042093E5 		ldr	r2, [r3, #4]
 449 029c 010012E3 		tst	r2, #1
 450 02a0 FCFFFF1A 		bne	.L32
 346:framework.c   ****     ;
 347:framework.c   **** #endif
 348:framework.c   **** }
 451              		.loc 1 348 0
 452 02a4 04E09DE4 		ldr	lr, [sp], #4
 453 02a8 1EFF2FE1 		bx	lr
 454              	.L35:
 455              		.align	2
 456              	.L34:
 457 02ac 008000E0 		.word	-536838144
 458 02b0 78050000 		.word	1400
 459              		.cfi_endproc
 460              	.LFE8:
 461              		.size	eaInit, .-eaInit
 462              		.comm	pHeapEnd,4,4
 463              		.comm	pHeapStart,4,4
 464              		.section	.rodata.str1.1,"aMS",%progbits,1
 465              	.LC0:
 466 0000 49525120 		.ascii	"IRQ exception !!!\012Address: 0x\000"
 466      65786365 
 466      7074696F 
 466      6E202121 
 466      210A4164 
 467              	.LC1:
 468 001e 46495120 		.ascii	"FIQ exception !!!\012Address: 0x\000"
 468      65786365 
 468      7074696F 
 468      6E202121 
 468      210A4164 
ARM GAS  C:\Users\KOZLOV~1\AppData\Local\Temp\ccBbgZxi.s 			page 16


 469              	.LC2:
 470 003c 4461626F 		.ascii	"Dabort exception !!!\012Address: 0x\000"
 470      72742065 
 470      78636570 
 470      74696F6E 
 470      20212121 
 471              	.LC3:
 472 005d 5061626F 		.ascii	"Pabort exception !!!\012Address: 0x\000"
 472      72742065 
 472      78636570 
 472      74696F6E 
 472      20212121 
 473              	.LC4:
 474 007e 53574920 		.ascii	"SWI exception !!!\012Address: 0x\000"
 474      65786365 
 474      7074696F 
 474      6E202121 
 474      210A4164 
 475              	.LC5:
 476 009c 556E6465 		.ascii	"Undefined instruction exception !!!\012Address: 0x\000"
 476      66696E65 
 476      6420696E 
 476      73747275 
 476      6374696F 
 477              		.text
 478              	.Letext0: