ARM GAS  C:\Users\KOZLOV~1\AppData\Local\Temp\ccf0DoP2.s 			page 1


   1              		.file	"irqUart.c"
   2              		.text
   3              	.Ltext0:
   4              		.cfi_sections	.debug_frame
   5              		.align	2
   6              		.global	uart1ISR
   7              		.type	uart1ISR, %function
   8              	uart1ISR:
   9              	.LFB0:
  10              		.file 1 "irqUart.c"
   1:irqUart.c     **** /******************************************************************************
   2:irqUart.c     ****  *
   3:irqUart.c     ****  * File:
   4:irqUart.c     ****  *    irqUart.c
   5:irqUart.c     ****  *
   6:irqUart.c     ****  * Description:
   7:irqUart.c     ****  *    Sample irq code, that must be compiled in ARM code.
   8:irqUart.c     ****  *
   9:irqUart.c     ****  *****************************************************************************/
  10:irqUart.c     **** 
  11:irqUart.c     **** /******************************************************************************
  12:irqUart.c     ****  * Includes
  13:irqUart.c     ****  *****************************************************************************/
  14:irqUart.c     **** #include "../pre_emptive_os/api/osapi.h"
  15:irqUart.c     **** #include <lpc2xxx.h>
  16:irqUart.c     **** #include "irqUart.h"
  17:irqUart.c     **** #include "../uart.h"
  18:irqUart.c     **** 
  19:irqUart.c     **** extern tCntSem receiveSem;
  20:irqUart.c     **** 
  21:irqUart.c     **** /*****************************************************************************
  22:irqUart.c     ****  * Public function prototypes
  23:irqUart.c     ****  ****************************************************************************/
  24:irqUart.c     **** 
  25:irqUart.c     **** /*****************************************************************************
  26:irqUart.c     ****  * Implementation of public functions
  27:irqUart.c     ****  ****************************************************************************/
  28:irqUart.c     **** 
  29:irqUart.c     **** /*****************************************************************************
  30:irqUart.c     ****  *
  31:irqUart.c     ****  * Description:
  32:irqUart.c     ****  *    Actual uart #1 ISR that is called whenever the uart generated an interrupt.
  33:irqUart.c     ****  *
  34:irqUart.c     ****  ****************************************************************************/
  35:irqUart.c     **** #ifdef __IAR_SYSTEMS_ICC__
  36:irqUart.c     **** __arm void
  37:irqUart.c     **** uart1ISR(void)
  38:irqUart.c     **** #else
  39:irqUart.c     **** void
  40:irqUart.c     **** uart1ISR(void)
  41:irqUart.c     **** #endif
  42:irqUart.c     **** {
  11              		.loc 1 42 0
  12              		.cfi_startproc
  13              		@ Function supports interworking.
  14              		@ args = 0, pretend = 0, frame = 12
  15              		@ frame_needed = 0, uses_anonymous_args = 0
ARM GAS  C:\Users\KOZLOV~1\AppData\Local\Temp\ccf0DoP2.s 			page 2


  16 0000 F7402DE9 		stmfd	sp!, {r0, r1, r2, r4, r5, r6, r7, lr}
  17              	.LCFI0:
  18              		.cfi_def_cfa_offset 32
  19              		.cfi_offset 14, -4
  20              		.cfi_offset 7, -8
  21              		.cfi_offset 6, -12
  22              		.cfi_offset 5, -16
  23              		.cfi_offset 4, -20
  24              		.cfi_offset 2, -24
  25              		.cfi_offset 1, -28
  26              		.cfi_offset 0, -32
  43:irqUart.c     ****   volatile tU8  statusReg;
  44:irqUart.c     ****   volatile tU8  dummy;
  45:irqUart.c     ****   volatile tU32 tmpHead;
  46:irqUart.c     ****   volatile tU32 tmpTail;
  47:irqUart.c     ****            tU8  error;
  48:irqUart.c     **** 
  49:irqUart.c     ****   //loop until not more interrupt sources
  50:irqUart.c     ****   while (((statusReg = U1IIR) & 0x01) == 0)
  27              		.loc 1 50 0
  28 0004 24429FE5 		ldr	r4, .L28
  51:irqUart.c     ****   {
  52:irqUart.c     ****     //identify and process the highest priority interrupt
  53:irqUart.c     ****     switch (statusReg & 0x0E)
  54:irqUart.c     ****     {
  55:irqUart.c     ****       case 0x06:  //Receive Line Status
  56:irqUart.c     ****       dummy = U1LSR;  //read LSR to clear bits
  57:irqUart.c     ****       break;
  58:irqUart.c     **** 
  59:irqUart.c     ****       case 0x0c:  //Character Timeout Indicator
  60:irqUart.c     ****       case 0x04:  //Receive Data Available
  61:irqUart.c     ****       do
  62:irqUart.c     ****       {
  63:irqUart.c     ****         tmpHead     = (uart1RxHead + 1) & RX_BUFFER_MASK;
  29              		.loc 1 63 0
  30 0008 24629FE5 		ldr	r6, .L28+4
  31 000c 0450A0E1 		mov	r5, r4
  50:irqUart.c     ****   while (((statusReg = U1IIR) & 0x01) == 0)
  32              		.loc 1 50 0
  33 0010 7C0000EA 		b	.L24
  34              	.LVL0:
  35              	.L17:
  53:irqUart.c     ****     switch (statusReg & 0x0E)
  36              		.loc 1 53 0
  37 0014 0930DDE5 		ldrb	r3, [sp, #9]	@ zero_extendqisi2
  38              	.LVL1:
  39 0018 0E3003E2 		and	r3, r3, #14
  40              	.LVL2:
  41 001c 0C0053E3 		cmp	r3, #12
  42 0020 03F19F97 		ldrls	pc, [pc, r3, asl #2]
  43 0024 710000EA 		b	.L3
  44              	.L8:
  45 0028 64010000 		.word	.L4
  46 002c F0010000 		.word	.L3
  47 0030 E8000000 		.word	.L5
  48 0034 F0010000 		.word	.L3
  49 0038 64000000 		.word	.L6
ARM GAS  C:\Users\KOZLOV~1\AppData\Local\Temp\ccf0DoP2.s 			page 3


  50 003c F0010000 		.word	.L3
  51 0040 5C000000 		.word	.L7
  52 0044 F0010000 		.word	.L3
  53 0048 F0010000 		.word	.L3
  54 004c F0010000 		.word	.L3
  55 0050 F0010000 		.word	.L3
  56 0054 F0010000 		.word	.L3
  57 0058 64000000 		.word	.L6
  58              	.L7:
  56:irqUart.c     ****       dummy = U1LSR;  //read LSR to clear bits
  59              		.loc 1 56 0
  60 005c 143095E5 		ldr	r3, [r5, #20]
  61 0060 660000EA 		b	.L26
  62              	.L6:
  64:irqUart.c     ****         uart1RxHead = tmpHead;
  65:irqUart.c     **** 
  66:irqUart.c     ****         if(tmpHead == uart1RxTail)
  63              		.loc 1 66 0
  64 0064 CC719FE5 		ldr	r7, .L28+8
  65              	.L20:
  63:irqUart.c     ****         tmpHead     = (uart1RxHead + 1) & RX_BUFFER_MASK;
  66              		.loc 1 63 0
  67 0068 003096E5 		ldr	r3, [r6, #0]
  68 006c 013083E2 		add	r3, r3, #1
  69 0070 033BA0E1 		mov	r3, r3, asl #22
  70 0074 233BA0E1 		mov	r3, r3, lsr #22
  71              	.LVL3:
  72 0078 00308DE5 		str	r3, [sp, #0]
  73              	.LVL4:
  64:irqUart.c     ****         uart1RxHead = tmpHead;
  74              		.loc 1 64 0
  75 007c 00309DE5 		ldr	r3, [sp, #0]
  76              	.LVL5:
  77 0080 003086E5 		str	r3, [r6, #0]
  78              		.loc 1 66 0
  79 0084 00209DE5 		ldr	r2, [sp, #0]
  80 0088 003097E5 		ldr	r3, [r7, #0]
  81              	.LVL6:
  82 008c 030052E1 		cmp	r2, r3
  67:irqUart.c     ****           tmpHead = U1RBR;              //dummy read to reset IRQ flag
  83              		.loc 1 67 0
  84 0090 00309405 		ldreq	r3, [r4, #0]
  85              	.LVL7:
  86 0094 00308D05 		streq	r3, [sp, #0]
  66:irqUart.c     ****         if(tmpHead == uart1RxTail)
  87              		.loc 1 66 0
  88 0098 0E00000A 		beq	.L11
  68:irqUart.c     ****         else
  69:irqUart.c     ****         {
  70:irqUart.c     ****           uart1RxBuf[tmpHead] = U1RBR;  //will reset IRQ flag
  89              		.loc 1 70 0
  90 009c 00309DE5 		ldr	r3, [sp, #0]
  91              	.LVL8:
  92 00a0 94219FE5 		ldr	r2, .L28+12
  93 00a4 001094E5 		ldr	r1, [r4, #0]
  94 00a8 0310C2E7 		strb	r1, [r2, r3]
  71:irqUart.c     **** 
ARM GAS  C:\Users\KOZLOV~1\AppData\Local\Temp\ccf0DoP2.s 			page 4


  72:irqUart.c     **** uart1RxInBuff++;
  95              		.loc 1 72 0
  96 00ac 8C319FE5 		ldr	r3, .L28+16
  97 00b0 002093E5 		ldr	r2, [r3, #0]
  98 00b4 012082E2 		add	r2, r2, #1
  99              	.LVL9:
 100 00b8 002083E5 		str	r2, [r3, #0]
 101              	.LVL10:
  73:irqUart.c     **** if(uart1RxInBuff > (RX_BUFFER_SIZE - RX_BUFFER_LIMIT))
 102              		.loc 1 73 0
 103 00bc 003093E5 		ldr	r3, [r3, #0]
 104 00c0 0F0D53E3 		cmp	r3, #960
  74:irqUart.c     **** {
  75:irqUart.c     ****   //pull RTS low = other side should stop sending
  76:irqUart.c     ****   UART1_MCR = 0x00;
 105              		.loc 1 76 0
 106 00c4 0030A083 		movhi	r3, #0
 107 00c8 10308485 		strhi	r3, [r4, #16]
  77:irqUart.c     **** //  RTSlow = TRUE;
  78:irqUart.c     **** }
  79:irqUart.c     **** 
  80:irqUart.c     **** osSemGive(&receiveSem, &error);
 108              		.loc 1 80 0
 109 00cc 70019FE5 		ldr	r0, .L28+20
 110 00d0 0B108DE2 		add	r1, sp, #11
 111 00d4 FEFFFFEB 		bl	osSemGive
 112              	.LVL11:
 113              	.L11:
  81:irqUart.c     **** 
  82:irqUart.c     ****         }
  83:irqUart.c     **** 
  84:irqUart.c     ****       } while (U1LSR & 0x01);
 114              		.loc 1 84 0
 115 00d8 143094E5 		ldr	r3, [r4, #20]
 116 00dc 010013E3 		tst	r3, #1
 117 00e0 E0FFFF1A 		bne	.L20
 118 00e4 470000EA 		b	.L24
 119              	.L5:
  85:irqUart.c     ****       break;
  86:irqUart.c     **** 
  87:irqUart.c     ****       case 0x02:  //Transmit Holding Register Empty
  88:irqUart.c     ****       //check if all data is transmitted
  89:irqUart.c     ****       if (uart1TxHead != uart1TxTail)
 120              		.loc 1 89 0
 121 00e8 58119FE5 		ldr	r1, .L28+24
 122 00ec 58319FE5 		ldr	r3, .L28+28
 123 00f0 000091E5 		ldr	r0, [r1, #0]
 124 00f4 002093E5 		ldr	r2, [r3, #0]
 125 00f8 020050E1 		cmp	r0, r2
 126 00fc 1400000A 		beq	.L13
 127              	.LBB2:
  90:irqUart.c     ****       {
  91:irqUart.c     ****       	tU32 bytesToSend;
  92:irqUart.c     ****       	
  93:irqUart.c     ****       	if (statusReg & 0xc0)
 128              		.loc 1 93 0
 129 0100 0920DDE5 		ldrb	r2, [sp, #9]	@ zero_extendqisi2
ARM GAS  C:\Users\KOZLOV~1\AppData\Local\Temp\ccf0DoP2.s 			page 5


 130              	.LVL12:
  94:irqUart.c     ****       	  bytesToSend = 16;    //FIFO enabled
  95:irqUart.c     ****       	else
  96:irqUart.c     ****       	  bytesToSend = 1;     //no FIFO enabled
  97:irqUart.c     **** 
  98:irqUart.c     ****       	do
  99:irqUart.c     ****       	{
 100:irqUart.c     ****           //calculate buffer index
 101:irqUart.c     ****           tmpTail = (uart1TxTail + 1) & TX_BUFFER_MASK;
 102:irqUart.c     **** 
 103:irqUart.c     ****           uart1TxTail = tmpTail;
 104:irqUart.c     ****           U1THR = uart1TxBuf[tmpTail]; 
 131              		.loc 1 104 0
 132 0104 44019FE5 		ldr	r0, .L28+32
  94:irqUart.c     ****       	  bytesToSend = 16;    //FIFO enabled
 133              		.loc 1 94 0
 134 0108 C00012E3 		tst	r2, #192
 135 010c 0120A003 		moveq	r2, #1
 136 0110 1020A013 		movne	r2, #16
 137              	.LVL13:
 138              	.L15:
 101:irqUart.c     ****           tmpTail = (uart1TxTail + 1) & TX_BUFFER_MASK;
 139              		.loc 1 101 0 discriminator 1
 140 0114 00C093E5 		ldr	ip, [r3, #0]
 141 0118 01C08CE2 		add	ip, ip, #1
 142 011c FFC00CE2 		and	ip, ip, #255
 143              	.LVL14:
 144 0120 04C08DE5 		str	ip, [sp, #4]
 145              	.LVL15:
 103:irqUart.c     ****           uart1TxTail = tmpTail;
 146              		.loc 1 103 0 discriminator 1
 147 0124 04C09DE5 		ldr	ip, [sp, #4]
 148              	.LVL16:
 149 0128 00C083E5 		str	ip, [r3, #0]
 150              		.loc 1 104 0 discriminator 1
 151 012c 04C09DE5 		ldr	ip, [sp, #4]
 152              	.LVL17:
 153 0130 0CC0D0E7 		ldrb	ip, [r0, ip]	@ zero_extendqisi2
 154 0134 00C084E5 		str	ip, [r4, #0]
 105:irqUart.c     ****         } while((uart1TxHead != uart1TxTail) && --bytesToSend);
 155              		.loc 1 105 0 discriminator 1
 156 0138 007091E5 		ldr	r7, [r1, #0]
 157 013c 00C093E5 		ldr	ip, [r3, #0]
 158 0140 0C0057E1 		cmp	r7, ip
 159 0144 2F00000A 		beq	.L24
 160              	.LVL18:
 161 0148 012052E2 		subs	r2, r2, #1
 162              	.LVL19:
 163 014c F0FFFF1A 		bne	.L15
 164 0150 2C0000EA 		b	.L24
 165              	.LVL20:
 166              	.L13:
 167              	.LBE2:
 106:irqUart.c     ****       }
 107:irqUart.c     **** 
 108:irqUart.c     ****       //all data has been transmitted
 109:irqUart.c     ****       else
ARM GAS  C:\Users\KOZLOV~1\AppData\Local\Temp\ccf0DoP2.s 			page 6


 110:irqUart.c     ****       {
 111:irqUart.c     ****         uart1TxRunning = FALSE;
 168              		.loc 1 111 0
 169 0154 F8309FE5 		ldr	r3, .L28+36
 170 0158 0020A0E3 		mov	r2, #0
 171 015c 0020C3E5 		strb	r2, [r3, #0]
 172 0160 1E0000EA 		b	.L27
 173              	.L4:
 174              	.LBB3:
 112:irqUart.c     ****         U1IER &= ~0x02;        //disable TX IRQ
 113:irqUart.c     ****       }
 114:irqUart.c     ****       break;
 115:irqUart.c     **** 
 116:irqUart.c     ****       case 0x00:  //Modem signal IRQ
 117:irqUart.c     ****       {
 118:irqUart.c     ****       tU8 cause = UART1_MSR;
 175              		.loc 1 118 0
 176 0164 183095E5 		ldr	r3, [r5, #24]
 177              	.LVL21:
 119:irqUart.c     ****       
 120:irqUart.c     ****       //check if change on CTS
 121:irqUart.c     ****       if((cause & 0x01) == 0x01)
 178              		.loc 1 121 0
 179 0168 010013E3 		tst	r3, #1
 180 016c 2500000A 		beq	.L24
 122:irqUart.c     ****       {
 123:irqUart.c     ****         //check if CTS is low = allowed to send (register value is inverse of signal at pin)
 124:irqUart.c     ****         if((cause & 0x10) == 0x10)
 181              		.loc 1 124 0
 182 0170 103013E2 		ands	r3, r3, #16
 183              	.LVL22:
 125:irqUart.c     ****         {
 126:irqUart.c     **** //CTShigh = TRUE;
 127:irqUart.c     ****           /* check if data to be transmitted */
 128:irqUart.c     ****           if((uart1TxHead != uart1TxTail) && (uart1TxRunning == FALSE))
 129:irqUart.c     ****           {
 130:irqUart.c     ****             /* calculate buffer index */
 131:irqUart.c     ****             tmpTail = (uart1TxTail + 1) & TX_BUFFER_MASK;
 132:irqUart.c     **** 
 133:irqUart.c     ****             uart1TxTail = tmpTail;
 134:irqUart.c     ****             U1THR = uart1TxBuf[tmpTail]; 
 135:irqUart.c     ****             uart1TxRunning = TRUE;
 136:irqUart.c     ****             U1IER = 0x0f;          /* enable TX IRQ, and RX IRQ still enabled (and modem) */
 137:irqUart.c     ****           }
 138:irqUart.c     ****         }
 139:irqUart.c     **** 
 140:irqUart.c     ****         //CTS is high = NOT allowed to send
 141:irqUart.c     ****         else
 142:irqUart.c     ****         {
 143:irqUart.c     **** //CTSlow = TRUE;
 144:irqUart.c     ****           uart1TxRunning = FALSE;
 184              		.loc 1 144 0
 185 0174 D8209F05 		ldreq	r2, .L28+36
 186 0178 0030C205 		streqb	r3, [r2, #0]
 124:irqUart.c     ****         if((cause & 0x10) == 0x10)
 187              		.loc 1 124 0
 188 017c 1700000A 		beq	.L27
ARM GAS  C:\Users\KOZLOV~1\AppData\Local\Temp\ccf0DoP2.s 			page 7


 128:irqUart.c     ****           if((uart1TxHead != uart1TxTail) && (uart1TxRunning == FALSE))
 189              		.loc 1 128 0
 190 0180 C0309FE5 		ldr	r3, .L28+24
 191 0184 001093E5 		ldr	r1, [r3, #0]
 192 0188 BC309FE5 		ldr	r3, .L28+28
 193 018c 002093E5 		ldr	r2, [r3, #0]
 194 0190 020051E1 		cmp	r1, r2
 195 0194 1B00000A 		beq	.L24
 128:irqUart.c     ****           if((uart1TxHead != uart1TxTail) && (uart1TxRunning == FALSE))
 196              		.loc 1 128 0 is_stmt 0 discriminator 1
 197 0198 B4209FE5 		ldr	r2, .L28+36
 198 019c 0010D2E5 		ldrb	r1, [r2, #0]	@ zero_extendqisi2
 199 01a0 000051E3 		cmp	r1, #0
 200 01a4 1700001A 		bne	.L24
 131:irqUart.c     ****             tmpTail = (uart1TxTail + 1) & TX_BUFFER_MASK;
 201              		.loc 1 131 0 is_stmt 1
 202 01a8 001093E5 		ldr	r1, [r3, #0]
 203 01ac 011081E2 		add	r1, r1, #1
 204 01b0 FF1001E2 		and	r1, r1, #255
 205              	.LVL23:
 206 01b4 04108DE5 		str	r1, [sp, #4]
 207              	.LVL24:
 133:irqUart.c     ****             uart1TxTail = tmpTail;
 208              		.loc 1 133 0
 209 01b8 04109DE5 		ldr	r1, [sp, #4]
 210              	.LVL25:
 211 01bc 001083E5 		str	r1, [r3, #0]
 134:irqUart.c     ****             U1THR = uart1TxBuf[tmpTail]; 
 212              		.loc 1 134 0
 213 01c0 04309DE5 		ldr	r3, [sp, #4]
 214 01c4 84109FE5 		ldr	r1, .L28+32
 215              	.LVL26:
 216 01c8 0330D1E7 		ldrb	r3, [r1, r3]	@ zero_extendqisi2
 217 01cc 003084E5 		str	r3, [r4, #0]
 135:irqUart.c     ****             uart1TxRunning = TRUE;
 218              		.loc 1 135 0
 219 01d0 0130A0E3 		mov	r3, #1
 220 01d4 0030C2E5 		strb	r3, [r2, #0]
 136:irqUart.c     ****             U1IER = 0x0f;          /* enable TX IRQ, and RX IRQ still enabled (and modem) */
 221              		.loc 1 136 0
 222 01d8 0F30A0E3 		mov	r3, #15
 223 01dc 010000EA 		b	.L25
 224              	.L27:
 145:irqUart.c     ****           U1IER &= ~0x02;        //disable TX IRQ
 225              		.loc 1 145 0
 226 01e0 043094E5 		ldr	r3, [r4, #4]
 227 01e4 0230C3E3 		bic	r3, r3, #2
 228              	.L25:
 229 01e8 043084E5 		str	r3, [r4, #4]
 230 01ec 050000EA 		b	.L24
 231              	.L3:
 232              	.LBE3:
 146:irqUart.c     ****         }
 147:irqUart.c     ****       }
 148:irqUart.c     ****       }
 149:irqUart.c     ****       break;
 150:irqUart.c     **** 
ARM GAS  C:\Users\KOZLOV~1\AppData\Local\Temp\ccf0DoP2.s 			page 8


 151:irqUart.c     ****       default:  //unknown
 152:irqUart.c     ****       dummy = U1LSR;
 233              		.loc 1 152 0
 234 01f0 143095E5 		ldr	r3, [r5, #20]
 235 01f4 FF3003E2 		and	r3, r3, #255
 236              	.LVL27:
 237 01f8 0A30CDE5 		strb	r3, [sp, #10]
 153:irqUart.c     ****       dummy = U1RBR;
 238              		.loc 1 153 0
 239 01fc 003095E5 		ldr	r3, [r5, #0]
 240              	.LVL28:
 241              	.L26:
 242 0200 FF3003E2 		and	r3, r3, #255
 243              	.LVL29:
 244 0204 0A30CDE5 		strb	r3, [sp, #10]
 245              	.L24:
  50:irqUart.c     ****   while (((statusReg = U1IIR) & 0x01) == 0)
 246              		.loc 1 50 0 discriminator 1
 247 0208 083094E5 		ldr	r3, [r4, #8]
 248              	.LVL30:
 249 020c FF2003E2 		and	r2, r3, #255
 250 0210 010013E3 		tst	r3, #1
 251 0214 0920CDE5 		strb	r2, [sp, #9]
 252              	.LVL31:
 253 0218 7DFFFF0A 		beq	.L17
 154:irqUart.c     ****       break;
 155:irqUart.c     ****     }
 156:irqUart.c     ****   }
 157:irqUart.c     **** 
 158:irqUart.c     ****   VICVectAddr = 0x00000000;    //dummy write to VIC to signal end of interrupt
 254              		.loc 1 158 0
 255 021c 0020A0E3 		mov	r2, #0
 256 0220 0030E0E3 		mvn	r3, #0
 257 0224 CF2F03E5 		str	r2, [r3, #-4047]
 159:irqUart.c     **** }
 258              		.loc 1 159 0
 259 0228 FE40BDE8 		ldmfd	sp!, {r1, r2, r3, r4, r5, r6, r7, lr}
 260 022c 1EFF2FE1 		bx	lr
 261              	.L29:
 262              		.align	2
 263              	.L28:
 264 0230 000001E0 		.word	-536805376
 265 0234 00000000 		.word	uart1RxHead
 266 0238 00000000 		.word	uart1RxTail
 267 023c 00000000 		.word	uart1RxBuf
 268 0240 00000000 		.word	uart1RxInBuff
 269 0244 00000000 		.word	receiveSem
 270 0248 00000000 		.word	uart1TxHead
 271 024c 00000000 		.word	uart1TxTail
 272 0250 00000000 		.word	uart1TxBuf
 273 0254 00000000 		.word	uart1TxRunning
 274              		.cfi_endproc
 275              	.LFE0:
 276              		.size	uart1ISR, .-uart1ISR
 277              		.align	2
 278              		.global	disIrq
 279              		.type	disIrq, %function
ARM GAS  C:\Users\KOZLOV~1\AppData\Local\Temp\ccf0DoP2.s 			page 9


 280              	disIrq:
 281              	.LFB1:
 160:irqUart.c     **** 
 161:irqUart.c     **** /*****************************************************************************
 162:irqUart.c     ****  *
 163:irqUart.c     ****  * Description:
 164:irqUart.c     ****  *    Disable interrupts 
 165:irqUart.c     ****  *
 166:irqUart.c     ****  * Returns:
 167:irqUart.c     ****  *    The current status register, before disabling interrupts. 
 168:irqUart.c     ****  *
 169:irqUart.c     ****  ****************************************************************************/
 170:irqUart.c     **** #ifdef __IAR_SYSTEMS_ICC__
 171:irqUart.c     **** #include <intrinsic.h>
 172:irqUart.c     **** __arm tU32
 173:irqUart.c     **** disIrq(void)
 174:irqUart.c     **** {
 175:irqUart.c     ****   asm("disIrq1: mrs r0, cpsr  ");
 176:irqUart.c     ****   asm("  orr r1, r0, #0xC0    ");
 177:irqUart.c     ****   asm("  msr cpsr_c, r1       ");
 178:irqUart.c     ****   asm("  mrs r1, cpsr         ");
 179:irqUart.c     ****   asm("  and r1, r1, #0xC0    ");
 180:irqUart.c     ****   asm("  cmp r1, #0xC0        ");
 181:irqUart.c     ****   asm("  bne disIrq1          ");
 182:irqUart.c     **** }
 183:irqUart.c     **** 
 184:irqUart.c     **** #else
 185:irqUart.c     **** 
 186:irqUart.c     **** tU32
 187:irqUart.c     **** disIrq(void)
 188:irqUart.c     **** {
 282              		.loc 1 188 0
 283              		.cfi_startproc
 284              		@ Function supports interworking.
 285              		@ args = 0, pretend = 0, frame = 0
 286              		@ frame_needed = 0, uses_anonymous_args = 0
 287              		@ link register save eliminated.
 189:irqUart.c     ****   tU32 returnReg;
 190:irqUart.c     ****   asm volatile ("disIrq1: mrs %0, cpsr  \n\t"
 191:irqUart.c     ****                 "orr r1, %0, #0xC0      \n\t"
 192:irqUart.c     ****                 "msr cpsr_c, r1         \n\t"
 193:irqUart.c     ****                 "mrs r1, cpsr           \n\t"
 194:irqUart.c     ****                 "and r1, r1, #0xC0      \n\t"
 195:irqUart.c     ****                 "cmp r1, #0xC0          \n\t"
 196:irqUart.c     ****                 "bne disIrq1            \n\t"
 197:irqUart.c     ****                 : "=r"(returnReg)
 198:irqUart.c     ****                 :
 199:irqUart.c     ****                 : "r1"
 200:irqUart.c     ****                );
 201:irqUart.c     ****   return returnReg;
 202:irqUart.c     **** }
 288              		.loc 1 202 0
 289              	@ 190 "irqUart.c" 1
 290 0258 00000FE1 		disIrq1: mrs r0, cpsr  
 291 025c C01080E3 		orr r1, r0, #0xC0      
 292 0260 01F021E1 		msr cpsr_c, r1         
 293 0264 00100FE1 		mrs r1, cpsr           
ARM GAS  C:\Users\KOZLOV~1\AppData\Local\Temp\ccf0DoP2.s 			page 10


 294 0268 C01001E2 		and r1, r1, #0xC0      
 295 026c C00051E3 		cmp r1, #0xC0          
 296 0270 F8FFFF1A 		bne disIrq1            
 297              		
 298              	@ 0 "" 2
 299 0274 1EFF2FE1 		bx	lr
 300              		.cfi_endproc
 301              	.LFE1:
 302              		.size	disIrq, .-disIrq
 303              		.align	2
 304              		.global	restoreIrq
 305              		.type	restoreIrq, %function
 306              	restoreIrq:
 307              	.LFB2:
 203:irqUart.c     **** #endif
 204:irqUart.c     **** 
 205:irqUart.c     **** /*****************************************************************************
 206:irqUart.c     ****  *
 207:irqUart.c     ****  * Description:
 208:irqUart.c     ****  *    Restore interrupt state. 
 209:irqUart.c     ****  *
 210:irqUart.c     ****  * Params:
 211:irqUart.c     ****  *    [in] restoreValue - The value of the new status register. 
 212:irqUart.c     ****  *
 213:irqUart.c     ****  ****************************************************************************/
 214:irqUart.c     **** #ifdef __IAR_SYSTEMS_ICC__
 215:irqUart.c     **** __arm void
 216:irqUart.c     **** restoreIrq(tU32 restoreValue)
 217:irqUart.c     **** {
 218:irqUart.c     ****   asm("  msr cpsr_c, r0");
 219:irqUart.c     **** }
 220:irqUart.c     **** 
 221:irqUart.c     **** #else
 222:irqUart.c     **** 
 223:irqUart.c     **** void
 224:irqUart.c     **** restoreIrq(tU32 restoreValue)
 225:irqUart.c     **** {
 308              		.loc 1 225 0
 309              		.cfi_startproc
 310              		@ Function supports interworking.
 311              		@ args = 0, pretend = 0, frame = 0
 312              		@ frame_needed = 0, uses_anonymous_args = 0
 313              		@ link register save eliminated.
 314              	.LVL32:
 226:irqUart.c     ****   asm volatile ("msr cpsr_c, %0  \n\t"
 315              		.loc 1 226 0
 316              	@ 226 "irqUart.c" 1
 317 0278 00F021E1 		msr cpsr_c, r0  
 318              		
 319              	@ 0 "" 2
 227:irqUart.c     ****                 :
 228:irqUart.c     ****                 : "r" (restoreValue)
 229:irqUart.c     ****                 : "r1"
 230:irqUart.c     ****                );
 231:irqUart.c     **** }
 320              		.loc 1 231 0
 321 027c 1EFF2FE1 		bx	lr
ARM GAS  C:\Users\KOZLOV~1\AppData\Local\Temp\ccf0DoP2.s 			page 11


 322              		.cfi_endproc
 323              	.LFE2:
 324              		.size	restoreIrq, .-restoreIrq
 325              	.Letext0:
 326              		.file 2 "../pre_emptive_os/api/../api/general.h"
 327              		.file 3 "../pre_emptive_os/api/osapi.h"
 328              		.file 4 "irqUart.h"